Certificate:
    Data:
        Version: 3 (0x2)
        Serial Number: 268435457 (0x10000001)
    Signature Algorithm: sha256WithRSAEncryption
        Issuer: CN=SRK1_sha256_2048_65537_v3_ca
        Validity
            Not Before: Mar 13 09:15:51 2018 GMT
            Not After : Mar 10 09:15:51 2028 GMT
        Subject: CN=CSF1_1_sha256_2048_65537_v3_usr
        Subject Public Key Info:
            Public Key Algorithm: rsaEncryption
                Public-Key: (2048 bit)
                Modulus:
                    00:ba:60:cc:c6:89:fc:97:95:03:6e:e6:29:3d:16:
                    83:a5:22:ec:60:a6:06:57:83:78:04:39:76:87:cc:
                    c9:45:1c:00:6c:29:b5:73:48:05:41:cb:14:30:7b:
                    6a:a3:4f:96:30:2e:08:cb:9b:25:7d:ea:cd:84:a9:
                    f8:a2:7f:47:13:a2:7e:de:a4:ce:f4:9f:3f:df:94:
                    31:52:3a:aa:c6:08:55:6a:2f:41:c1:07:84:c8:db:
                    2e:38:59:e7:87:6a:10:56:ab:66:1a:69:53:ef:e2:
                    32:a2:1f:b5:71:36:43:f8:85:1b:ef:d1:79:ea:d9:
                    16:97:54:94:0a:6b:80:1c:84:29:1e:05:49:49:2c:
                    85:d8:f8:44:46:be:c8:69:de:61:0d:09:70:2c:27:
                    58:cb:cf:2a:d2:7f:fe:c5:d2:a2:59:1c:4f:3b:83:
                    cf:24:9e:fd:a5:fd:8b:3a:42:bf:ff:e5:28:18:a9:
                    f1:88:2a:7d:3d:6e:cd:45:cd:d7:11:42:0e:50:d4:
                    8c:71:da:4d:d5:02:ae:75:23:71:60:02:56:e7:49:
                    4e:4a:a3:6c:e6:51:fc:ec:cc:48:90:2a:91:07:2c:
                    9a:6b:5b:e9:20:9d:05:db:34:e2:b2:14:ef:71:8b:
                    99:62:be:ed:b8:87:61:a9:f3:65:1f:85:83:1b:74:
                    56:cb
                Exponent: 65537 (0x10001)
        X509v3 extensions:
            X509v3 Basic Constraints: 
                CA:FALSE
            Netscape Comment: 
                OpenSSL Generated Certificate
            X509v3 Subject Key Identifier: 
                6B:C3:6C:45:72:C3:A6:9D:25:A2:27:11:9A:75:A0:12:F8:3D:3B:1C
            X509v3 Authority Key Identifier: 
                keyid:88:7E:37:4E:BC:26:73:C4:D1:C2:C4:D0:5F:0B:DE:A9:31:DB:E6:34

    Signature Algorithm: sha256WithRSAEncryption
         8b:1b:7a:0a:1e:ee:ec:86:4b:1d:63:02:ee:93:bd:14:1e:67:
         53:d9:61:68:b1:9a:ca:e9:b1:af:68:df:81:93:49:c3:2b:f0:
         6a:7c:c7:c0:81:62:24:68:a2:dc:88:11:ed:52:c9:fe:78:44:
         93:b9:ef:5e:34:cf:f3:48:6f:0c:72:44:61:ab:6e:34:82:0b:
         d0:a0:51:d3:eb:f6:0a:aa:3f:28:21:f7:fe:2e:60:01:44:56:
         0c:62:cc:3f:f5:c4:02:d3:f2:a7:c0:3a:8e:97:70:29:cf:84:
         58:92:1a:a7:e7:5b:d7:e9:08:42:0e:49:0d:96:5a:83:36:4f:
         95:82:e6:03:94:50:cd:e2:ac:fe:0b:56:62:de:f6:0a:c0:2b:
         05:19:a9:d4:c0:2f:0c:d1:1c:93:f6:ef:87:e5:c5:26:ca:a5:
         c4:0d:4e:6a:61:14:b7:1d:54:c8:22:cc:48:52:84:4d:9f:ac:
         ea:4d:38:c6:30:e5:1b:92:3f:47:75:2f:37:4b:f8:53:5f:0c:
         02:20:2a:18:d5:5f:fb:d5:8c:99:72:ba:64:15:39:65:18:9c:
         df:06:a0:22:04:73:90:30:1d:a7:e9:2f:61:11:f9:53:64:03:
         44:e6:6b:9a:7f:be:f9:3f:35:a2:7d:a0:05:97:bc:1e:34:bd:
         6f:23:ac:a9
-----BEGIN CERTIFICATE-----
MIIDSjCCAjKgAwIBAgIEEAAAATANBgkqhkiG9w0BAQsFADAnMSUwIwYDVQQDDBxT
UksxX3NoYTI1Nl8yMDQ4XzY1NTM3X3YzX2NhMB4XDTE4MDMxMzA5MTU1MVoXDTI4
MDMxMDA5MTU1MVowKjEoMCYGA1UEAwwfQ1NGMV8xX3NoYTI1Nl8yMDQ4XzY1NTM3
X3YzX3VzcjCCASIwDQYJKoZIhvcNAQEBBQADggEPADCCAQoCggEBALpgzMaJ/JeV
A27mKT0Wg6Ui7GCmBleDeAQ5dofMyUUcAGwptXNIBUHLFDB7aqNPljAuCMubJX3q
zYSp+KJ/RxOift6kzvSfP9+UMVI6qsYIVWovQcEHhMjbLjhZ54dqEFarZhppU+/i
MqIftXE2Q/iFG+/ReerZFpdUlAprgByEKR4FSUkshdj4REa+yGneYQ0JcCwnWMvP
KtJ//sXSolkcTzuDzySe/aX9izpCv//lKBip8YgqfT1uzUXN1xFCDlDUjHHaTdUC
rnUjcWACVudJTkqjbOZR/OzMSJAqkQcsmmtb6SCdBds04rIU73GLmWK+7biHYanz
ZR+Fgxt0VssCAwEAAaN7MHkwCQYDVR0TBAIwADAsBglghkgBhvhCAQ0EHxYdT3Bl
blNTTCBHZW5lcmF0ZWQgQ2VydGlmaWNhdGUwHQYDVR0OBBYEFGvDbEVyw6adJaIn
EZp1oBL4PTscMB8GA1UdIwQYMBaAFIh+N068JnPE0cLE0F8L3qkx2+Y0MA0GCSqG
SIb3DQEBCwUAA4IBAQCLG3oKHu7shksdYwLuk70UHmdT2WFosZrK6bGvaN+Bk0nD
K/BqfMfAgWIkaKLciBHtUsn+eESTue9eNM/zSG8MckRhq240ggvQoFHT6/YKqj8o
Iff+LmABRFYMYsw/9cQC0/KnwDqOl3Apz4RYkhqn51vX6QhCDkkNllqDNk+VguYD
lFDN4qz+C1Zi3vYKwCsFGanUwC8M0RyT9u+H5cUmyqXEDU5qYRS3HVTIIsxIUoRN
n6zqTTjGMOUbkj9HdS83S/hTXwwCICoY1V/71YyZcrpkFTllGJzfBqAiBHOQMB2n
6S9hEflTZANE5muaf775PzWifaAFl7weNL1vI6yp
-----END CERTIFICATE-----
