Certificate:
    Data:
        Version: 3 (0x2)
        Serial Number: 268435460 (0x10000004)
    Signature Algorithm: sha256WithRSAEncryption
        Issuer: CN=SRK2_sha256_2048_65537_v3_ca
        Validity
            Not Before: Mar 13 09:15:52 2018 GMT
            Not After : Mar 10 09:15:52 2028 GMT
        Subject: CN=CSF2_1_sha256_2048_65537_v3_usr
        Subject Public Key Info:
            Public Key Algorithm: rsaEncryption
                Public-Key: (2048 bit)
                Modulus:
                    00:c6:13:36:73:52:ee:c0:88:d0:88:1c:5f:9c:ca:
                    63:40:92:db:c6:f9:dc:0d:b7:63:b6:11:81:0b:0a:
                    9b:14:ab:00:62:db:5e:98:03:dd:8d:cc:94:7a:cf:
                    88:30:2f:a2:12:d2:41:f7:f9:80:08:af:98:99:e4:
                    27:14:b6:16:ad:65:01:17:7b:96:96:1c:51:be:0b:
                    a6:5c:a3:69:6f:f2:a8:74:ab:ac:ec:35:99:52:67:
                    ec:b5:87:8c:72:42:f0:e9:78:4f:1b:31:0b:05:05:
                    8e:c0:2d:e8:14:f1:1e:db:ae:1b:f0:bc:09:12:b0:
                    11:5c:0c:f7:9a:a4:e7:d1:91:b4:a8:22:1e:8a:67:
                    a5:5d:67:8e:97:30:19:02:ae:a6:6f:c0:97:ae:c0:
                    06:6c:95:03:40:df:6a:dd:5e:73:f5:23:ab:15:75:
                    75:b6:86:ef:b5:4f:7b:c0:a3:e8:a6:5e:ad:4d:06:
                    d7:2c:bf:2c:c6:35:8c:7a:e1:f4:06:48:01:67:58:
                    bd:10:03:73:46:1b:3c:e8:0c:e1:09:99:d6:5c:2e:
                    bc:17:db:aa:ce:75:20:7d:0b:39:61:c4:7f:e2:9a:
                    41:d6:d8:f5:ea:70:8e:75:00:d8:26:fc:7e:81:ac:
                    5a:31:7e:60:59:a2:d9:7e:4f:ef:54:d7:c1:eb:38:
                    51:c9
                Exponent: 65537 (0x10001)
        X509v3 extensions:
            X509v3 Basic Constraints: 
                CA:FALSE
            Netscape Comment: 
                OpenSSL Generated Certificate
            X509v3 Subject Key Identifier: 
                FC:4D:47:9A:E3:D7:4F:51:1F:B2:18:DB:16:50:7F:E8:3B:DE:D3:D5
            X509v3 Authority Key Identifier: 
                keyid:E1:B8:AD:73:A1:F0:FC:74:80:8B:BB:6A:31:8F:22:F3:5B:4F:A1:FD

    Signature Algorithm: sha256WithRSAEncryption
         80:4c:a3:d2:67:94:ae:92:24:14:39:e5:e8:f9:9d:b7:e6:47:
         61:72:08:07:da:73:f3:cb:27:9f:78:22:57:84:1a:f1:61:41:
         db:6c:5b:22:09:44:93:91:f2:4e:3d:60:52:6d:3f:43:12:2c:
         4d:66:31:64:d9:60:23:d0:53:30:9d:29:02:65:ab:8d:49:90:
         41:77:db:32:3c:2e:0d:b9:86:44:20:b5:9d:f0:7d:8a:a2:23:
         11:9c:00:2a:75:2f:6c:55:16:90:f1:9f:d1:5d:df:a1:48:14:
         e6:54:5c:36:4b:2d:50:86:9d:0e:8a:2b:1b:26:f7:9c:1d:9f:
         42:36:43:ec:00:5d:53:08:a4:2a:7e:8f:64:ca:7e:ef:00:3a:
         57:1d:51:56:ee:8d:db:5a:40:f2:31:73:37:c5:a5:77:67:89:
         13:87:53:4d:e7:00:9d:c8:3e:e1:e7:e5:21:97:5f:ff:0c:a5:
         47:fa:5a:82:9f:71:7f:e7:69:69:b5:97:23:1c:b4:1b:21:44:
         14:9e:32:b0:62:7a:8e:17:bd:ab:87:82:46:d4:cd:92:50:93:
         83:8f:b6:41:0c:58:e5:06:fb:3c:ba:2d:2a:03:aa:b4:13:45:
         c3:ef:d5:f1:06:58:47:7a:76:8e:c5:ae:b1:5e:a5:96:9c:85:
         f0:f8:77:38
-----BEGIN CERTIFICATE-----
MIIDSjCCAjKgAwIBAgIEEAAABDANBgkqhkiG9w0BAQsFADAnMSUwIwYDVQQDDBxT
UksyX3NoYTI1Nl8yMDQ4XzY1NTM3X3YzX2NhMB4XDTE4MDMxMzA5MTU1MloXDTI4
MDMxMDA5MTU1MlowKjEoMCYGA1UEAwwfQ1NGMl8xX3NoYTI1Nl8yMDQ4XzY1NTM3
X3YzX3VzcjCCASIwDQYJKoZIhvcNAQEBBQADggEPADCCAQoCggEBAMYTNnNS7sCI
0IgcX5zKY0CS28b53A23Y7YRgQsKmxSrAGLbXpgD3Y3MlHrPiDAvohLSQff5gAiv
mJnkJxS2Fq1lARd7lpYcUb4LplyjaW/yqHSrrOw1mVJn7LWHjHJC8Ol4TxsxCwUF
jsAt6BTxHtuuG/C8CRKwEVwM95qk59GRtKgiHopnpV1njpcwGQKupm/Al67ABmyV
A0Dfat1ec/UjqxV1dbaG77VPe8Cj6KZerU0G1yy/LMY1jHrh9AZIAWdYvRADc0Yb
POgM4QmZ1lwuvBfbqs51IH0LOWHEf+KaQdbY9epwjnUA2Cb8foGsWjF+YFmi2X5P
71TXwes4UckCAwEAAaN7MHkwCQYDVR0TBAIwADAsBglghkgBhvhCAQ0EHxYdT3Bl
blNTTCBHZW5lcmF0ZWQgQ2VydGlmaWNhdGUwHQYDVR0OBBYEFPxNR5rj109RH7IY
2xZQf+g73tPVMB8GA1UdIwQYMBaAFOG4rXOh8Px0gIu7ajGPIvNbT6H9MA0GCSqG
SIb3DQEBCwUAA4IBAQCATKPSZ5SukiQUOeXo+Z235kdhcggH2nPzyyefeCJXhBrx
YUHbbFsiCUSTkfJOPWBSbT9DEixNZjFk2WAj0FMwnSkCZauNSZBBd9syPC4NuYZE
ILWd8H2KoiMRnAAqdS9sVRaQ8Z/RXd+hSBTmVFw2Sy1Qhp0OiisbJvecHZ9CNkPs
AF1TCKQqfo9kyn7vADpXHVFW7o3bWkDyMXM3xaV3Z4kTh1NN5wCdyD7h5+Uhl1//
DKVH+lqCn3F/52lptZcjHLQbIUQUnjKwYnqOF72rh4JG1M2SUJODj7ZBDFjlBvs8
ui0qA6q0E0XD79XxBlhHenaOxa6xXqWWnIXw+Hc4
-----END CERTIFICATE-----
