Certificate:
    Data:
        Version: 3 (0x2)
        Serial Number: 268435466 (0x1000000a)
    Signature Algorithm: sha256WithRSAEncryption
        Issuer: CN=SRK4_sha256_2048_65537_v3_ca
        Validity
            Not Before: Mar 13 09:15:53 2018 GMT
            Not After : Mar 10 09:15:53 2028 GMT
        Subject: CN=CSF4_1_sha256_2048_65537_v3_usr
        Subject Public Key Info:
            Public Key Algorithm: rsaEncryption
                Public-Key: (2048 bit)
                Modulus:
                    00:bb:ff:32:8b:83:12:7f:ac:58:b4:e8:1e:7b:01:
                    90:55:4f:f7:79:ba:e2:b4:e5:3a:70:aa:a1:30:74:
                    49:05:95:1a:f9:63:fb:0e:a1:3b:e1:01:ec:95:be:
                    46:95:9a:e9:b1:61:26:13:f5:2b:e4:43:d9:e6:50:
                    28:d6:19:6d:c9:53:c7:16:ae:0f:b6:8c:68:a0:45:
                    b3:d1:46:3d:91:ed:d4:8d:0e:2b:ab:5f:06:f3:b2:
                    26:17:15:00:9e:5e:d0:bc:ac:e0:27:7c:0a:a1:4b:
                    6a:76:c1:60:b8:ea:ea:ef:cb:c6:10:b7:52:74:f3:
                    3e:63:5b:36:ff:86:e3:8e:c1:32:16:4b:51:49:7b:
                    bc:31:82:01:0b:6d:5e:1f:41:93:81:f7:e7:04:e9:
                    d8:a5:27:c1:73:fd:84:4c:a5:b4:fa:0e:fc:22:bf:
                    d2:de:9c:2c:06:9f:29:24:a8:a1:95:f7:5d:5f:6e:
                    5b:33:49:66:fe:5b:5f:71:aa:09:17:a6:c1:b2:16:
                    ec:c1:74:14:85:24:c8:d4:d9:86:d1:53:f0:e0:eb:
                    96:fa:cb:9f:38:e0:e7:3e:ad:64:bc:98:5f:3e:b8:
                    45:e5:5c:0f:45:f8:25:34:2a:54:a0:4b:a4:89:76:
                    25:0b:ad:7a:4a:0c:e8:d6:b3:25:31:55:e8:41:ae:
                    76:65
                Exponent: 65537 (0x10001)
        X509v3 extensions:
            X509v3 Basic Constraints: 
                CA:FALSE
            Netscape Comment: 
                OpenSSL Generated Certificate
            X509v3 Subject Key Identifier: 
                40:D2:45:5F:D2:9B:DA:18:83:08:05:37:78:93:7A:E9:E1:80:BC:D3
            X509v3 Authority Key Identifier: 
                keyid:DE:F7:46:2E:20:85:0D:02:48:9C:F3:03:C8:81:08:5E:35:F9:1D:AB

    Signature Algorithm: sha256WithRSAEncryption
         74:93:2f:50:ef:88:d0:e4:1e:1a:cb:fc:d6:f9:8c:49:da:6a:
         c3:c0:b2:d9:49:31:37:d8:45:45:bb:a3:a2:a7:6b:a2:25:4e:
         78:6a:55:cf:0e:c0:b3:6c:74:30:ff:2f:9d:d3:84:b6:81:93:
         fa:d0:63:94:d2:96:02:fb:51:ac:e4:e6:84:ce:f0:19:ba:2d:
         44:bf:cf:c8:c7:bf:fc:e7:30:57:ae:21:74:91:35:a6:ac:68:
         a4:fc:0a:7f:99:fe:33:f5:35:d2:18:4a:06:98:33:17:e6:2b:
         f6:5c:60:73:52:ce:2f:c3:81:6e:e6:bf:21:b5:39:35:4a:37:
         26:df:c2:64:db:04:ea:81:b6:34:20:da:41:d0:9c:d5:d2:3b:
         bf:63:0b:dc:9c:dc:bc:9f:8b:b9:94:61:7d:84:19:2c:a7:29:
         90:9e:9e:4d:0d:bf:53:5d:1e:e1:5a:2f:57:8d:3a:23:79:ab:
         07:a6:18:52:4d:1a:cf:f7:59:43:c2:f0:25:de:1a:8c:20:c6:
         ea:da:d7:72:92:bf:23:69:08:6f:ab:eb:74:c8:47:31:ab:b9:
         54:68:67:c6:ab:76:9d:86:b7:f3:d4:0c:e6:f2:ae:d3:bb:fb:
         23:00:60:84:34:7e:31:40:0e:43:7f:27:4e:48:10:82:e3:51:
         f3:0d:20:cb
-----BEGIN CERTIFICATE-----
MIIDSjCCAjKgAwIBAgIEEAAACjANBgkqhkiG9w0BAQsFADAnMSUwIwYDVQQDDBxT
Uks0X3NoYTI1Nl8yMDQ4XzY1NTM3X3YzX2NhMB4XDTE4MDMxMzA5MTU1M1oXDTI4
MDMxMDA5MTU1M1owKjEoMCYGA1UEAwwfQ1NGNF8xX3NoYTI1Nl8yMDQ4XzY1NTM3
X3YzX3VzcjCCASIwDQYJKoZIhvcNAQEBBQADggEPADCCAQoCggEBALv/MouDEn+s
WLToHnsBkFVP93m64rTlOnCqoTB0SQWVGvlj+w6hO+EB7JW+RpWa6bFhJhP1K+RD
2eZQKNYZbclTxxauD7aMaKBFs9FGPZHt1I0OK6tfBvOyJhcVAJ5e0Lys4Cd8CqFL
anbBYLjq6u/LxhC3UnTzPmNbNv+G447BMhZLUUl7vDGCAQttXh9Bk4H35wTp2KUn
wXP9hEyltPoO/CK/0t6cLAafKSSooZX3XV9uWzNJZv5bX3GqCRemwbIW7MF0FIUk
yNTZhtFT8ODrlvrLnzjg5z6tZLyYXz64ReVcD0X4JTQqVKBLpIl2JQutekoM6Naz
JTFV6EGudmUCAwEAAaN7MHkwCQYDVR0TBAIwADAsBglghkgBhvhCAQ0EHxYdT3Bl
blNTTCBHZW5lcmF0ZWQgQ2VydGlmaWNhdGUwHQYDVR0OBBYEFEDSRV/Sm9oYgwgF
N3iTeunhgLzTMB8GA1UdIwQYMBaAFN73Ri4ghQ0CSJzzA8iBCF41+R2rMA0GCSqG
SIb3DQEBCwUAA4IBAQB0ky9Q74jQ5B4ay/zW+YxJ2mrDwLLZSTE32EVFu6Oip2ui
JU54alXPDsCzbHQw/y+d04S2gZP60GOU0pYC+1Gs5OaEzvAZui1Ev8/Ix7/85zBX
riF0kTWmrGik/Ap/mf4z9TXSGEoGmDMX5iv2XGBzUs4vw4Fu5r8htTk1Sjcm38Jk
2wTqgbY0INpB0JzV0ju/YwvcnNy8n4u5lGF9hBkspymQnp5NDb9TXR7hWi9XjToj
easHphhSTRrP91lDwvAl3hqMIMbq2tdykr8jaQhvq+t0yEcxq7lUaGfGq3adhrfz
1Azm8q7Tu/sjAGCENH4xQA5DfydOSBCC41HzDSDL
-----END CERTIFICATE-----
