Certificate:
    Data:
        Version: 3 (0x2)
        Serial Number: 268435458 (0x10000002)
    Signature Algorithm: sha256WithRSAEncryption
        Issuer: CN=SRK1_sha256_2048_65537_v3_ca
        Validity
            Not Before: Mar 13 09:15:52 2018 GMT
            Not After : Mar 10 09:15:52 2028 GMT
        Subject: CN=IMG1_1_sha256_2048_65537_v3_usr
        Subject Public Key Info:
            Public Key Algorithm: rsaEncryption
                Public-Key: (2048 bit)
                Modulus:
                    00:f0:3b:e5:bb:04:bb:1d:08:3c:72:54:f9:b4:07:
                    d0:36:b5:1f:ec:8f:6e:67:5a:b0:77:b2:33:3d:78:
                    85:55:0c:f5:9e:59:8f:d2:99:78:a6:3f:ec:7f:cc:
                    0e:f6:66:d1:6e:b0:20:57:70:e8:0e:1c:32:f8:22:
                    e9:6f:d5:67:07:cc:3f:df:4b:fc:47:8a:b6:e4:74:
                    bf:c8:10:98:b4:81:9b:9f:7d:63:9f:ef:8b:8f:50:
                    8c:8d:a8:23:2e:2c:39:be:18:47:e2:a4:0b:e6:be:
                    c3:44:e9:fe:6c:7f:f9:ea:5e:3d:5d:d4:eb:fc:cd:
                    38:79:68:52:85:12:19:af:a0:4d:5d:08:a0:54:9b:
                    59:5c:70:74:cb:0a:63:c9:a9:1f:c9:12:10:d7:be:
                    b2:7f:4c:15:5c:95:cd:da:6a:5b:a8:80:91:22:20:
                    e6:c9:04:b3:a3:a1:8e:c6:c9:ee:24:62:3c:85:4a:
                    b5:67:55:c1:07:6a:a0:3b:d8:54:11:69:96:aa:63:
                    ea:e0:3b:01:de:04:df:23:6b:28:36:70:2b:8d:82:
                    74:ea:5a:61:cd:50:ba:00:cb:83:77:4e:dd:a6:42:
                    be:2e:ce:6f:7d:4b:b4:62:31:9a:89:da:7b:e7:a2:
                    29:69:99:7d:48:f0:2e:67:0e:7b:90:fa:b8:c5:d0:
                    ec:51
                Exponent: 65537 (0x10001)
        X509v3 extensions:
            X509v3 Basic Constraints: 
                CA:FALSE
            Netscape Comment: 
                OpenSSL Generated Certificate
            X509v3 Subject Key Identifier: 
                46:89:A8:70:D3:49:33:FF:F0:CF:3C:FD:09:A0:80:E7:46:DD:9C:22
            X509v3 Authority Key Identifier: 
                keyid:88:7E:37:4E:BC:26:73:C4:D1:C2:C4:D0:5F:0B:DE:A9:31:DB:E6:34

    Signature Algorithm: sha256WithRSAEncryption
         97:94:b6:d3:10:27:4d:23:25:0d:bc:11:b4:3c:5c:24:a6:ae:
         41:25:c4:0a:16:d5:e7:69:0f:5e:2a:46:f7:e0:86:9a:ac:16:
         d0:fd:11:2e:52:4e:a0:d3:be:a6:2f:63:ce:23:55:1d:2b:a8:
         09:ee:85:3a:47:f6:3a:ee:83:b1:e2:e5:f7:4f:ff:59:c5:1b:
         9d:aa:84:52:ef:93:01:9b:44:de:70:7b:dd:94:8f:57:8d:44:
         ef:6e:db:6a:90:f8:08:a6:cd:7b:35:00:4d:7e:6b:a8:df:37:
         d6:30:3e:80:2a:88:a1:1b:8d:92:61:31:8c:0c:98:42:7c:a3:
         3c:bd:5d:52:ea:62:5c:19:65:23:b3:67:fd:e7:04:24:7f:46:
         75:03:06:7b:30:fa:b8:64:d2:3d:46:dd:bb:05:e9:6d:0b:2e:
         a0:5d:ec:67:49:a5:5b:d0:06:b1:e2:c8:e4:a3:84:fd:c2:c5:
         d0:ae:9a:1b:94:c6:f7:1f:af:e9:5d:a5:ce:0e:3a:9e:2c:68:
         d3:b9:3b:2e:c7:70:45:bf:54:a6:6f:e4:cc:03:77:ad:c6:a0:
         b6:03:40:8a:86:80:fa:51:dc:2c:35:16:64:17:97:fc:b7:07:
         10:3c:92:29:6b:0e:20:85:89:15:56:25:48:73:f6:24:06:bb:
         37:53:3a:76
-----BEGIN CERTIFICATE-----
MIIDSjCCAjKgAwIBAgIEEAAAAjANBgkqhkiG9w0BAQsFADAnMSUwIwYDVQQDDBxT
UksxX3NoYTI1Nl8yMDQ4XzY1NTM3X3YzX2NhMB4XDTE4MDMxMzA5MTU1MloXDTI4
MDMxMDA5MTU1MlowKjEoMCYGA1UEAwwfSU1HMV8xX3NoYTI1Nl8yMDQ4XzY1NTM3
X3YzX3VzcjCCASIwDQYJKoZIhvcNAQEBBQADggEPADCCAQoCggEBAPA75bsEux0I
PHJU+bQH0Da1H+yPbmdasHeyMz14hVUM9Z5Zj9KZeKY/7H/MDvZm0W6wIFdw6A4c
Mvgi6W/VZwfMP99L/EeKtuR0v8gQmLSBm599Y5/vi49QjI2oIy4sOb4YR+KkC+a+
w0Tp/mx/+epePV3U6/zNOHloUoUSGa+gTV0IoFSbWVxwdMsKY8mpH8kSENe+sn9M
FVyVzdpqW6iAkSIg5skEs6OhjsbJ7iRiPIVKtWdVwQdqoDvYVBFplqpj6uA7Ad4E
3yNrKDZwK42CdOpaYc1QugDLg3dO3aZCvi7Ob31LtGIxmonae+eiKWmZfUjwLmcO
e5D6uMXQ7FECAwEAAaN7MHkwCQYDVR0TBAIwADAsBglghkgBhvhCAQ0EHxYdT3Bl
blNTTCBHZW5lcmF0ZWQgQ2VydGlmaWNhdGUwHQYDVR0OBBYEFEaJqHDTSTP/8M88
/QmggOdG3ZwiMB8GA1UdIwQYMBaAFIh+N068JnPE0cLE0F8L3qkx2+Y0MA0GCSqG
SIb3DQEBCwUAA4IBAQCXlLbTECdNIyUNvBG0PFwkpq5BJcQKFtXnaQ9eKkb34Iaa
rBbQ/REuUk6g076mL2POI1UdK6gJ7oU6R/Y67oOx4uX3T/9ZxRudqoRS75MBm0Te
cHvdlI9XjUTvbttqkPgIps17NQBNfmuo3zfWMD6AKoihG42SYTGMDJhCfKM8vV1S
6mJcGWUjs2f95wQkf0Z1AwZ7MPq4ZNI9Rt27BeltCy6gXexnSaVb0Aax4sjko4T9
wsXQrpoblMb3H6/pXaXODjqeLGjTuTsux3BFv1Smb+TMA3etxqC2A0CKhoD6Udws
NRZkF5f8twcQPJIpaw4ghYkVViVIc/YkBrs3Uzp2
-----END CERTIFICATE-----
