Certificate:
    Data:
        Version: 3 (0x2)
        Serial Number: 268435461 (0x10000005)
    Signature Algorithm: sha256WithRSAEncryption
        Issuer: CN=SRK2_sha256_2048_65537_v3_ca
        Validity
            Not Before: Mar 13 09:15:52 2018 GMT
            Not After : Mar 10 09:15:52 2028 GMT
        Subject: CN=IMG2_1_sha256_2048_65537_v3_usr
        Subject Public Key Info:
            Public Key Algorithm: rsaEncryption
                Public-Key: (2048 bit)
                Modulus:
                    00:9d:b3:38:3a:57:82:0b:6f:a8:bc:7f:31:a8:9a:
                    12:c6:23:1c:e2:71:0b:09:4a:0a:d6:67:71:53:77:
                    f0:3b:9e:27:9c:7a:bb:27:36:27:9f:02:0f:9b:c5:
                    18:75:34:17:76:17:07:47:57:c1:a2:d9:67:85:3e:
                    6f:ab:61:8f:83:90:5d:69:48:5b:59:74:a7:6d:82:
                    79:31:bc:ea:5a:ad:5d:9f:19:b6:5a:63:01:c4:8f:
                    a1:9e:53:f3:ca:ba:58:20:55:f3:70:bc:82:22:29:
                    51:e3:5d:79:ef:ce:4d:29:c7:d6:75:29:7f:74:72:
                    74:ec:48:89:d2:26:a1:14:64:15:ff:1e:ac:ed:1a:
                    fb:7d:5a:2c:f8:c8:ae:b5:a3:8a:73:74:e6:2d:a9:
                    0f:21:0e:a3:31:f2:cb:8d:cf:11:f7:d1:29:e6:34:
                    fc:3e:7c:a0:f3:bb:75:75:00:4e:e8:70:c7:f7:ff:
                    59:bb:64:d1:d3:b1:c3:bb:94:73:78:1f:97:45:d2:
                    1e:cb:ad:58:76:cf:8e:f7:c8:66:67:d3:3d:a0:d0:
                    4c:32:6e:17:47:cb:8f:c5:fd:42:86:1f:79:df:d3:
                    ca:80:b4:5f:94:9b:da:a6:ca:45:dc:77:7c:35:f6:
                    25:0f:9c:90:58:d2:8d:cd:04:f9:8f:2f:ed:1d:83:
                    88:c9
                Exponent: 65537 (0x10001)
        X509v3 extensions:
            X509v3 Basic Constraints: 
                CA:FALSE
            Netscape Comment: 
                OpenSSL Generated Certificate
            X509v3 Subject Key Identifier: 
                4F:F5:5D:AB:87:78:25:50:E5:C8:07:8C:2B:D2:0F:0F:56:A4:93:04
            X509v3 Authority Key Identifier: 
                keyid:E1:B8:AD:73:A1:F0:FC:74:80:8B:BB:6A:31:8F:22:F3:5B:4F:A1:FD

    Signature Algorithm: sha256WithRSAEncryption
         59:3d:4f:fe:e2:ff:8a:53:74:16:b1:5b:22:ee:08:85:a9:6f:
         25:06:69:34:df:ae:5a:fb:67:84:f4:ee:e3:0a:64:0b:1a:71:
         d7:06:b6:4a:1f:45:a0:bd:a5:b4:5a:e5:b5:c4:d7:63:c7:f4:
         07:a7:a0:0c:52:b1:89:82:ef:9a:60:1c:ab:66:af:f5:d0:53:
         60:c4:1f:ce:51:b1:3d:a5:42:92:09:07:de:32:6d:41:b7:26:
         6b:f4:66:e2:c6:8f:83:66:9f:ab:ad:b1:7f:a2:a0:30:09:20:
         25:6e:76:83:a6:5d:24:0c:ad:2d:9b:c2:69:b5:3b:2f:f5:bf:
         23:29:3e:db:a2:27:f2:8f:fd:a4:a3:21:f0:04:56:fc:21:04:
         6f:07:0d:67:27:58:b6:95:7a:62:d0:d5:2f:8d:d3:b5:cf:42:
         7b:e5:6c:bf:ab:e8:bf:19:cc:18:27:6c:08:00:6a:cc:d6:34:
         40:b0:61:cf:f4:b0:27:2e:16:36:2e:b8:65:41:d8:f0:da:a2:
         76:fa:d9:7c:f9:8e:96:ba:85:6b:65:61:ff:30:df:ae:34:5a:
         28:44:83:b2:1c:a3:b7:72:75:ed:14:83:1f:45:cf:21:96:19:
         07:91:78:1c:22:f2:b3:84:0a:b5:82:81:83:e7:50:0f:c0:8b:
         fa:45:1c:99
-----BEGIN CERTIFICATE-----
MIIDSjCCAjKgAwIBAgIEEAAABTANBgkqhkiG9w0BAQsFADAnMSUwIwYDVQQDDBxT
UksyX3NoYTI1Nl8yMDQ4XzY1NTM3X3YzX2NhMB4XDTE4MDMxMzA5MTU1MloXDTI4
MDMxMDA5MTU1MlowKjEoMCYGA1UEAwwfSU1HMl8xX3NoYTI1Nl8yMDQ4XzY1NTM3
X3YzX3VzcjCCASIwDQYJKoZIhvcNAQEBBQADggEPADCCAQoCggEBAJ2zODpXggtv
qLx/MaiaEsYjHOJxCwlKCtZncVN38DueJ5x6uyc2J58CD5vFGHU0F3YXB0dXwaLZ
Z4U+b6thj4OQXWlIW1l0p22CeTG86lqtXZ8ZtlpjAcSPoZ5T88q6WCBV83C8giIp
UeNdee/OTSnH1nUpf3RydOxIidImoRRkFf8erO0a+31aLPjIrrWjinN05i2pDyEO
ozHyy43PEffRKeY0/D58oPO7dXUATuhwx/f/Wbtk0dOxw7uUc3gfl0XSHsutWHbP
jvfIZmfTPaDQTDJuF0fLj8X9QoYfed/TyoC0X5Sb2qbKRdx3fDX2JQ+ckFjSjc0E
+Y8v7R2DiMkCAwEAAaN7MHkwCQYDVR0TBAIwADAsBglghkgBhvhCAQ0EHxYdT3Bl
blNTTCBHZW5lcmF0ZWQgQ2VydGlmaWNhdGUwHQYDVR0OBBYEFE/1XauHeCVQ5cgH
jCvSDw9WpJMEMB8GA1UdIwQYMBaAFOG4rXOh8Px0gIu7ajGPIvNbT6H9MA0GCSqG
SIb3DQEBCwUAA4IBAQBZPU/+4v+KU3QWsVsi7giFqW8lBmk0365a+2eE9O7jCmQL
GnHXBrZKH0WgvaW0WuW1xNdjx/QHp6AMUrGJgu+aYByrZq/10FNgxB/OUbE9pUKS
CQfeMm1BtyZr9Gbixo+DZp+rrbF/oqAwCSAlbnaDpl0kDK0tm8JptTsv9b8jKT7b
oifyj/2koyHwBFb8IQRvBw1nJ1i2lXpi0NUvjdO1z0J75Wy/q+i/GcwYJ2wIAGrM
1jRAsGHP9LAnLhY2LrhlQdjw2qJ2+tl8+Y6WuoVrZWH/MN+uNFooRIOyHKO3cnXt
FIMfRc8hlhkHkXgcIvKzhAq1goGD51APwIv6RRyZ
-----END CERTIFICATE-----
