Certificate:
    Data:
        Version: 3 (0x2)
        Serial Number: 268435467 (0x1000000b)
    Signature Algorithm: sha256WithRSAEncryption
        Issuer: CN=SRK4_sha256_2048_65537_v3_ca
        Validity
            Not Before: Mar 13 09:15:53 2018 GMT
            Not After : Mar 10 09:15:53 2028 GMT
        Subject: CN=IMG4_1_sha256_2048_65537_v3_usr
        Subject Public Key Info:
            Public Key Algorithm: rsaEncryption
                Public-Key: (2048 bit)
                Modulus:
                    00:b8:5b:f8:7c:9a:54:32:be:ff:76:6b:9a:a5:f4:
                    47:5a:8a:df:06:db:13:74:ed:3b:1b:06:71:4c:4f:
                    e1:70:a9:ea:20:59:4d:52:d2:c8:05:7a:2d:db:e5:
                    1a:44:05:fd:c6:0e:e9:20:a7:96:28:66:8e:66:02:
                    05:69:bc:e0:ef:12:b7:ed:f8:dc:0e:f6:39:06:ed:
                    49:56:2e:69:57:f8:bc:8c:a2:9c:ba:7d:dc:71:e2:
                    40:fe:07:22:9b:d8:ac:60:01:ed:2e:26:e9:ad:17:
                    04:fb:18:0d:1a:5d:c7:18:53:b2:37:8f:a2:1f:69:
                    6e:bf:56:20:ed:58:d9:bb:6c:65:89:22:59:f0:b5:
                    58:f5:41:16:86:42:e1:dd:1b:2e:5f:3a:ad:24:ba:
                    19:0c:29:d3:6e:f5:0a:3a:29:be:b8:98:28:c1:da:
                    08:0f:3a:4b:38:81:6c:95:c1:9f:e5:ed:ed:0e:49:
                    c4:03:2d:2a:c3:e6:4a:ad:52:ff:db:6a:9d:da:01:
                    ed:38:7a:ef:a9:ef:70:ed:dd:36:31:90:46:18:88:
                    fa:8a:54:4c:be:83:15:ba:db:ef:2e:c8:ab:75:da:
                    59:e1:63:05:eb:cc:d1:da:2c:58:47:f8:38:a5:81:
                    aa:dd:3f:33:a6:cf:ba:54:a3:27:3a:6d:58:98:ff:
                    03:67
                Exponent: 65537 (0x10001)
        X509v3 extensions:
            X509v3 Basic Constraints: 
                CA:FALSE
            Netscape Comment: 
                OpenSSL Generated Certificate
            X509v3 Subject Key Identifier: 
                E3:F0:1E:67:50:2F:79:6A:98:82:17:8F:CA:FF:53:D1:9C:9B:B6:F8
            X509v3 Authority Key Identifier: 
                keyid:DE:F7:46:2E:20:85:0D:02:48:9C:F3:03:C8:81:08:5E:35:F9:1D:AB

    Signature Algorithm: sha256WithRSAEncryption
         29:a0:58:29:9c:f6:7e:9d:08:fc:fb:83:71:e0:78:00:e6:ad:
         cf:5c:96:33:2a:60:38:3f:51:60:fb:70:14:7e:2c:32:3c:50:
         aa:8b:f9:b2:e9:e3:fb:78:32:4e:e6:01:31:85:3f:e4:bf:22:
         a2:5c:75:96:27:7e:ac:fc:5d:8f:6e:41:d0:61:59:a0:e3:d5:
         59:6a:8d:54:5d:69:6f:c4:bf:1d:84:8b:18:f1:ab:3a:b4:6f:
         bb:ff:02:a8:4a:e1:88:40:6b:39:d7:d8:57:f2:2f:e2:7b:89:
         70:fb:50:16:e0:73:cc:df:39:50:22:09:2d:47:2d:a0:50:1a:
         7f:b8:c7:da:87:9c:89:0d:f4:be:7c:c3:18:1a:8e:98:bf:8b:
         01:84:ce:40:61:cc:9c:2e:4f:3e:f1:ef:09:c4:88:80:b2:bd:
         ae:d7:23:04:1d:c6:94:be:cb:5a:e5:00:2b:5f:a9:5c:ed:f0:
         e9:55:05:74:ad:a1:26:2b:0b:a8:4c:71:93:d5:4f:0d:49:da:
         47:54:d4:1a:c9:a1:6c:37:ad:be:b4:0b:b4:7e:e5:3d:51:89:
         3b:6d:b8:f3:c6:e2:be:8b:99:95:df:32:16:dc:b9:c3:09:04:
         ff:ea:08:c2:33:d0:c2:8e:c1:f3:b6:46:3e:0d:35:a7:63:20:
         68:2e:f1:ee
-----BEGIN CERTIFICATE-----
MIIDSjCCAjKgAwIBAgIEEAAACzANBgkqhkiG9w0BAQsFADAnMSUwIwYDVQQDDBxT
Uks0X3NoYTI1Nl8yMDQ4XzY1NTM3X3YzX2NhMB4XDTE4MDMxMzA5MTU1M1oXDTI4
MDMxMDA5MTU1M1owKjEoMCYGA1UEAwwfSU1HNF8xX3NoYTI1Nl8yMDQ4XzY1NTM3
X3YzX3VzcjCCASIwDQYJKoZIhvcNAQEBBQADggEPADCCAQoCggEBALhb+HyaVDK+
/3ZrmqX0R1qK3wbbE3TtOxsGcUxP4XCp6iBZTVLSyAV6LdvlGkQF/cYO6SCnlihm
jmYCBWm84O8St+343A72OQbtSVYuaVf4vIyinLp93HHiQP4HIpvYrGAB7S4m6a0X
BPsYDRpdxxhTsjePoh9pbr9WIO1Y2btsZYkiWfC1WPVBFoZC4d0bLl86rSS6GQwp
0271CjopvriYKMHaCA86SziBbJXBn+Xt7Q5JxAMtKsPmSq1S/9tqndoB7Th676nv
cO3dNjGQRhiI+opUTL6DFbrb7y7Iq3XaWeFjBevM0dosWEf4OKWBqt0/M6bPulSj
JzptWJj/A2cCAwEAAaN7MHkwCQYDVR0TBAIwADAsBglghkgBhvhCAQ0EHxYdT3Bl
blNTTCBHZW5lcmF0ZWQgQ2VydGlmaWNhdGUwHQYDVR0OBBYEFOPwHmdQL3lqmIIX
j8r/U9Gcm7b4MB8GA1UdIwQYMBaAFN73Ri4ghQ0CSJzzA8iBCF41+R2rMA0GCSqG
SIb3DQEBCwUAA4IBAQApoFgpnPZ+nQj8+4Nx4HgA5q3PXJYzKmA4P1Fg+3AUfiwy
PFCqi/my6eP7eDJO5gExhT/kvyKiXHWWJ36s/F2PbkHQYVmg49VZao1UXWlvxL8d
hIsY8as6tG+7/wKoSuGIQGs519hX8i/ie4lw+1AW4HPM3zlQIgktRy2gUBp/uMfa
h5yJDfS+fMMYGo6Yv4sBhM5AYcycLk8+8e8JxIiAsr2u1yMEHcaUvsta5QArX6lc
7fDpVQV0raEmKwuoTHGT1U8NSdpHVNQayaFsN62+tAu0fuU9UYk7bbjzxuK+i5mV
3zIW3LnDCQT/6gjCM9DCjsHztkY+DTWnYyBoLvHu
-----END CERTIFICATE-----
