Certificate:
    Data:
        Version: 3 (0x2)
        Serial Number: 268435459 (0x10000003)
    Signature Algorithm: sha256WithRSAEncryption
        Issuer: CN=CA1_sha256_2048_65537_v3_ca
        Validity
            Not Before: Mar 13 09:15:52 2018 GMT
            Not After : Mar 10 09:15:52 2028 GMT
        Subject: CN=SRK2_sha256_2048_65537_v3_ca
        Subject Public Key Info:
            Public Key Algorithm: rsaEncryption
                Public-Key: (2048 bit)
                Modulus:
                    00:d8:f7:85:1e:6b:f8:2d:77:10:27:4c:02:cf:90:
                    4d:8e:e1:b3:81:df:18:9c:4f:95:b8:a2:00:77:03:
                    dc:0a:ea:c4:49:ff:fd:ad:23:35:0f:7f:e4:50:24:
                    7f:e6:b8:96:b4:bc:b2:69:af:00:78:61:17:87:8f:
                    78:d0:92:17:4a:cb:1d:43:31:94:98:3b:45:ca:89:
                    82:ad:ad:60:ac:7f:c2:6d:08:d5:88:0f:84:3f:54:
                    eb:be:8d:14:2f:c4:e0:18:32:a5:24:62:88:f5:f0:
                    f0:b4:5a:02:7d:48:8b:92:6a:ef:94:dd:4f:f7:14:
                    ab:d2:60:36:8a:77:0e:9f:2a:83:5b:37:01:54:ab:
                    86:99:c0:18:b9:c0:47:4f:28:a6:90:d8:ac:a2:5e:
                    c9:52:07:96:7c:aa:b2:8f:8b:64:0f:18:2d:f9:0e:
                    7a:7c:b0:75:33:ee:6b:f5:eb:ef:35:f2:2e:8e:6d:
                    28:4e:45:ad:37:7b:fc:f6:e2:e4:91:90:5d:e0:2e:
                    29:14:81:43:31:65:52:18:36:dd:4f:72:7e:4a:32:
                    4a:29:0a:2f:e0:92:d4:80:00:a7:19:87:33:a2:8f:
                    ae:10:f7:c7:28:ba:1a:83:37:83:03:18:c5:0b:8f:
                    b7:3a:40:93:0a:cb:e5:96:c6:9b:ac:cd:4b:b4:2a:
                    62:4b
                Exponent: 65537 (0x10001)
        X509v3 extensions:
            X509v3 Subject Key Identifier: 
                E1:B8:AD:73:A1:F0:FC:74:80:8B:BB:6A:31:8F:22:F3:5B:4F:A1:FD
            X509v3 Authority Key Identifier: 
                keyid:4C:9D:A5:D2:33:96:4B:34:68:FC:79:7C:83:CE:8C:E2:5A:B3:CF:60
                DirName:/CN=CA1_sha256_2048_65537_v3_ca
                serial:96:FD:D9:54:EB:95:4E:EF

            X509v3 Basic Constraints: critical
                CA:TRUE
            X509v3 Key Usage: 
                Certificate Sign
    Signature Algorithm: sha256WithRSAEncryption
         b7:62:26:d2:fd:49:df:92:a9:6b:93:59:82:b1:00:3f:1d:71:
         98:37:36:70:25:2e:e2:ac:e5:90:a1:72:40:04:97:72:5d:9d:
         c2:b0:06:81:1c:06:10:af:2d:02:9d:af:09:e9:66:72:00:1b:
         4e:f4:ab:a2:b0:f8:7c:57:23:7b:db:eb:4f:97:5f:c7:a8:2a:
         19:7e:2e:fd:b4:cd:91:f3:07:71:6e:7c:d2:b9:c3:81:c0:9b:
         06:43:85:08:2f:1c:54:60:2e:64:61:e3:a5:38:08:8f:58:0f:
         8d:1d:8e:0e:cc:6e:48:44:fe:c1:ee:30:cd:92:89:48:3d:82:
         fb:95:61:f8:3a:1d:cd:dd:86:76:58:b8:36:2d:e1:bf:4a:55:
         f8:52:02:7f:37:10:8c:1e:14:32:c6:ac:2f:58:ce:1a:c4:0d:
         6d:7c:2b:f3:d5:1a:0a:05:a9:29:09:6e:90:e1:fe:3a:cb:ad:
         bd:d5:af:57:7c:a9:44:44:20:bc:2b:a1:14:86:93:56:32:6a:
         16:2c:ac:c7:a1:dd:fc:f5:74:bc:40:a1:a7:5a:e3:40:c7:21:
         64:04:62:ed:25:65:18:0d:0c:6a:98:3d:78:78:a4:3b:7c:a6:
         08:e4:73:32:7f:13:70:c8:34:df:0e:26:cf:f3:ae:59:3b:58:
         d0:3f:71:81
-----BEGIN CERTIFICATE-----
MIIDZDCCAkygAwIBAgIEEAAAAzANBgkqhkiG9w0BAQsFADAmMSQwIgYDVQQDFBtD
QTFfc2hhMjU2XzIwNDhfNjU1MzdfdjNfY2EwHhcNMTgwMzEzMDkxNTUyWhcNMjgw
MzEwMDkxNTUyWjAnMSUwIwYDVQQDDBxTUksyX3NoYTI1Nl8yMDQ4XzY1NTM3X3Yz
X2NhMIIBIjANBgkqhkiG9w0BAQEFAAOCAQ8AMIIBCgKCAQEA2PeFHmv4LXcQJ0wC
z5BNjuGzgd8YnE+VuKIAdwPcCurESf/9rSM1D3/kUCR/5riWtLyyaa8AeGEXh494
0JIXSssdQzGUmDtFyomCra1grH/CbQjViA+EP1Trvo0UL8TgGDKlJGKI9fDwtFoC
fUiLkmrvlN1P9xSr0mA2incOnyqDWzcBVKuGmcAYucBHTyimkNisol7JUgeWfKqy
j4tkDxgt+Q56fLB1M+5r9evvNfIujm0oTkWtN3v89uLkkZBd4C4pFIFDMWVSGDbd
T3J+SjJKKQov4JLUgACnGYczoo+uEPfHKLoagzeDAxjFC4+3OkCTCsvllsabrM1L
tCpiSwIDAQABo4GYMIGVMB0GA1UdDgQWBBThuK1zofD8dICLu2oxjyLzW0+h/TBW
BgNVHSMETzBNgBRMnaXSM5ZLNGj8eXyDzoziWrPPYKEqpCgwJjEkMCIGA1UEAxQb
Q0ExX3NoYTI1Nl8yMDQ4XzY1NTM3X3YzX2NhggkAlv3ZVOuVTu8wDwYDVR0TAQH/
BAUwAwEB/zALBgNVHQ8EBAMCAgQwDQYJKoZIhvcNAQELBQADggEBALdiJtL9Sd+S
qWuTWYKxAD8dcZg3NnAlLuKs5ZChckAEl3JdncKwBoEcBhCvLQKdrwnpZnIAG070
q6Kw+HxXI3vb60+XX8eoKhl+Lv20zZHzB3FufNK5w4HAmwZDhQgvHFRgLmRh46U4
CI9YD40djg7MbkhE/sHuMM2SiUg9gvuVYfg6Hc3dhnZYuDYt4b9KVfhSAn83EIwe
FDLGrC9YzhrEDW18K/PVGgoFqSkJbpDh/jrLrb3Vr1d8qUREILwroRSGk1YyahYs
rMeh3fz1dLxAoada40DHIWQEYu0lZRgNDGqYPXh4pDt8pgjkczJ/E3DINN8OJs/z
rlk7WNA/cYE=
-----END CERTIFICATE-----
