Certificate:
    Data:
        Version: 3 (0x2)
        Serial Number: 268435568 (0x10000070)
    Signature Algorithm: sha256WithRSAEncryption
        Issuer: CN=SRK2_sha256_1024_65537_v3_ca
        Validity
            Not Before: Mar  7 15:15:47 2018 GMT
            Not After : Mar  4 15:15:47 2028 GMT
        Subject: CN=CSF2_1_sha256_1024_65537_v3_usr
        Subject Public Key Info:
            Public Key Algorithm: rsaEncryption
                Public-Key: (1024 bit)
                Modulus:
                    00:cf:13:95:6e:68:4e:bb:52:ea:2b:a1:c6:be:78:
                    99:b6:9d:8b:f3:10:b6:50:8c:fe:63:44:22:ed:84:
                    aa:f1:f7:16:b6:23:4a:1f:bc:d5:62:3e:ac:a8:ad:
                    c0:af:4f:5b:ad:86:38:6f:12:fb:83:b4:61:21:b1:
                    36:46:29:87:24:3c:f2:01:ae:a6:24:6b:9a:6c:33:
                    48:93:da:05:f7:86:e3:f9:3d:72:39:e4:24:9a:76:
                    f2:5e:e4:38:bc:5b:f4:45:ad:f1:88:d1:be:a4:ad:
                    f2:ed:39:69:80:1a:e3:5f:c3:7b:59:a2:ee:32:73:
                    3a:60:50:49:27:45:72:84:a9
                Exponent: 65537 (0x10001)
        X509v3 extensions:
            X509v3 Basic Constraints: 
                CA:FALSE
            Netscape Comment: 
                OpenSSL Generated Certificate
            X509v3 Subject Key Identifier: 
                5C:F7:23:6C:E3:3C:56:87:7B:E3:7F:2D:63:6F:E6:C8:C4:70:EA:F4
            X509v3 Authority Key Identifier: 
                keyid:44:3D:EE:A6:94:4A:79:A1:A9:32:08:F6:A3:31:01:2D:F7:B2:6F:D3

    Signature Algorithm: sha256WithRSAEncryption
         94:fc:58:74:0d:84:10:3e:02:eb:ea:0a:d4:bb:a3:62:59:20:
         65:37:9b:b6:13:7e:1f:78:b1:a4:80:6e:67:c0:12:fb:4a:6c:
         14:f2:5c:17:11:a9:30:96:71:bc:e4:98:ce:bf:7a:b5:7e:d8:
         67:f3:63:5c:14:1c:96:97:88:61:8d:d0:4e:65:82:84:f0:57:
         62:23:4d:db:63:16:09:76:cb:bb:7b:c7:b3:83:a3:53:ad:af:
         ad:10:c2:72:5b:47:ce:e3:64:a8:96:e0:2b:37:08:ed:d0:ec:
         54:82:9d:e0:35:0a:07:6d:ee:b6:99:85:cd:72:9b:eb:f4:28:
         c6:31
-----BEGIN CERTIFICATE-----
MIICRTCCAa6gAwIBAgIEEAAAcDANBgkqhkiG9w0BAQsFADAnMSUwIwYDVQQDDBxT
UksyX3NoYTI1Nl8xMDI0XzY1NTM3X3YzX2NhMB4XDTE4MDMwNzE1MTU0N1oXDTI4
MDMwNDE1MTU0N1owKjEoMCYGA1UEAwwfQ1NGMl8xX3NoYTI1Nl8xMDI0XzY1NTM3
X3YzX3VzcjCBnzANBgkqhkiG9w0BAQEFAAOBjQAwgYkCgYEAzxOVbmhOu1LqK6HG
vniZtp2L8xC2UIz+Y0Qi7YSq8fcWtiNKH7zVYj6sqK3Ar09brYY4bxL7g7RhIbE2
RimHJDzyAa6mJGuabDNIk9oF94bj+T1yOeQkmnbyXuQ4vFv0Ra3xiNG+pK3y7Tlp
gBrjX8N7WaLuMnM6YFBJJ0VyhKkCAwEAAaN7MHkwCQYDVR0TBAIwADAsBglghkgB
hvhCAQ0EHxYdT3BlblNTTCBHZW5lcmF0ZWQgQ2VydGlmaWNhdGUwHQYDVR0OBBYE
FFz3I2zjPFaHe+N/LWNv5sjEcOr0MB8GA1UdIwQYMBaAFEQ97qaUSnmhqTII9qMx
AS33sm/TMA0GCSqGSIb3DQEBCwUAA4GBAJT8WHQNhBA+AuvqCtS7o2JZIGU3m7YT
fh94saSAbmfAEvtKbBTyXBcRqTCWcbzkmM6/erV+2GfzY1wUHJaXiGGN0E5lgoTw
V2IjTdtjFgl2y7t7x7ODo1Otr60QwnJbR87jZKiW4Cs3CO3Q7FSCneA1Cgdt7raZ
hc1ym+v0KMYx
-----END CERTIFICATE-----
