Certificate:
    Data:
        Version: 3 (0x2)
        Serial Number: 268435582 (0x1000007e)
    Signature Algorithm: sha256WithRSAEncryption
        Issuer: CN=CA1_sha256_2048_65537_v3_ca
        Validity
            Not Before: Mar  7 15:15:48 2018 GMT
            Not After : Mar  4 15:15:48 2028 GMT
        Subject: CN=SRK3_sha256_2048_65537_v3_ca
        Subject Public Key Info:
            Public Key Algorithm: rsaEncryption
                Public-Key: (2048 bit)
                Modulus:
                    00:df:ba:3d:28:57:cb:57:61:54:6e:f4:88:b3:86:
                    cb:51:0c:8d:1f:60:aa:ae:58:30:d0:7d:fd:54:e1:
                    4e:de:fd:b5:a8:34:d3:47:95:04:6c:5d:73:35:8b:
                    50:e0:e6:4f:e6:c6:d3:46:b1:83:f1:9b:bc:d6:99:
                    47:43:e8:a3:ee:c7:83:3c:02:e9:9e:6c:eb:1a:66:
                    dd:18:f1:c5:81:7c:be:19:60:ec:fa:e9:be:d3:9f:
                    55:d3:20:94:c4:38:96:8e:60:ff:07:e4:b2:70:9a:
                    52:b3:0d:3f:86:f6:fa:14:e0:17:21:77:a1:aa:5b:
                    ed:d3:aa:79:28:29:3f:65:36:4b:fb:08:01:98:66:
                    b7:84:79:a6:73:c5:c3:f7:5c:1c:fa:f6:ed:bf:1f:
                    94:28:65:fc:a7:3e:b2:f8:2e:01:8e:0f:79:17:5e:
                    d1:0b:08:b2:61:51:b2:fe:b5:d4:40:68:f0:e1:8c:
                    b5:79:b9:67:08:94:a7:20:1f:b3:1d:40:d9:2f:3f:
                    a4:f8:1b:e2:aa:d7:ff:61:b1:53:38:b8:57:8a:b5:
                    e8:04:6c:34:4a:b5:e3:cf:0d:73:ce:c8:f4:21:cc:
                    1d:4c:31:41:ac:f1:30:26:44:ae:be:35:50:db:7a:
                    59:a6:8f:b4:bb:7e:53:e0:56:ff:83:83:a1:b5:9e:
                    30:4b
                Exponent: 65537 (0x10001)
        X509v3 extensions:
            X509v3 Subject Key Identifier: 
                C2:08:BB:0B:75:B7:4F:4E:2E:C0:D2:C0:1C:E3:15:16:82:3B:D1:E5
            X509v3 Authority Key Identifier: 
                keyid:86:EC:75:45:A9:01:21:AF:03:4F:04:BE:E6:7F:A2:E1:F3:3D:4C:1C
                DirName:/CN=CA1_sha256_2048_65537_v3_ca
                serial:E2:D6:96:7D:80:1B:7E:9E

            X509v3 Basic Constraints: critical
                CA:TRUE
            X509v3 Key Usage: 
                Certificate Sign
    Signature Algorithm: sha256WithRSAEncryption
         a7:8e:25:4b:7a:fc:5b:c1:f2:c9:a2:ac:94:a1:d5:c6:cb:37:
         b2:33:b9:d6:b4:8f:96:47:2a:6b:ec:1b:4f:56:79:88:0b:6e:
         9c:ba:a6:91:22:77:06:5f:7c:7c:d6:f9:44:66:f2:61:c4:17:
         4d:28:d4:33:b1:e6:fd:9b:99:c9:33:ca:07:2a:11:15:c1:7b:
         95:7e:e2:cc:e2:c6:98:8f:5e:f5:98:b3:1b:52:83:ff:cf:17:
         d7:28:03:92:86:34:bb:bc:2f:75:a5:73:fa:bd:12:ee:cb:20:
         4f:b4:a8:64:5b:a6:3f:4f:55:6f:c5:a5:f2:5d:fc:f6:73:43:
         1e:b8:07:6f:66:55:3a:01:19:96:56:28:bc:9c:ed:c4:be:e9:
         67:2f:41:23:f3:b8:de:31:75:04:f2:46:57:e8:6f:39:da:52:
         ad:60:4f:6b:7d:6a:40:95:ea:4f:2b:d1:84:f5:8e:56:44:6c:
         ed:bd:06:11:d9:85:a6:52:87:94:ad:3e:cc:55:dd:08:fc:ad:
         f7:81:48:9d:1f:6d:8d:f6:6d:27:20:7a:2e:8e:bb:bc:b3:9a:
         8a:4f:ec:21:1b:84:2f:9c:f4:46:32:60:32:ab:f7:53:80:df:
         a8:90:92:87:44:47:4a:33:d6:87:ee:fa:06:d2:5d:92:ac:81:
         c0:99:9d:2d
-----BEGIN CERTIFICATE-----
MIIDZDCCAkygAwIBAgIEEAAAfjANBgkqhkiG9w0BAQsFADAmMSQwIgYDVQQDFBtD
QTFfc2hhMjU2XzIwNDhfNjU1MzdfdjNfY2EwHhcNMTgwMzA3MTUxNTQ4WhcNMjgw
MzA0MTUxNTQ4WjAnMSUwIwYDVQQDDBxTUkszX3NoYTI1Nl8yMDQ4XzY1NTM3X3Yz
X2NhMIIBIjANBgkqhkiG9w0BAQEFAAOCAQ8AMIIBCgKCAQEA37o9KFfLV2FUbvSI
s4bLUQyNH2Cqrlgw0H39VOFO3v21qDTTR5UEbF1zNYtQ4OZP5sbTRrGD8Zu81plH
Q+ij7seDPALpnmzrGmbdGPHFgXy+GWDs+um+059V0yCUxDiWjmD/B+SycJpSsw0/
hvb6FOAXIXehqlvt06p5KCk/ZTZL+wgBmGa3hHmmc8XD91wc+vbtvx+UKGX8pz6y
+C4Bjg95F17RCwiyYVGy/rXUQGjw4Yy1eblnCJSnIB+zHUDZLz+k+Bviqtf/YbFT
OLhXirXoBGw0SrXjzw1zzsj0IcwdTDFBrPEwJkSuvjVQ23pZpo+0u35T4Fb/g4Oh
tZ4wSwIDAQABo4GYMIGVMB0GA1UdDgQWBBTCCLsLdbdPTi7A0sAc4xUWgjvR5TBW
BgNVHSMETzBNgBSG7HVFqQEhrwNPBL7mf6Lh8z1MHKEqpCgwJjEkMCIGA1UEAxQb
Q0ExX3NoYTI1Nl8yMDQ4XzY1NTM3X3YzX2NhggkA4taWfYAbfp4wDwYDVR0TAQH/
BAUwAwEB/zALBgNVHQ8EBAMCAgQwDQYJKoZIhvcNAQELBQADggEBAKeOJUt6/FvB
8smirJSh1cbLN7Izuda0j5ZHKmvsG09WeYgLbpy6ppEidwZffHzW+URm8mHEF00o
1DOx5v2bmckzygcqERXBe5V+4szixpiPXvWYsxtSg//PF9coA5KGNLu8L3Wlc/q9
Eu7LIE+0qGRbpj9PVW/FpfJd/PZzQx64B29mVToBGZZWKLyc7cS+6WcvQSPzuN4x
dQTyRlfobznaUq1gT2t9akCV6k8r0YT1jlZEbO29BhHZhaZSh5StPsxV3Qj8rfeB
SJ0fbY32bScgei6Ou7yzmopP7CEbhC+c9EYyYDKr91OA36iQkodER0oz1ofu+gbS
XZKsgcCZnS0=
-----END CERTIFICATE-----
