Certificate:
    Data:
        Version: 3 (0x2)
        Serial Number: 268435596 (0x1000008c)
    Signature Algorithm: sha256WithRSAEncryption
        Issuer: CN=SRK3_sha256_4096_65537_v3_ca
        Validity
            Not Before: Mar  7 15:15:55 2018 GMT
            Not After : Mar  4 15:15:55 2028 GMT
        Subject: CN=IMG3_1_sha256_4096_65537_v3_usr
        Subject Public Key Info:
            Public Key Algorithm: rsaEncryption
                Public-Key: (4096 bit)
                Modulus:
                    00:97:d6:9f:2f:95:4c:fb:3f:3e:0b:f7:10:58:6b:
                    b3:7d:6d:81:81:af:20:ca:4b:4b:0e:4a:3a:41:67:
                    40:a9:32:b0:95:f7:e5:fd:90:45:f2:eb:25:ab:2d:
                    f8:53:2f:b6:f0:d9:7d:61:37:43:8a:73:17:08:2e:
                    d9:7d:bc:08:d6:f0:10:2a:87:24:0a:75:38:4a:ea:
                    ae:54:5b:bc:3e:b5:35:8f:f5:83:7e:d3:f6:21:b6:
                    82:89:8a:82:b7:89:65:09:a0:28:c2:cc:95:2e:8b:
                    8c:f6:3e:85:14:44:fc:8d:b0:27:c0:b4:ae:29:eb:
                    f0:e5:77:e8:8f:e6:10:ed:83:65:26:4f:49:be:b9:
                    ab:78:83:55:fe:4e:6d:93:ed:84:d4:fc:3e:98:81:
                    f8:39:7a:67:91:52:8b:ab:89:e4:48:43:c4:d4:b0:
                    c6:2e:90:c7:74:27:14:35:aa:69:5a:da:e7:bf:c5:
                    87:8b:be:b6:3d:a9:47:a5:5e:a1:ed:81:4e:87:4f:
                    38:99:11:50:b9:a9:b8:a9:a6:61:2d:b8:18:ff:28:
                    1a:73:cd:ce:ce:12:37:9e:80:97:02:3a:6f:cb:58:
                    44:95:b3:c7:af:99:c2:19:33:03:c8:72:21:d3:26:
                    0f:fd:0b:2b:b4:2c:82:7f:ac:8a:7f:b6:15:66:ee:
                    17:8b:b0:c4:19:79:98:c6:1d:11:5b:83:83:f0:44:
                    08:2e:e2:2e:cb:2a:46:f2:28:ab:e6:93:f9:2e:9b:
                    34:18:fe:4f:b2:c4:0f:1a:c9:3e:bc:a0:52:eb:52:
                    94:27:90:ea:2d:73:2a:21:e8:a7:b3:ba:db:3c:31:
                    ad:0b:f6:03:98:f3:03:0d:45:aa:92:0b:ab:26:c1:
                    59:65:4b:15:d1:72:47:1d:15:dd:6c:c9:9d:bf:73:
                    50:c7:31:1e:7d:31:57:ab:5c:cb:72:05:ca:3d:df:
                    4a:79:46:97:11:b0:15:ed:aa:7a:75:07:1f:94:79:
                    8a:1f:ed:50:63:57:bc:a4:99:48:49:c1:68:c5:72:
                    c4:ed:22:90:29:79:13:fd:43:c1:53:42:2e:4d:7a:
                    b1:69:d3:e2:7b:79:e9:a9:a4:c7:97:31:ab:4f:02:
                    5a:17:1d:0d:d1:df:6d:f4:ff:43:43:ec:11:62:50:
                    57:d1:cb:84:71:3e:4e:a2:2f:7b:6c:13:3f:1d:a9:
                    02:7f:61:f2:f7:69:8c:36:bc:73:ff:6f:16:30:0b:
                    6b:30:77:4b:96:f9:3e:88:af:08:67:b0:39:86:d6:
                    e7:fc:5c:00:c4:13:e0:ec:76:15:21:e2:13:89:3a:
                    1e:4c:cb:87:54:1f:40:ac:1b:ff:88:7f:71:29:b2:
                    9c:1b:33
                Exponent: 65537 (0x10001)
        X509v3 extensions:
            X509v3 Basic Constraints: 
                CA:FALSE
            Netscape Comment: 
                OpenSSL Generated Certificate
            X509v3 Subject Key Identifier: 
                BC:AB:19:25:FE:81:D1:89:49:D9:46:BA:6F:56:9A:5A:38:32:03:60
            X509v3 Authority Key Identifier: 
                keyid:92:8F:8A:F9:B2:A9:87:07:C0:7E:35:6E:48:7A:54:38:BB:A8:95:59

    Signature Algorithm: sha256WithRSAEncryption
         bd:d4:35:18:39:33:fd:62:99:27:05:60:ea:6d:6f:94:20:a8:
         1b:60:ba:74:a8:2d:13:b9:81:ac:fc:7a:08:3a:26:8b:95:4c:
         4b:0d:ce:5d:9b:90:df:a1:8a:b3:bb:23:a3:9e:20:75:f2:ef:
         4b:dc:90:b4:ad:9a:7d:24:59:cf:c3:34:91:4d:d4:9a:53:09:
         7b:c8:42:dd:ec:31:be:cd:08:82:24:3e:f2:9e:2c:6b:d2:53:
         bc:0d:e6:97:b7:6b:b5:43:35:17:fb:f2:62:2a:1b:34:00:98:
         86:ed:82:a2:63:23:ee:ed:4b:b9:68:e9:00:21:a9:ce:23:03:
         9a:5b:e1:0e:8f:3b:3b:29:37:20:4d:07:fd:29:6e:0f:0a:a5:
         8e:c5:f8:45:73:1d:a2:ca:a9:ac:5d:c5:72:5f:50:67:3e:59:
         7e:c7:60:f4:98:b5:7f:9f:60:ee:25:94:62:d9:77:bc:39:0a:
         de:78:e8:de:0d:3c:fc:5a:d8:85:53:e8:e7:06:5f:cb:be:2f:
         9b:90:47:83:ba:74:ce:28:6b:6d:51:58:ef:69:1e:cd:73:48:
         59:4a:d7:b7:6e:68:d3:e3:8d:88:da:50:a8:58:20:45:50:9d:
         7e:21:e1:38:5a:72:e8:75:72:5b:cf:5a:77:80:75:b9:e5:71:
         cc:b4:d8:68:32:ae:3a:0f:46:47:f9:89:5b:ee:f0:ad:8a:69:
         92:a1:a0:02:60:dd:7b:67:26:38:a5:62:da:e7:d6:b4:d6:38:
         15:f9:e1:bf:cb:3d:d5:3a:c1:37:ca:e5:c5:53:6b:83:f9:4c:
         08:19:ab:de:1f:61:1e:28:5f:c5:7b:96:4e:a1:44:fc:0a:a7:
         82:a6:c5:b0:c3:c6:db:5b:a3:40:ed:8d:81:fc:87:7b:03:68:
         0f:ec:fe:7f:29:de:59:ee:e6:6b:a9:ee:86:f3:51:fd:7a:8b:
         65:34:63:7c:2d:e8:65:0c:47:87:b4:df:58:e8:4d:68:10:a7:
         e2:38:3c:87:9b:f9:47:f0:0b:0a:ec:b6:99:20:13:0e:84:c3:
         a7:36:bf:3b:18:62:f7:dd:9e:a8:7c:8b:34:8e:4c:99:ca:61:
         56:3c:5b:f5:63:d8:4b:4c:28:92:da:88:52:0e:bd:d2:12:af:
         b7:50:01:49:94:ec:67:50:02:37:a7:3c:dc:0d:39:b8:be:36:
         a2:1b:6a:1b:a9:9d:80:84:53:ae:f4:26:94:db:47:ed:ac:91:
         18:02:28:2c:4b:e7:c5:b0:ff:e4:72:9c:7f:5c:a3:1f:e1:23:
         92:6b:ce:e1:5b:3e:d4:34:27:98:15:33:84:a6:34:5c:15:99:
         46:a8:7b:a4:b7:42:fb:76
-----BEGIN CERTIFICATE-----
MIIFSjCCAzKgAwIBAgIEEAAAjDANBgkqhkiG9w0BAQsFADAnMSUwIwYDVQQDDBxT
UkszX3NoYTI1Nl80MDk2XzY1NTM3X3YzX2NhMB4XDTE4MDMwNzE1MTU1NVoXDTI4
MDMwNDE1MTU1NVowKjEoMCYGA1UEAwwfSU1HM18xX3NoYTI1Nl80MDk2XzY1NTM3
X3YzX3VzcjCCAiIwDQYJKoZIhvcNAQEBBQADggIPADCCAgoCggIBAJfWny+VTPs/
Pgv3EFhrs31tgYGvIMpLSw5KOkFnQKkysJX35f2QRfLrJast+FMvtvDZfWE3Q4pz
Fwgu2X28CNbwECqHJAp1OErqrlRbvD61NY/1g37T9iG2gomKgreJZQmgKMLMlS6L
jPY+hRRE/I2wJ8C0rinr8OV36I/mEO2DZSZPSb65q3iDVf5ObZPthNT8PpiB+Dl6
Z5FSi6uJ5EhDxNSwxi6Qx3QnFDWqaVra57/Fh4u+tj2pR6Veoe2BTodPOJkRULmp
uKmmYS24GP8oGnPNzs4SN56AlwI6b8tYRJWzx6+ZwhkzA8hyIdMmD/0LK7Qsgn+s
in+2FWbuF4uwxBl5mMYdEVuDg/BECC7iLssqRvIoq+aT+S6bNBj+T7LEDxrJPryg
UutSlCeQ6i1zKiHop7O62zwxrQv2A5jzAw1FqpILqybBWWVLFdFyRx0V3WzJnb9z
UMcxHn0xV6tcy3IFyj3fSnlGlxGwFe2qenUHH5R5ih/tUGNXvKSZSEnBaMVyxO0i
kCl5E/1DwVNCLk16sWnT4nt56amkx5cxq08CWhcdDdHfbfT/Q0PsEWJQV9HLhHE+
TqIve2wTPx2pAn9h8vdpjDa8c/9vFjALazB3S5b5PoivCGewOYbW5/xcAMQT4Ox2
FSHiE4k6HkzLh1QfQKwb/4h/cSmynBszAgMBAAGjezB5MAkGA1UdEwQCMAAwLAYJ
YIZIAYb4QgENBB8WHU9wZW5TU0wgR2VuZXJhdGVkIENlcnRpZmljYXRlMB0GA1Ud
DgQWBBS8qxkl/oHRiUnZRrpvVppaODIDYDAfBgNVHSMEGDAWgBSSj4r5sqmHB8B+
NW5IelQ4u6iVWTANBgkqhkiG9w0BAQsFAAOCAgEAvdQ1GDkz/WKZJwVg6m1vlCCo
G2C6dKgtE7mBrPx6CDomi5VMSw3OXZuQ36GKs7sjo54gdfLvS9yQtK2afSRZz8M0
kU3UmlMJe8hC3ewxvs0IgiQ+8p4sa9JTvA3ml7drtUM1F/vyYiobNACYhu2ComMj
7u1LuWjpACGpziMDmlvhDo87Oyk3IE0H/SluDwqljsX4RXMdosqprF3Fcl9QZz5Z
fsdg9Ji1f59g7iWUYtl3vDkK3njo3g08/FrYhVPo5wZfy74vm5BHg7p0zihrbVFY
72kezXNIWUrXt25o0+ONiNpQqFggRVCdfiHhOFpy6HVyW89ad4B1ueVxzLTYaDKu
Og9GR/mJW+7wrYppkqGgAmDde2cmOKVi2ufWtNY4Ffnhv8s91TrBN8rlxVNrg/lM
CBmr3h9hHihfxXuWTqFE/AqngqbFsMPG21ujQO2NgfyHewNoD+z+fyneWe7ma6nu
hvNR/XqLZTRjfC3oZQxHh7TfWOhNaBCn4jg8h5v5R/ALCuy2mSATDoTDpza/Oxhi
992eqHyLNI5MmcphVjxb9WPYS0woktqIUg690hKvt1ABSZTsZ1ACN6c83A05uL42
ohtqG6mdgIRTrvQmlNtH7ayRGAIoLEvnxbD/5HKcf1yjH+EjkmvO4Vs+1DQnmBUz
hKY0XBWZRqh7pLdC+3Y=
-----END CERTIFICATE-----
