Certificate:
    Data:
        Version: 3 (0x2)
        Serial Number: 268435569 (0x10000071)
    Signature Algorithm: sha256WithRSAEncryption
        Issuer: CN=SRK2_sha256_1024_65537_v3_ca
        Validity
            Not Before: Mar  7 15:15:47 2018 GMT
            Not After : Mar  4 15:15:47 2028 GMT
        Subject: CN=IMG2_1_sha256_1024_65537_v3_usr
        Subject Public Key Info:
            Public Key Algorithm: rsaEncryption
                Public-Key: (1024 bit)
                Modulus:
                    00:c5:28:10:a8:4c:60:12:e6:c2:14:d3:5e:c7:28:
                    84:db:a6:ff:2a:84:a6:ed:fe:43:ef:08:9d:41:03:
                    85:f6:39:ae:40:83:d6:85:d2:3f:92:64:72:f7:45:
                    28:f1:48:a4:47:00:52:0c:9a:b8:18:5b:f3:df:f6:
                    6b:29:01:df:a4:45:d5:a2:90:20:c8:36:51:64:42:
                    cb:e3:3d:7f:ea:69:02:ad:20:87:7c:73:15:14:6a:
                    19:b8:52:d3:f5:1f:8f:9c:3d:cd:63:39:cb:62:e0:
                    7c:84:08:dc:14:69:ba:cc:e5:08:d2:51:21:6b:ef:
                    96:3d:b4:08:b3:99:aa:d7:d3
                Exponent: 65537 (0x10001)
        X509v3 extensions:
            X509v3 Basic Constraints: 
                CA:FALSE
            Netscape Comment: 
                OpenSSL Generated Certificate
            X509v3 Subject Key Identifier: 
                13:C5:04:77:83:32:57:27:C7:9D:50:E8:05:3A:8C:4D:71:96:16:FF
            X509v3 Authority Key Identifier: 
                keyid:44:3D:EE:A6:94:4A:79:A1:A9:32:08:F6:A3:31:01:2D:F7:B2:6F:D3

    Signature Algorithm: sha256WithRSAEncryption
         19:07:33:a0:11:aa:70:f9:c8:29:10:65:07:49:bc:33:31:18:
         e5:ac:44:11:07:3a:3a:9d:18:f1:5c:62:4a:df:45:9e:49:87:
         bf:c7:94:37:ca:4e:14:a0:37:30:93:2c:5e:80:4e:ec:e0:7b:
         d8:b4:24:4b:53:20:00:2f:8b:eb:28:03:cd:ef:77:e9:f9:b5:
         aa:76:dd:a3:eb:55:58:63:f3:8e:3c:99:8b:60:da:f0:7f:21:
         fb:6c:12:4b:bd:b2:94:73:5c:1a:7c:1f:9f:f4:cf:2a:87:8b:
         dc:dc:82:8f:03:3b:08:77:a2:c7:d3:94:dd:2d:f8:6d:d7:5f:
         dd:da
-----BEGIN CERTIFICATE-----
MIICRTCCAa6gAwIBAgIEEAAAcTANBgkqhkiG9w0BAQsFADAnMSUwIwYDVQQDDBxT
UksyX3NoYTI1Nl8xMDI0XzY1NTM3X3YzX2NhMB4XDTE4MDMwNzE1MTU0N1oXDTI4
MDMwNDE1MTU0N1owKjEoMCYGA1UEAwwfSU1HMl8xX3NoYTI1Nl8xMDI0XzY1NTM3
X3YzX3VzcjCBnzANBgkqhkiG9w0BAQEFAAOBjQAwgYkCgYEAxSgQqExgEubCFNNe
xyiE26b/KoSm7f5D7widQQOF9jmuQIPWhdI/kmRy90Uo8UikRwBSDJq4GFvz3/Zr
KQHfpEXVopAgyDZRZELL4z1/6mkCrSCHfHMVFGoZuFLT9R+PnD3NYznLYuB8hAjc
FGm6zOUI0lEha++WPbQIs5mq19MCAwEAAaN7MHkwCQYDVR0TBAIwADAsBglghkgB
hvhCAQ0EHxYdT3BlblNTTCBHZW5lcmF0ZWQgQ2VydGlmaWNhdGUwHQYDVR0OBBYE
FBPFBHeDMlcnx51Q6AU6jE1xlhb/MB8GA1UdIwQYMBaAFEQ97qaUSnmhqTII9qMx
AS33sm/TMA0GCSqGSIb3DQEBCwUAA4GBABkHM6ARqnD5yCkQZQdJvDMxGOWsRBEH
OjqdGPFcYkrfRZ5Jh7/HlDfKThSgNzCTLF6ATuzge9i0JEtTIAAvi+soA83vd+n5
tap23aPrVVhj8448mYtg2vB/IftsEku9spRzXBp8H5/0zyqHi9zcgo8DOwh3osfT
lN0t+G3XX93a
-----END CERTIFICATE-----
