Certificate:
    Data:
        Version: 3 (0x2)
        Serial Number: 268435577 (0x10000079)
    Signature Algorithm: sha256WithRSAEncryption
        Issuer: CN=SRK1_sha256_2048_65537_v3_ca
        Validity
            Not Before: Mar  7 15:15:48 2018 GMT
            Not After : Mar  4 15:15:48 2028 GMT
        Subject: CN=CSF1_1_sha256_2048_65537_v3_usr
        Subject Public Key Info:
            Public Key Algorithm: rsaEncryption
                Public-Key: (2048 bit)
                Modulus:
                    00:b3:25:4d:f4:1d:70:c8:8d:3d:f7:c5:70:4d:0d:
                    a8:79:cb:e7:ef:f7:70:f5:81:35:0f:73:93:58:05:
                    c9:d2:05:7f:85:66:e5:a7:5a:0c:94:c7:48:51:29:
                    67:9f:e3:d5:00:96:e9:1a:a5:45:66:5b:62:1e:91:
                    7b:ce:67:c5:e9:e4:e0:83:c3:cc:28:8a:93:da:83:
                    85:fe:33:3e:fc:a7:6c:c5:62:4b:95:d4:f6:86:b8:
                    bb:fc:05:44:2a:d0:eb:4a:f0:6f:56:a1:8e:2a:2a:
                    e8:c8:ee:03:8a:56:d0:d0:29:60:3a:9e:67:4e:33:
                    f2:21:f7:5c:64:ec:e2:28:37:9d:6c:80:10:df:4e:
                    8f:8f:5f:63:9c:cc:9c:6b:d0:5c:74:8c:4a:cd:6a:
                    67:37:7b:8c:e3:7e:68:dd:13:c2:bc:02:44:53:99:
                    cc:f8:20:77:91:20:ef:7d:a2:af:c3:27:c4:a9:b8:
                    d0:8a:36:19:59:74:c2:f1:f1:36:df:a5:67:68:63:
                    8a:ea:ef:67:54:b2:a1:c7:9e:be:d6:2f:46:a8:b7:
                    37:60:1c:8f:03:57:5f:67:32:45:89:1f:34:aa:7e:
                    70:42:d5:85:1d:a9:87:a5:0a:ae:17:18:24:3b:d2:
                    c2:97:ad:74:9e:44:f3:59:ce:3d:1e:26:eb:05:1d:
                    1f:cf
                Exponent: 65537 (0x10001)
        X509v3 extensions:
            X509v3 Basic Constraints: 
                CA:FALSE
            Netscape Comment: 
                OpenSSL Generated Certificate
            X509v3 Subject Key Identifier: 
                AC:56:85:9A:EF:B5:6B:5D:47:72:91:14:9B:6D:D0:BE:71:C4:4F:F7
            X509v3 Authority Key Identifier: 
                keyid:D8:7E:22:7E:B4:84:CC:F8:04:B0:B5:19:5E:13:73:E3:8B:6E:E6:48

    Signature Algorithm: sha256WithRSAEncryption
         8d:67:04:06:aa:7d:46:ed:2c:0f:73:43:c8:42:ee:7e:60:77:
         9d:55:86:ed:54:37:96:d9:92:ca:ab:a5:7f:c8:68:71:f6:b4:
         5f:e9:1d:a2:01:1d:83:f8:3a:61:1e:cf:bb:03:f5:df:59:05:
         38:15:3e:e1:23:08:71:48:52:1f:01:f6:3e:4f:e3:d1:7a:ba:
         fe:91:23:46:ae:b6:e5:73:66:83:c3:39:a0:b1:74:54:b2:dc:
         f5:07:32:8f:e5:10:f1:2c:0a:4f:db:a3:ea:27:f8:cb:19:18:
         1b:dc:4a:a8:a5:04:c5:b5:d8:19:74:aa:9f:8a:e3:4a:a6:66:
         8b:31:5b:06:ed:a7:dc:fd:b4:a5:06:cf:2e:74:21:e9:fd:23:
         06:a9:fa:c0:b2:a5:c0:07:f2:2d:e9:ae:9c:9a:a5:cd:2c:e8:
         c7:1d:c8:48:90:14:3a:3b:a6:95:35:63:78:5e:de:ba:f1:33:
         71:84:1b:1c:ce:af:d6:1d:11:c8:74:86:ce:eb:07:6b:e5:c5:
         66:4b:ee:90:68:73:e0:4f:d1:9f:58:d5:45:50:b3:16:32:eb:
         e5:7a:9e:24:95:eb:22:26:8d:ed:72:9e:1d:4a:af:0a:40:af:
         eb:73:08:26:54:43:f9:25:78:fa:1d:ca:fc:0e:2e:f3:00:d4:
         f7:cb:5a:77
-----BEGIN CERTIFICATE-----
MIIDSjCCAjKgAwIBAgIEEAAAeTANBgkqhkiG9w0BAQsFADAnMSUwIwYDVQQDDBxT
UksxX3NoYTI1Nl8yMDQ4XzY1NTM3X3YzX2NhMB4XDTE4MDMwNzE1MTU0OFoXDTI4
MDMwNDE1MTU0OFowKjEoMCYGA1UEAwwfQ1NGMV8xX3NoYTI1Nl8yMDQ4XzY1NTM3
X3YzX3VzcjCCASIwDQYJKoZIhvcNAQEBBQADggEPADCCAQoCggEBALMlTfQdcMiN
PffFcE0NqHnL5+/3cPWBNQ9zk1gFydIFf4Vm5adaDJTHSFEpZ5/j1QCW6RqlRWZb
Yh6Re85nxenk4IPDzCiKk9qDhf4zPvynbMViS5XU9oa4u/wFRCrQ60rwb1ahjioq
6MjuA4pW0NApYDqeZ04z8iH3XGTs4ig3nWyAEN9Oj49fY5zMnGvQXHSMSs1qZzd7
jON+aN0TwrwCRFOZzPggd5Eg732ir8MnxKm40Io2GVl0wvHxNt+lZ2hjiurvZ1Sy
oceevtYvRqi3N2AcjwNXX2cyRYkfNKp+cELVhR2ph6UKrhcYJDvSwpetdJ5E81nO
PR4m6wUdH88CAwEAAaN7MHkwCQYDVR0TBAIwADAsBglghkgBhvhCAQ0EHxYdT3Bl
blNTTCBHZW5lcmF0ZWQgQ2VydGlmaWNhdGUwHQYDVR0OBBYEFKxWhZrvtWtdR3KR
FJtt0L5xxE/3MB8GA1UdIwQYMBaAFNh+In60hMz4BLC1GV4Tc+OLbuZIMA0GCSqG
SIb3DQEBCwUAA4IBAQCNZwQGqn1G7SwPc0PIQu5+YHedVYbtVDeW2ZLKq6V/yGhx
9rRf6R2iAR2D+DphHs+7A/XfWQU4FT7hIwhxSFIfAfY+T+PRerr+kSNGrrblc2aD
wzmgsXRUstz1BzKP5RDxLApP26PqJ/jLGRgb3EqopQTFtdgZdKqfiuNKpmaLMVsG
7afc/bSlBs8udCHp/SMGqfrAsqXAB/It6a6cmqXNLOjHHchIkBQ6O6aVNWN4Xt66
8TNxhBsczq/WHRHIdIbO6wdr5cVmS+6QaHPgT9GfWNVFULMWMuvlep4klesiJo3t
cp4dSq8KQK/rcwgmVEP5JXj6Hcr8Di7zANT3y1p3
-----END CERTIFICATE-----
