Certificate:
    Data:
        Version: 3 (0x2)
        Serial Number: 268435567 (0x1000006f)
    Signature Algorithm: sha256WithRSAEncryption
        Issuer: CN=CA1_sha256_1024_65537_v3_ca
        Validity
            Not Before: Mar  7 15:15:47 2018 GMT
            Not After : Mar  4 15:15:47 2028 GMT
        Subject: CN=SRK2_sha256_1024_65537_v3_ca
        Subject Public Key Info:
            Public Key Algorithm: rsaEncryption
                Public-Key: (1024 bit)
                Modulus:
                    00:a0:e5:cc:d0:74:d6:54:6f:b4:56:6f:d8:24:15:
                    4b:1b:ec:e2:f7:9b:e1:cf:8d:29:df:11:ab:ba:22:
                    2e:86:dc:47:fa:5e:78:51:52:e5:d0:23:39:7f:eb:
                    34:8b:6f:7a:40:3f:01:44:03:3c:2c:ce:9e:e4:71:
                    64:36:37:a7:9d:70:03:9d:1c:2d:48:8c:5e:8c:30:
                    7d:47:fd:c1:9f:75:c6:1c:1f:0e:a6:44:a7:dc:cc:
                    2c:c9:ab:24:e4:61:d9:c1:77:b1:ac:7d:4d:0a:b1:
                    a0:6a:54:c4:dc:33:ff:0a:53:98:29:a6:e0:6a:5d:
                    48:40:64:54:c9:2f:93:1c:9b
                Exponent: 65537 (0x10001)
        X509v3 extensions:
            X509v3 Subject Key Identifier: 
                44:3D:EE:A6:94:4A:79:A1:A9:32:08:F6:A3:31:01:2D:F7:B2:6F:D3
            X509v3 Authority Key Identifier: 
                keyid:1C:CC:24:5A:9C:B6:D6:70:93:C8:C3:11:95:6D:A3:BB:1A:35:78:C5
                DirName:/CN=CA1_sha256_1024_65537_v3_ca
                serial:F9:96:A0:48:CD:18:CB:23

            X509v3 Basic Constraints: critical
                CA:TRUE
            X509v3 Key Usage: 
                Certificate Sign
    Signature Algorithm: sha256WithRSAEncryption
         67:e9:9e:5c:81:ea:fa:c9:ab:38:62:eb:1f:57:4d:26:f2:61:
         43:2d:d9:73:70:14:db:2d:0f:0a:34:4d:93:e9:80:32:73:cf:
         05:ac:93:5c:5b:76:16:78:b1:61:e0:21:e7:12:93:b0:1d:fd:
         38:1a:65:4e:c9:31:a4:9d:38:5f:a0:7c:7b:02:8d:de:1e:47:
         b5:95:b9:6e:34:52:96:8e:1e:57:2b:ee:05:3e:b7:43:9a:e7:
         3c:2e:fe:95:ca:33:48:dc:d7:1c:37:a0:79:95:3e:54:4f:bf:
         85:de:01:65:4c:1b:66:c1:b6:53:1c:c6:8e:ff:bb:f1:ac:d6:
         4a:67
-----BEGIN CERTIFICATE-----
MIICXzCCAcigAwIBAgIEEAAAbzANBgkqhkiG9w0BAQsFADAmMSQwIgYDVQQDFBtD
QTFfc2hhMjU2XzEwMjRfNjU1MzdfdjNfY2EwHhcNMTgwMzA3MTUxNTQ3WhcNMjgw
MzA0MTUxNTQ3WjAnMSUwIwYDVQQDDBxTUksyX3NoYTI1Nl8xMDI0XzY1NTM3X3Yz
X2NhMIGfMA0GCSqGSIb3DQEBAQUAA4GNADCBiQKBgQCg5czQdNZUb7RWb9gkFUsb
7OL3m+HPjSnfEau6Ii6G3Ef6XnhRUuXQIzl/6zSLb3pAPwFEAzwszp7kcWQ2N6ed
cAOdHC1IjF6MMH1H/cGfdcYcHw6mRKfczCzJqyTkYdnBd7GsfU0KsaBqVMTcM/8K
U5gppuBqXUhAZFTJL5McmwIDAQABo4GYMIGVMB0GA1UdDgQWBBREPe6mlEp5oaky
CPajMQEt97Jv0zBWBgNVHSMETzBNgBQczCRanLbWcJPIwxGVbaO7GjV4xaEqpCgw
JjEkMCIGA1UEAxQbQ0ExX3NoYTI1Nl8xMDI0XzY1NTM3X3YzX2NhggkA+ZagSM0Y
yyMwDwYDVR0TAQH/BAUwAwEB/zALBgNVHQ8EBAMCAgQwDQYJKoZIhvcNAQELBQAD
gYEAZ+meXIHq+smrOGLrH1dNJvJhQy3Zc3AU2y0PCjRNk+mAMnPPBayTXFt2Fnix
YeAh5xKTsB39OBplTskxpJ04X6B8ewKN3h5HtZW5bjRSlo4eVyvuBT63Q5rnPC7+
lcozSNzXHDegeZU+VE+/hd4BZUwbZsG2UxzGjv+78azWSmc=
-----END CERTIFICATE-----
