Certificate:
    Data:
        Version: 3 (0x2)
        Serial Number: 268435572 (0x10000074)
    Signature Algorithm: sha256WithRSAEncryption
        Issuer: CN=SRK3_sha256_1024_65537_v3_ca
        Validity
            Not Before: Mar  7 15:15:47 2018 GMT
            Not After : Mar  4 15:15:47 2028 GMT
        Subject: CN=IMG3_1_sha256_1024_65537_v3_usr
        Subject Public Key Info:
            Public Key Algorithm: rsaEncryption
                Public-Key: (1024 bit)
                Modulus:
                    00:ca:40:ac:3d:17:d4:93:bf:c5:7e:00:0e:0e:4b:
                    bb:ab:ed:73:c7:0b:72:96:2a:7c:97:92:0d:07:31:
                    45:69:30:ab:85:86:4d:fa:ae:4c:df:5b:0c:6d:76:
                    7b:a4:3c:70:52:5b:b3:5e:09:89:94:26:3e:2e:37:
                    c6:68:ac:56:d2:51:b3:ba:11:3e:8a:c7:b3:82:15:
                    6d:de:65:55:d5:bc:fa:06:1c:73:10:5e:84:ac:35:
                    d9:fe:f6:a9:54:bf:24:4b:ea:5f:0c:00:44:d7:df:
                    f9:f5:d0:e0:5f:86:3c:37:3e:1d:81:9d:c9:74:27:
                    9b:56:bf:ad:20:65:33:f6:6f
                Exponent: 65537 (0x10001)
        X509v3 extensions:
            X509v3 Basic Constraints: 
                CA:FALSE
            Netscape Comment: 
                OpenSSL Generated Certificate
            X509v3 Subject Key Identifier: 
                FB:A7:FC:29:3A:BE:51:C4:3A:BE:DF:64:77:4E:8F:2E:1C:D6:75:71
            X509v3 Authority Key Identifier: 
                keyid:1D:4F:0E:2E:05:79:82:CB:70:47:2E:6F:18:C0:9A:76:5B:E2:38:99

    Signature Algorithm: sha256WithRSAEncryption
         25:2a:cf:59:d0:0b:a0:16:7c:d3:28:25:9a:ff:a9:49:57:60:
         26:95:65:99:7a:33:2b:d3:a6:36:0f:eb:b6:a0:fa:6a:c5:a6:
         a1:df:75:eb:dd:f3:22:3d:b9:37:5f:24:28:50:9f:0e:40:17:
         51:65:70:e6:f5:34:4b:2d:66:08:86:66:53:dc:87:bd:cf:64:
         83:39:d5:2a:2f:9e:40:bc:30:f7:5c:a4:c7:2d:36:5f:ae:80:
         3f:5f:b0:d1:8d:5e:1b:af:56:fa:bb:10:91:a2:00:1c:76:c4:
         2c:be:02:4b:54:96:c3:07:7b:9a:5e:eb:5e:1e:f6:af:2e:73:
         35:70
-----BEGIN CERTIFICATE-----
MIICRTCCAa6gAwIBAgIEEAAAdDANBgkqhkiG9w0BAQsFADAnMSUwIwYDVQQDDBxT
UkszX3NoYTI1Nl8xMDI0XzY1NTM3X3YzX2NhMB4XDTE4MDMwNzE1MTU0N1oXDTI4
MDMwNDE1MTU0N1owKjEoMCYGA1UEAwwfSU1HM18xX3NoYTI1Nl8xMDI0XzY1NTM3
X3YzX3VzcjCBnzANBgkqhkiG9w0BAQEFAAOBjQAwgYkCgYEAykCsPRfUk7/FfgAO
Dku7q+1zxwtylip8l5INBzFFaTCrhYZN+q5M31sMbXZ7pDxwUluzXgmJlCY+LjfG
aKxW0lGzuhE+isezghVt3mVV1bz6BhxzEF6ErDXZ/vapVL8kS+pfDABE19/59dDg
X4Y8Nz4dgZ3JdCebVr+tIGUz9m8CAwEAAaN7MHkwCQYDVR0TBAIwADAsBglghkgB
hvhCAQ0EHxYdT3BlblNTTCBHZW5lcmF0ZWQgQ2VydGlmaWNhdGUwHQYDVR0OBBYE
FPun/Ck6vlHEOr7fZHdOjy4c1nVxMB8GA1UdIwQYMBaAFB1PDi4FeYLLcEcubxjA
mnZb4jiZMA0GCSqGSIb3DQEBCwUAA4GBACUqz1nQC6AWfNMoJZr/qUlXYCaVZZl6
MyvTpjYP67ag+mrFpqHfdevd8yI9uTdfJChQnw5AF1FlcOb1NEstZgiGZlPch73P
ZIM51SovnkC8MPdcpMctNl+ugD9fsNGNXhuvVvq7EJGiABx2xCy+AktUlsMHe5pe
614e9q8uczVw
-----END CERTIFICATE-----
