Certificate:
    Data:
        Version: 3 (0x2)
        Serial Number: 268435592 (0x10000088)
    Signature Algorithm: sha256WithRSAEncryption
        Issuer: CN=SRK2_sha256_4096_65537_v3_ca
        Validity
            Not Before: Mar  7 15:15:52 2018 GMT
            Not After : Mar  4 15:15:52 2028 GMT
        Subject: CN=CSF2_1_sha256_4096_65537_v3_usr
        Subject Public Key Info:
            Public Key Algorithm: rsaEncryption
                Public-Key: (4096 bit)
                Modulus:
                    00:c4:1a:4c:8b:78:af:e4:ec:e3:09:07:43:7b:d7:
                    11:eb:b6:09:d4:00:80:06:23:72:92:2b:da:ec:66:
                    bb:89:62:3d:3b:ba:0f:7d:e3:61:89:03:38:9e:ed:
                    68:41:ca:c2:ca:64:2e:f0:d9:d5:e4:6f:25:3a:ff:
                    fa:22:99:bc:f0:28:5a:0f:c9:ab:78:de:82:f6:44:
                    ff:06:a8:d8:c5:98:8d:47:07:24:2d:7b:5e:fc:60:
                    81:93:38:fa:8c:14:d3:79:0f:d8:eb:41:68:5c:b5:
                    cb:d7:c9:b8:1d:7f:32:6b:b8:0d:f6:47:b4:85:fb:
                    33:d3:e2:bd:31:c2:55:df:1f:21:ce:1f:aa:88:e1:
                    5f:33:4c:1c:82:68:f6:e2:3f:1d:43:50:70:ff:df:
                    13:aa:46:65:20:27:f8:0e:44:27:64:06:12:cd:bb:
                    b5:cf:c1:c2:db:0a:e0:74:ec:2c:49:e9:26:46:21:
                    d7:53:0f:66:8b:90:b7:15:08:0a:cc:5b:9c:5e:e5:
                    fa:56:20:e5:7b:78:39:5f:0d:26:3c:7f:4e:12:a8:
                    c9:9d:13:00:87:1d:3b:81:3e:c2:f7:c4:da:1b:d1:
                    a0:57:db:0d:8d:d4:97:75:f7:f2:7d:8e:73:59:cc:
                    5b:09:21:39:9b:f9:f3:a7:76:de:a8:68:74:fa:09:
                    f4:f5:f0:0a:3d:84:27:48:e4:49:c4:71:10:79:23:
                    73:bb:98:6b:c1:8c:30:ff:9c:a1:b3:89:24:c4:df:
                    a1:8c:42:55:ab:12:68:be:b5:f6:aa:57:f7:00:00:
                    bb:41:f5:2b:07:16:b6:32:1c:c0:bc:b2:5b:bd:15:
                    87:79:92:8d:e3:3b:53:d4:96:c9:ed:cb:3f:37:a2:
                    4d:5f:64:c3:76:07:95:03:42:b6:45:4e:70:81:54:
                    25:78:8f:34:47:98:2c:c8:91:ec:6d:50:4d:dd:8e:
                    64:42:6d:85:d6:e8:cf:1e:8f:fd:92:d1:d5:6c:90:
                    a5:5f:8a:36:f9:fd:d7:cd:88:69:10:03:11:8f:a2:
                    fd:94:37:23:36:c0:52:60:73:58:08:4d:8c:77:7e:
                    2d:f9:9a:80:9a:a7:a6:92:38:97:55:64:7d:ab:71:
                    ee:04:a0:69:69:85:a8:fe:bf:60:72:82:a8:25:a8:
                    d6:b4:2b:c1:c3:df:77:7f:07:37:b2:39:46:36:86:
                    49:f7:65:36:a6:66:4a:51:3f:c1:5a:bc:9b:8b:2d:
                    2e:fb:3f:91:87:ae:1d:cc:97:e2:66:9d:2e:d6:df:
                    f7:98:14:50:66:1b:bf:bd:eb:6d:bf:bb:3d:6e:ca:
                    16:4d:6f:5d:36:81:90:13:36:02:3f:bf:d6:f2:74:
                    25:39:53
                Exponent: 65537 (0x10001)
        X509v3 extensions:
            X509v3 Basic Constraints: 
                CA:FALSE
            Netscape Comment: 
                OpenSSL Generated Certificate
            X509v3 Subject Key Identifier: 
                2B:37:13:D8:40:71:5B:A3:19:51:E6:0F:34:73:24:66:E3:50:00:3A
            X509v3 Authority Key Identifier: 
                keyid:60:B5:A1:43:C3:C8:78:C9:B7:A5:B3:4B:56:A4:F2:17:D3:A7:3A:A0

    Signature Algorithm: sha256WithRSAEncryption
         35:af:14:9e:bb:47:40:2d:46:08:ec:62:a6:f6:3a:88:ba:ac:
         a6:91:10:04:ac:11:ed:ff:e2:f9:4d:93:62:13:11:af:67:58:
         e8:1e:58:1a:cf:e3:04:81:48:66:20:70:12:f7:58:83:75:06:
         5e:cf:19:0e:d5:57:f5:a5:ce:26:bf:c4:fa:7a:db:17:dd:9b:
         e7:73:d9:53:97:4a:33:d8:39:11:a2:6c:5d:91:3d:d7:f2:d8:
         5a:d4:b5:c0:b6:2e:6a:91:88:b5:ef:da:7d:4f:a3:e2:43:98:
         86:dd:b4:d2:86:d5:03:c2:bf:0b:b7:fa:86:f4:80:6d:2e:fb:
         80:23:99:23:df:41:58:ed:0a:59:7a:82:0e:89:e4:e1:07:14:
         d9:0b:f3:2f:b2:39:89:4a:87:c8:77:f7:91:83:d8:7d:50:7f:
         40:c7:ac:1b:90:28:61:7a:22:6a:54:8a:a4:19:9b:1b:f8:7d:
         39:63:3c:ba:2f:93:ee:c3:a8:a8:2d:ce:20:4a:b2:ff:bb:65:
         dc:fa:a2:e0:aa:4c:99:dd:84:fe:ca:21:50:4e:97:24:6b:85:
         40:ad:d8:01:54:9b:62:d9:bd:41:77:81:60:41:28:5e:03:a4:
         39:4b:e9:2f:b1:2c:77:20:07:34:2f:2f:8a:2c:5e:de:35:ad:
         64:49:ed:1d:12:63:2d:92:a6:89:c6:de:14:4a:26:38:bb:63:
         16:d2:ec:b1:58:ce:8d:8c:ff:07:08:08:d7:ac:71:7a:9e:ef:
         90:b4:0d:c4:56:bf:be:db:96:77:66:d3:08:cc:a9:1c:9e:2f:
         91:ed:a0:2a:60:d8:73:66:79:c3:44:55:c5:b0:42:f1:a7:86:
         60:1c:71:77:b6:49:2c:e2:d5:98:37:d4:f2:bb:a5:9d:ce:d5:
         c3:b1:3c:00:a6:10:9c:75:2d:48:5f:9b:f3:28:43:0a:24:16:
         f6:21:06:7c:d2:2e:e9:3f:a7:f3:fa:2b:e7:9e:68:57:5f:7c:
         16:27:b2:a4:ff:41:8f:64:71:7c:1c:23:99:cc:36:a9:7f:cd:
         84:a1:dd:85:03:1f:87:00:a8:0b:76:09:de:cc:46:0e:e7:02:
         9a:f0:79:64:a9:71:67:f4:53:11:78:ad:5a:5f:bc:12:f0:67:
         9f:be:94:5f:16:0d:33:9d:35:a2:58:f2:e5:d2:7e:12:eb:a9:
         ce:95:99:a8:be:af:84:7f:8c:f9:de:70:b7:a4:2a:25:d0:7c:
         9b:d4:0d:d0:33:84:c3:b2:50:af:c0:25:c8:09:9c:78:9d:d4:
         3d:7d:df:e8:70:dc:fd:e6:43:b2:c1:0c:a2:c2:de:21:55:91:
         14:d8:24:b9:48:de:a4:91
-----BEGIN CERTIFICATE-----
MIIFSjCCAzKgAwIBAgIEEAAAiDANBgkqhkiG9w0BAQsFADAnMSUwIwYDVQQDDBxT
UksyX3NoYTI1Nl80MDk2XzY1NTM3X3YzX2NhMB4XDTE4MDMwNzE1MTU1MloXDTI4
MDMwNDE1MTU1MlowKjEoMCYGA1UEAwwfQ1NGMl8xX3NoYTI1Nl80MDk2XzY1NTM3
X3YzX3VzcjCCAiIwDQYJKoZIhvcNAQEBBQADggIPADCCAgoCggIBAMQaTIt4r+Ts
4wkHQ3vXEeu2CdQAgAYjcpIr2uxmu4liPTu6D33jYYkDOJ7taEHKwspkLvDZ1eRv
JTr/+iKZvPAoWg/Jq3jegvZE/wao2MWYjUcHJC17XvxggZM4+owU03kP2OtBaFy1
y9fJuB1/Mmu4DfZHtIX7M9PivTHCVd8fIc4fqojhXzNMHIJo9uI/HUNQcP/fE6pG
ZSAn+A5EJ2QGEs27tc/BwtsK4HTsLEnpJkYh11MPZouQtxUICsxbnF7l+lYg5Xt4
OV8NJjx/ThKoyZ0TAIcdO4E+wvfE2hvRoFfbDY3Ul3X38n2Oc1nMWwkhOZv586d2
3qhodPoJ9PXwCj2EJ0jkScRxEHkjc7uYa8GMMP+cobOJJMTfoYxCVasSaL619qpX
9wAAu0H1KwcWtjIcwLyyW70Vh3mSjeM7U9SWye3LPzeiTV9kw3YHlQNCtkVOcIFU
JXiPNEeYLMiR7G1QTd2OZEJthdbozx6P/ZLR1WyQpV+KNvn9182IaRADEY+i/ZQ3
IzbAUmBzWAhNjHd+LfmagJqnppI4l1Vkfatx7gSgaWmFqP6/YHKCqCWo1rQrwcPf
d38HN7I5RjaGSfdlNqZmSlE/wVq8m4stLvs/kYeuHcyX4madLtbf95gUUGYbv73r
bb+7PW7KFk1vXTaBkBM2Aj+/1vJ0JTlTAgMBAAGjezB5MAkGA1UdEwQCMAAwLAYJ
YIZIAYb4QgENBB8WHU9wZW5TU0wgR2VuZXJhdGVkIENlcnRpZmljYXRlMB0GA1Ud
DgQWBBQrNxPYQHFboxlR5g80cyRm41AAOjAfBgNVHSMEGDAWgBRgtaFDw8h4ybel
s0tWpPIX06c6oDANBgkqhkiG9w0BAQsFAAOCAgEANa8UnrtHQC1GCOxipvY6iLqs
ppEQBKwR7f/i+U2TYhMRr2dY6B5YGs/jBIFIZiBwEvdYg3UGXs8ZDtVX9aXOJr/E
+nrbF92b53PZU5dKM9g5EaJsXZE91/LYWtS1wLYuapGIte/afU+j4kOYht200obV
A8K/C7f6hvSAbS77gCOZI99BWO0KWXqCDonk4QcU2QvzL7I5iUqHyHf3kYPYfVB/
QMesG5AoYXoialSKpBmbG/h9OWM8ui+T7sOoqC3OIEqy/7tl3Pqi4KpMmd2E/soh
UE6XJGuFQK3YAVSbYtm9QXeBYEEoXgOkOUvpL7EsdyAHNC8viixe3jWtZEntHRJj
LZKmicbeFEomOLtjFtLssVjOjYz/BwgI16xxep7vkLQNxFa/vtuWd2bTCMypHJ4v
ke2gKmDYc2Z5w0RVxbBC8aeGYBxxd7ZJLOLVmDfU8rulnc7Vw7E8AKYQnHUtSF+b
8yhDCiQW9iEGfNIu6T+n8/or555oV198FieypP9Bj2RxfBwjmcw2qX/NhKHdhQMf
hwCoC3YJ3sxGDucCmvB5ZKlxZ/RTEXitWl+8EvBnn76UXxYNM501oljy5dJ+Euup
zpWZqL6vhH+M+d5wt6QqJdB8m9QN0DOEw7JQr8AlyAmceJ3UPX3f6HDc/eZDssEM
osLeIVWRFNgkuUjepJE=
-----END CERTIFICATE-----
