Certificate:
    Data:
        Version: 3 (0x2)
        Serial Number: 268435580 (0x1000007c)
    Signature Algorithm: sha256WithRSAEncryption
        Issuer: CN=SRK2_sha256_2048_65537_v3_ca
        Validity
            Not Before: Mar  7 15:15:48 2018 GMT
            Not After : Mar  4 15:15:48 2028 GMT
        Subject: CN=CSF2_1_sha256_2048_65537_v3_usr
        Subject Public Key Info:
            Public Key Algorithm: rsaEncryption
                Public-Key: (2048 bit)
                Modulus:
                    00:c9:1f:59:9c:ea:3d:fb:93:68:b6:4a:67:de:dd:
                    bb:1a:64:76:f7:0a:24:c5:15:ca:0a:d5:66:0e:2a:
                    2d:1d:2a:d0:d8:32:33:05:1c:e8:7d:7a:5a:12:db:
                    79:35:1e:b9:db:23:ab:fb:e6:13:97:fe:e7:fe:55:
                    07:d2:8d:67:cb:93:e8:1d:5b:d8:50:96:51:6c:dd:
                    f5:32:d6:0f:6c:ab:99:29:d2:30:6b:45:70:bc:b6:
                    11:79:99:d6:1e:19:e3:2d:b9:dc:3f:96:02:71:b8:
                    d2:d1:46:0e:2c:ff:df:7a:05:3b:1c:bd:49:7c:2f:
                    a4:2b:5f:e9:8c:44:af:59:29:64:8d:1d:83:e2:8a:
                    6b:3f:05:2a:fd:4e:06:99:a1:8c:4d:78:d8:c1:d7:
                    9b:52:6c:ef:41:b0:b8:10:68:01:22:6c:6e:f6:50:
                    b0:72:e9:81:f3:dd:68:12:98:0b:bc:7f:59:ab:bc:
                    a4:57:81:a4:73:ae:f9:89:dc:78:05:ae:bc:bf:e6:
                    0b:68:ec:28:31:b9:34:0a:c2:48:93:5e:6c:ad:06:
                    72:24:b7:b8:51:be:b6:7e:52:44:06:27:78:74:05:
                    c4:f5:f3:35:fb:ff:ef:7b:e2:fc:d4:69:47:8e:e0:
                    eb:69:a7:f7:81:f3:df:7b:64:bf:13:e7:0d:38:01:
                    8b:5d
                Exponent: 65537 (0x10001)
        X509v3 extensions:
            X509v3 Basic Constraints: 
                CA:FALSE
            Netscape Comment: 
                OpenSSL Generated Certificate
            X509v3 Subject Key Identifier: 
                E6:FE:60:28:9A:0F:DC:7F:E5:E6:D0:F9:9B:28:89:E8:43:A3:F2:40
            X509v3 Authority Key Identifier: 
                keyid:B3:29:7A:64:B4:C6:C2:2D:AF:82:2F:F6:87:C7:2D:AD:87:16:A0:78

    Signature Algorithm: sha256WithRSAEncryption
         a2:ea:d9:93:59:55:f2:df:59:18:86:33:1e:07:5d:f1:27:0a:
         3d:2f:cb:36:66:ce:a2:39:bb:1d:86:64:f6:f1:7d:cd:8f:3f:
         b1:c9:d3:d0:39:47:57:cb:59:df:5e:e1:e7:22:f5:a9:01:3d:
         16:8f:97:ef:5e:91:07:a7:47:cd:23:3a:1c:6f:94:21:db:2b:
         74:35:a0:5a:1a:1e:3c:43:2d:20:c5:bb:fc:6a:b9:87:10:0a:
         69:24:c1:90:8a:90:4f:0a:ea:67:08:d2:8a:75:6e:7e:6e:a1:
         a6:76:40:02:df:f5:76:af:4f:2e:89:b5:47:1c:a4:fa:14:c5:
         8b:e7:90:3c:cf:ba:51:a2:eb:df:a2:64:bb:b7:7f:37:a5:5b:
         54:2c:78:90:13:ff:dc:03:79:78:be:85:24:a9:3f:18:60:60:
         82:dc:dc:fd:44:66:30:c1:49:7d:86:d1:1c:1c:7e:0b:ad:72:
         b3:b8:4e:b9:2e:c8:93:78:b1:78:8c:e5:b9:9b:93:0f:86:ef:
         e3:30:1b:92:5c:55:fa:a6:5b:dc:dd:d8:be:0d:5d:d6:2c:82:
         2f:20:6a:f4:b5:1c:b8:78:0d:3e:74:c4:17:4b:ef:97:25:a0:
         ce:ba:78:a8:6a:80:ef:5f:55:0a:6d:09:57:64:ae:4b:f7:2d:
         bb:cf:8e:55
-----BEGIN CERTIFICATE-----
MIIDSjCCAjKgAwIBAgIEEAAAfDANBgkqhkiG9w0BAQsFADAnMSUwIwYDVQQDDBxT
UksyX3NoYTI1Nl8yMDQ4XzY1NTM3X3YzX2NhMB4XDTE4MDMwNzE1MTU0OFoXDTI4
MDMwNDE1MTU0OFowKjEoMCYGA1UEAwwfQ1NGMl8xX3NoYTI1Nl8yMDQ4XzY1NTM3
X3YzX3VzcjCCASIwDQYJKoZIhvcNAQEBBQADggEPADCCAQoCggEBAMkfWZzqPfuT
aLZKZ97duxpkdvcKJMUVygrVZg4qLR0q0NgyMwUc6H16WhLbeTUeudsjq/vmE5f+
5/5VB9KNZ8uT6B1b2FCWUWzd9TLWD2yrmSnSMGtFcLy2EXmZ1h4Z4y253D+WAnG4
0tFGDiz/33oFOxy9SXwvpCtf6YxEr1kpZI0dg+KKaz8FKv1OBpmhjE142MHXm1Js
70GwuBBoASJsbvZQsHLpgfPdaBKYC7x/Wau8pFeBpHOu+YnceAWuvL/mC2jsKDG5
NArCSJNebK0GciS3uFG+tn5SRAYneHQFxPXzNfv/73vi/NRpR47g62mn94Hz33tk
vxPnDTgBi10CAwEAAaN7MHkwCQYDVR0TBAIwADAsBglghkgBhvhCAQ0EHxYdT3Bl
blNTTCBHZW5lcmF0ZWQgQ2VydGlmaWNhdGUwHQYDVR0OBBYEFOb+YCiaD9x/5ebQ
+ZsoiehDo/JAMB8GA1UdIwQYMBaAFLMpemS0xsItr4Iv9ofHLa2HFqB4MA0GCSqG
SIb3DQEBCwUAA4IBAQCi6tmTWVXy31kYhjMeB13xJwo9L8s2Zs6iObsdhmT28X3N
jz+xydPQOUdXy1nfXuHnIvWpAT0Wj5fvXpEHp0fNIzocb5Qh2yt0NaBaGh48Qy0g
xbv8armHEAppJMGQipBPCupnCNKKdW5+bqGmdkAC3/V2r08uibVHHKT6FMWL55A8
z7pRouvfomS7t383pVtULHiQE//cA3l4voUkqT8YYGCC3Nz9RGYwwUl9htEcHH4L
rXKzuE65LsiTeLF4jOW5m5MPhu/jMBuSXFX6plvc3di+DV3WLIIvIGr0tRy4eA0+
dMQXS++XJaDOunioaoDvX1UKbQlXZK5L9y27z45V
-----END CERTIFICATE-----
