Certificate:
    Data:
        Version: 3 (0x2)
        Serial Number: 268435586 (0x10000082)
    Signature Algorithm: sha256WithRSAEncryption
        Issuer: CN=SRK4_sha256_2048_65537_v3_ca
        Validity
            Not Before: Mar  7 15:15:49 2018 GMT
            Not After : Mar  4 15:15:49 2028 GMT
        Subject: CN=CSF4_1_sha256_2048_65537_v3_usr
        Subject Public Key Info:
            Public Key Algorithm: rsaEncryption
                Public-Key: (2048 bit)
                Modulus:
                    00:cc:e6:46:48:75:ba:9a:be:50:43:cc:09:83:fb:
                    52:18:14:39:4a:ad:d1:89:37:78:14:dd:83:55:fa:
                    d9:19:9c:f6:6f:94:72:b7:28:48:43:27:a4:c6:d9:
                    76:5e:46:0d:4c:fe:25:2d:d8:b8:86:07:35:db:2b:
                    57:3c:ef:cb:2a:7e:e3:12:86:88:66:b6:82:79:db:
                    0f:c3:dd:4e:fd:6d:a2:73:9c:f3:a7:ff:c1:4a:2c:
                    22:c2:34:29:21:3e:72:18:3d:00:23:93:a7:af:7e:
                    07:75:e6:3e:d5:3f:08:4d:25:ca:7f:e4:48:31:8b:
                    69:4d:08:c4:fa:d9:21:7d:ce:6f:5c:d1:d9:c0:42:
                    f8:8d:63:09:43:ff:9a:04:55:bc:f3:84:b3:63:08:
                    17:b4:41:fc:e1:e5:e7:e5:7c:a4:e6:d4:90:74:91:
                    27:2a:42:ab:15:28:7c:6e:47:0a:44:e4:17:8e:0f:
                    c0:59:a6:ba:4f:12:93:59:a5:d3:6c:20:13:19:f3:
                    ca:ab:e9:d7:c9:c3:7e:72:ab:58:16:5b:9c:d6:53:
                    e1:6c:68:57:33:68:5b:41:6c:3e:0b:82:ee:6e:e4:
                    ec:cf:bc:de:b6:1a:29:c3:d2:d1:05:ad:4c:8d:f9:
                    c2:5b:d0:58:91:1c:cc:f5:ba:6f:b3:ce:8e:4c:8b:
                    ae:01
                Exponent: 65537 (0x10001)
        X509v3 extensions:
            X509v3 Basic Constraints: 
                CA:FALSE
            Netscape Comment: 
                OpenSSL Generated Certificate
            X509v3 Subject Key Identifier: 
                F8:3C:CB:94:54:9A:0E:BB:1B:3D:C4:E9:13:E8:C8:48:4B:A1:50:32
            X509v3 Authority Key Identifier: 
                keyid:B7:BC:B3:A1:15:FD:54:13:E8:8A:61:D8:96:C2:2A:8D:B2:0F:15:E3

    Signature Algorithm: sha256WithRSAEncryption
         16:22:2c:5a:dd:dc:86:3f:60:76:22:ba:c7:c1:d9:37:cb:4c:
         5c:56:e7:5a:8b:ac:50:86:0d:2a:3a:d0:d0:b0:26:04:48:32:
         17:ca:5e:5a:41:23:3b:7f:38:2c:04:7a:54:82:b9:54:81:fb:
         99:39:06:94:5d:d2:b1:e2:59:76:bf:ad:f0:65:78:78:f8:9e:
         44:bd:c0:25:8f:32:5d:3c:62:e3:20:87:8c:cb:3d:f0:bf:86:
         b7:8d:12:16:45:16:a9:81:af:de:45:2d:e6:74:d3:26:4b:93:
         e7:eb:1f:8c:a9:8a:4e:77:48:b4:1b:e0:3e:cf:e6:aa:5b:84:
         71:0b:4d:da:e2:63:1a:a2:ab:32:28:7e:3b:bf:98:29:34:13:
         8c:a7:eb:55:5f:ea:eb:33:20:d4:2f:a4:27:0c:70:b7:2d:a8:
         70:da:ac:6d:8d:3b:94:a0:36:18:d9:c6:8c:be:d1:d7:b3:ee:
         9d:a7:3d:f7:5b:9e:a8:54:cc:0f:2f:9f:60:6c:9c:c1:38:f4:
         5a:9a:44:c8:18:ba:0e:bf:f8:d3:d4:44:26:a1:6e:27:9b:69:
         0c:77:9e:22:cf:7e:10:b5:56:3f:7e:08:c0:20:58:55:42:2a:
         fc:07:1c:39:ab:83:1c:11:28:91:45:2b:a7:01:8e:d2:2f:e4:
         41:a0:7d:57
-----BEGIN CERTIFICATE-----
MIIDSjCCAjKgAwIBAgIEEAAAgjANBgkqhkiG9w0BAQsFADAnMSUwIwYDVQQDDBxT
Uks0X3NoYTI1Nl8yMDQ4XzY1NTM3X3YzX2NhMB4XDTE4MDMwNzE1MTU0OVoXDTI4
MDMwNDE1MTU0OVowKjEoMCYGA1UEAwwfQ1NGNF8xX3NoYTI1Nl8yMDQ4XzY1NTM3
X3YzX3VzcjCCASIwDQYJKoZIhvcNAQEBBQADggEPADCCAQoCggEBAMzmRkh1upq+
UEPMCYP7UhgUOUqt0Yk3eBTdg1X62Rmc9m+UcrcoSEMnpMbZdl5GDUz+JS3YuIYH
NdsrVzzvyyp+4xKGiGa2gnnbD8PdTv1tonOc86f/wUosIsI0KSE+chg9ACOTp69+
B3XmPtU/CE0lyn/kSDGLaU0IxPrZIX3Ob1zR2cBC+I1jCUP/mgRVvPOEs2MIF7RB
/OHl5+V8pObUkHSRJypCqxUofG5HCkTkF44PwFmmuk8Sk1ml02wgExnzyqvp18nD
fnKrWBZbnNZT4WxoVzNoW0FsPguC7m7k7M+83rYaKcPS0QWtTI35wlvQWJEczPW6
b7POjkyLrgECAwEAAaN7MHkwCQYDVR0TBAIwADAsBglghkgBhvhCAQ0EHxYdT3Bl
blNTTCBHZW5lcmF0ZWQgQ2VydGlmaWNhdGUwHQYDVR0OBBYEFPg8y5RUmg67Gz3E
6RPoyEhLoVAyMB8GA1UdIwQYMBaAFLe8s6EV/VQT6Iph2JbCKo2yDxXjMA0GCSqG
SIb3DQEBCwUAA4IBAQAWIixa3dyGP2B2IrrHwdk3y0xcVudai6xQhg0qOtDQsCYE
SDIXyl5aQSM7fzgsBHpUgrlUgfuZOQaUXdKx4ll2v63wZXh4+J5EvcAljzJdPGLj
IIeMyz3wv4a3jRIWRRapga/eRS3mdNMmS5Pn6x+MqYpOd0i0G+A+z+aqW4RxC03a
4mMaoqsyKH47v5gpNBOMp+tVX+rrMyDUL6QnDHC3Lahw2qxtjTuUoDYY2caMvtHX
s+6dpz33W56oVMwPL59gbJzBOPRamkTIGLoOv/jT1EQmoW4nm2kMd54iz34QtVY/
fgjAIFhVQir8Bxw5q4McESiRRSunAY7SL+RBoH1X
-----END CERTIFICATE-----
