Certificate:
    Data:
        Version: 3 (0x2)
        Serial Number: 268435587 (0x10000083)
    Signature Algorithm: sha256WithRSAEncryption
        Issuer: CN=SRK4_sha256_2048_65537_v3_ca
        Validity
            Not Before: Mar  7 15:15:49 2018 GMT
            Not After : Mar  4 15:15:49 2028 GMT
        Subject: CN=IMG4_1_sha256_2048_65537_v3_usr
        Subject Public Key Info:
            Public Key Algorithm: rsaEncryption
                Public-Key: (2048 bit)
                Modulus:
                    00:ac:aa:0a:12:c0:f8:9f:2a:59:41:f6:5d:b6:8a:
                    52:f6:77:0b:38:11:5b:b6:c9:c5:40:3e:53:93:88:
                    2d:85:17:7d:a4:2c:06:dc:17:a0:b4:a1:10:a8:f9:
                    93:28:7e:90:d5:8c:24:c7:fb:1b:89:0d:b5:cd:c1:
                    47:47:50:a8:8e:8f:1b:58:7e:ac:e3:e1:70:75:d8:
                    c1:18:66:5a:cc:e5:71:e1:4a:55:88:94:4d:69:2f:
                    66:47:05:cc:c2:00:4b:dd:37:af:6b:9d:05:97:13:
                    df:a5:9f:f9:e2:da:3d:d0:ce:48:04:33:63:ed:ae:
                    ed:31:ca:11:9f:25:ec:59:a8:a3:fe:1c:cf:35:21:
                    16:6d:c5:c7:ef:44:2a:86:76:0c:1f:67:dc:5b:b7:
                    3d:4c:a5:32:53:f8:85:b8:b7:08:fa:af:1e:6e:1b:
                    91:65:4f:47:1e:31:a1:d6:72:8f:b0:0b:5d:b3:9a:
                    c2:bc:24:bd:dc:1c:03:ce:24:52:27:b9:e4:0a:02:
                    4e:ba:b6:c5:7e:07:1d:23:a0:e2:26:3e:f5:5b:70:
                    43:bf:13:80:0f:bc:04:06:65:99:ac:f1:fc:69:c5:
                    24:a1:40:a6:38:c7:e4:18:ae:7a:2c:a0:85:ce:86:
                    70:b9:68:2e:1e:67:cc:fa:25:17:2b:57:af:7c:3c:
                    30:f7
                Exponent: 65537 (0x10001)
        X509v3 extensions:
            X509v3 Basic Constraints: 
                CA:FALSE
            Netscape Comment: 
                OpenSSL Generated Certificate
            X509v3 Subject Key Identifier: 
                45:CD:59:92:55:37:64:DA:72:D6:EA:86:D5:E9:FA:9B:79:B9:01:4B
            X509v3 Authority Key Identifier: 
                keyid:B7:BC:B3:A1:15:FD:54:13:E8:8A:61:D8:96:C2:2A:8D:B2:0F:15:E3

    Signature Algorithm: sha256WithRSAEncryption
         8d:d5:35:82:da:0e:4f:45:8b:d3:a5:da:d3:49:fc:6f:7c:da:
         50:73:ef:c2:b6:f7:9e:82:89:5a:67:92:5e:4a:20:3c:57:bd:
         b3:9b:d0:8d:d9:e4:5d:73:81:6d:cd:c1:70:4e:eb:bc:98:24:
         29:7b:82:6f:fa:72:15:ea:93:98:ad:e8:79:df:a8:2e:7f:14:
         98:c5:7f:b0:4b:06:18:34:40:7f:7f:80:9a:24:d6:86:61:dd:
         29:27:cb:c9:ee:fb:7f:f8:90:5d:b5:c5:05:48:e7:4d:de:c8:
         37:a8:06:cf:0d:9b:1f:99:a5:4e:87:2d:18:00:bb:91:cd:bf:
         48:46:cb:85:05:56:be:67:50:ea:e8:8a:61:a0:2b:26:eb:06:
         64:23:dd:1d:ca:91:90:e6:38:0a:cc:44:08:ca:6d:1d:e5:10:
         14:d5:1f:91:67:1c:15:61:e9:07:b5:f8:07:75:22:07:2b:78:
         9b:91:7d:b8:bb:bb:17:38:e9:04:93:b3:6c:af:9e:6f:df:5b:
         ce:07:76:39:39:8a:e1:83:cc:63:5f:c4:87:48:ee:85:73:5c:
         c1:78:6b:be:7d:95:e5:43:f9:16:64:96:3d:1f:67:15:74:08:
         61:ee:a2:93:2b:49:cc:c5:59:ba:16:21:2d:f1:18:9e:38:90:
         6e:e4:09:bc
-----BEGIN CERTIFICATE-----
MIIDSjCCAjKgAwIBAgIEEAAAgzANBgkqhkiG9w0BAQsFADAnMSUwIwYDVQQDDBxT
Uks0X3NoYTI1Nl8yMDQ4XzY1NTM3X3YzX2NhMB4XDTE4MDMwNzE1MTU0OVoXDTI4
MDMwNDE1MTU0OVowKjEoMCYGA1UEAwwfSU1HNF8xX3NoYTI1Nl8yMDQ4XzY1NTM3
X3YzX3VzcjCCASIwDQYJKoZIhvcNAQEBBQADggEPADCCAQoCggEBAKyqChLA+J8q
WUH2XbaKUvZ3CzgRW7bJxUA+U5OILYUXfaQsBtwXoLShEKj5kyh+kNWMJMf7G4kN
tc3BR0dQqI6PG1h+rOPhcHXYwRhmWszlceFKVYiUTWkvZkcFzMIAS903r2udBZcT
36Wf+eLaPdDOSAQzY+2u7THKEZ8l7Fmoo/4czzUhFm3Fx+9EKoZ2DB9n3Fu3PUyl
MlP4hbi3CPqvHm4bkWVPRx4xodZyj7ALXbOawrwkvdwcA84kUie55AoCTrq2xX4H
HSOg4iY+9VtwQ78TgA+8BAZlmazx/GnFJKFApjjH5Biueiyghc6GcLloLh5nzPol
FytXr3w8MPcCAwEAAaN7MHkwCQYDVR0TBAIwADAsBglghkgBhvhCAQ0EHxYdT3Bl
blNTTCBHZW5lcmF0ZWQgQ2VydGlmaWNhdGUwHQYDVR0OBBYEFEXNWZJVN2Tactbq
htXp+pt5uQFLMB8GA1UdIwQYMBaAFLe8s6EV/VQT6Iph2JbCKo2yDxXjMA0GCSqG
SIb3DQEBCwUAA4IBAQCN1TWC2g5PRYvTpdrTSfxvfNpQc+/CtveegolaZ5JeSiA8
V72zm9CN2eRdc4FtzcFwTuu8mCQpe4Jv+nIV6pOYreh536gufxSYxX+wSwYYNEB/
f4CaJNaGYd0pJ8vJ7vt/+JBdtcUFSOdN3sg3qAbPDZsfmaVOhy0YALuRzb9IRsuF
BVa+Z1Dq6IphoCsm6wZkI90dypGQ5jgKzEQIym0d5RAU1R+RZxwVYekHtfgHdSIH
K3ibkX24u7sXOOkEk7Nsr55v31vOB3Y5OYrhg8xjX8SHSO6Fc1zBeGu+fZXlQ/kW
ZJY9H2cVdAhh7qKTK0nMxVm6FiEt8RieOJBu5Am8
-----END CERTIFICATE-----
