Certificate:
    Data:
        Version: 3 (0x2)
        Serial Number: 268435594 (0x1000008a)
    Signature Algorithm: sha256WithRSAEncryption
        Issuer: CN=CA1_sha256_4096_65537_v3_ca
        Validity
            Not Before: Mar  7 15:15:54 2018 GMT
            Not After : Mar  4 15:15:54 2028 GMT
        Subject: CN=SRK3_sha256_4096_65537_v3_ca
        Subject Public Key Info:
            Public Key Algorithm: rsaEncryption
                Public-Key: (4096 bit)
                Modulus:
                    00:d5:d2:79:3c:09:77:28:8e:2d:d3:35:d3:a6:dc:
                    da:b3:45:ee:25:a3:6c:01:18:66:e1:ce:f8:39:ed:
                    c8:fc:fa:24:0f:27:2c:79:14:22:41:c6:e7:6c:82:
                    a3:9f:52:6d:d7:b9:7f:00:a1:08:b4:a6:c9:f0:b7:
                    f2:b4:80:b6:78:c9:fc:b8:69:3a:8c:58:90:91:7f:
                    76:1b:4c:48:2c:7f:4b:c4:24:04:73:65:2f:66:f5:
                    df:00:06:0d:d6:43:24:4f:1a:5b:54:a7:1e:0f:a6:
                    9e:1e:9d:84:1b:6f:f3:46:d6:84:4f:83:d7:ca:98:
                    95:51:3b:66:76:d1:00:3c:83:0b:08:d6:4d:78:3e:
                    0e:38:3e:22:5d:33:61:09:c5:ff:88:a5:21:fd:cf:
                    6e:c8:d5:81:3a:17:8f:a8:01:01:c1:13:d4:a3:35:
                    2e:6c:2e:b6:12:fc:35:ab:b4:b6:46:81:ac:01:67:
                    f3:02:0e:8a:3d:9c:de:9c:ba:40:2e:d3:b0:5d:4e:
                    66:4f:fa:9c:48:a9:0b:96:cb:d8:da:57:8e:d7:89:
                    ca:f5:6b:86:6e:24:26:2f:22:18:d1:26:1a:44:d2:
                    c4:c9:2c:a3:cb:99:0d:b1:e9:86:e2:32:34:7c:89:
                    26:63:07:ac:61:d2:80:83:cc:37:d9:e4:eb:d9:ee:
                    8a:12:af:47:a7:e0:13:08:5a:0f:61:f3:a2:a5:c0:
                    20:63:78:6f:86:20:e1:53:df:71:27:9c:8b:73:af:
                    9f:8b:45:11:f3:05:f7:a2:cc:08:18:5a:c8:9c:1d:
                    ec:e4:b2:21:d5:7c:6f:4e:1d:22:84:51:4c:b4:2f:
                    83:00:b0:74:67:bb:d1:01:52:70:6a:9f:1c:d4:34:
                    c8:38:ed:3e:1c:52:81:70:57:71:5f:dd:97:7f:45:
                    a9:be:bc:e2:6b:65:ab:c1:20:61:ec:b0:03:a9:c7:
                    10:af:a8:24:8f:be:df:58:c4:36:6c:75:c4:10:ff:
                    15:51:4b:74:42:5b:85:96:5e:83:76:b0:be:e7:30:
                    b0:28:55:5b:fa:01:65:f6:eb:c8:d1:d2:9c:0c:99:
                    25:ed:bb:10:17:2c:05:dd:ec:62:4f:f1:b2:9e:9b:
                    76:3d:5d:b0:0a:80:d1:df:d3:5b:b9:a2:11:56:5b:
                    3a:80:04:20:bb:e7:22:4b:15:f9:aa:35:70:04:81:
                    8d:0d:8c:c9:ee:87:5c:0d:d1:15:50:01:79:fd:89:
                    d9:86:1d:fa:ea:28:ee:b6:80:67:73:2c:8c:57:ad:
                    5c:56:03:dd:7f:6a:74:59:3b:ab:73:b4:a7:fe:91:
                    6d:f6:5f:9e:25:48:9e:37:1d:75:a2:c5:7f:7c:93:
                    15:a9:59
                Exponent: 65537 (0x10001)
        X509v3 extensions:
            X509v3 Subject Key Identifier: 
                92:8F:8A:F9:B2:A9:87:07:C0:7E:35:6E:48:7A:54:38:BB:A8:95:59
            X509v3 Authority Key Identifier: 
                keyid:F9:E9:2F:6D:FF:1D:64:79:FC:99:80:BA:F4:2D:2C:6E:EE:36:EA:E2
                DirName:/CN=CA1_sha256_4096_65537_v3_ca
                serial:DD:F5:74:39:CD:DB:69:6B

            X509v3 Basic Constraints: critical
                CA:TRUE
            X509v3 Key Usage: 
                Certificate Sign
    Signature Algorithm: sha256WithRSAEncryption
         36:76:d9:f7:10:e7:32:33:37:25:d7:f8:63:7c:ae:75:fa:a1:
         ab:27:ab:25:d4:af:c3:77:b1:aa:0b:97:15:ab:90:52:63:06:
         b9:db:2b:00:3c:19:cf:dd:ea:4d:dd:10:78:a9:c0:f4:5a:a6:
         b2:cb:01:18:25:6e:df:73:57:28:75:4a:dc:60:95:78:45:c7:
         b6:df:02:a7:ef:c4:7e:65:0d:43:da:51:d1:fe:d3:2a:7e:6f:
         f4:f5:70:f1:07:36:68:07:93:28:9b:72:c8:4d:74:2b:ff:c5:
         cf:19:93:5e:d2:a6:a7:52:00:99:68:78:ce:bb:5f:68:d6:3c:
         b1:4c:04:2c:f8:af:ff:72:e5:17:07:49:90:79:2e:a3:cb:94:
         68:e3:1a:e8:64:7a:bd:8e:73:7e:18:3e:45:a6:fa:d4:1d:98:
         c2:3b:a2:98:b0:72:8b:a2:44:a0:60:df:22:da:6b:95:01:aa:
         92:eb:8e:9f:97:db:af:60:70:f7:2d:34:77:66:aa:56:19:07:
         3b:fe:71:32:d1:4d:23:27:47:1d:c9:7a:b0:0f:9f:96:7a:d3:
         cc:3e:a1:09:79:45:bb:c3:fd:c2:b6:1d:90:e3:18:54:27:cb:
         33:7d:4a:eb:fc:1d:fd:0d:f1:f0:d5:76:d1:d6:30:52:87:64:
         94:6e:d9:ae:4a:45:66:8e:17:8e:ba:d5:e9:0c:fe:aa:d9:2e:
         ec:49:2f:e2:76:d8:0b:dd:5b:59:57:3e:ad:89:55:98:32:09:
         0b:18:bf:58:63:e9:44:a9:5c:f3:56:64:9d:74:78:d1:59:1a:
         69:f1:a1:c3:f0:69:26:c0:ba:b6:d2:82:0a:ac:b2:53:de:cb:
         75:a0:95:e6:eb:91:1e:96:69:00:8f:14:b9:bd:62:04:d1:98:
         b2:79:be:98:5a:65:eb:70:01:a8:dd:03:57:63:cd:66:a5:74:
         18:51:f3:d6:e1:a7:96:55:83:01:3c:96:24:69:8a:04:01:bd:
         5f:d0:b8:62:61:69:25:56:6c:49:a4:8a:77:d0:cf:9f:ea:0b:
         e2:df:5f:cd:35:78:19:bf:86:ae:31:2d:65:22:50:4f:f5:fb:
         0b:c7:cd:4b:b3:59:28:2a:04:11:e3:49:e0:d5:d4:01:c2:87:
         21:9e:bf:2e:e3:7f:17:13:37:09:04:e3:b7:91:52:96:39:f5:
         42:f6:be:cf:7a:8d:41:a6:45:40:0e:52:ce:b3:51:de:75:45:
         62:75:4d:91:20:b9:4b:0f:99:5c:9a:c1:ac:17:0e:81:5f:48:
         6d:36:12:76:56:05:73:be:98:de:7f:10:74:95:57:de:89:64:
         9e:74:ac:6f:55:8b:d8:f7
-----BEGIN CERTIFICATE-----
MIIFZDCCA0ygAwIBAgIEEAAAijANBgkqhkiG9w0BAQsFADAmMSQwIgYDVQQDFBtD
QTFfc2hhMjU2XzQwOTZfNjU1MzdfdjNfY2EwHhcNMTgwMzA3MTUxNTU0WhcNMjgw
MzA0MTUxNTU0WjAnMSUwIwYDVQQDDBxTUkszX3NoYTI1Nl80MDk2XzY1NTM3X3Yz
X2NhMIICIjANBgkqhkiG9w0BAQEFAAOCAg8AMIICCgKCAgEA1dJ5PAl3KI4t0zXT
ptzas0XuJaNsARhm4c74Oe3I/PokDycseRQiQcbnbIKjn1Jt17l/AKEItKbJ8Lfy
tIC2eMn8uGk6jFiQkX92G0xILH9LxCQEc2UvZvXfAAYN1kMkTxpbVKceD6aeHp2E
G2/zRtaET4PXypiVUTtmdtEAPIMLCNZNeD4OOD4iXTNhCcX/iKUh/c9uyNWBOheP
qAEBwRPUozUubC62Evw1q7S2RoGsAWfzAg6KPZzenLpALtOwXU5mT/qcSKkLlsvY
2leO14nK9WuGbiQmLyIY0SYaRNLEySyjy5kNsemG4jI0fIkmYwesYdKAg8w32eTr
2e6KEq9Hp+ATCFoPYfOipcAgY3hvhiDhU99xJ5yLc6+fi0UR8wX3oswIGFrInB3s
5LIh1XxvTh0ihFFMtC+DALB0Z7vRAVJwap8c1DTIOO0+HFKBcFdxX92Xf0Wpvrzi
a2WrwSBh7LADqccQr6gkj77fWMQ2bHXEEP8VUUt0QluFll6DdrC+5zCwKFVb+gFl
9uvI0dKcDJkl7bsQFywF3exiT/Gynpt2PV2wCoDR39NbuaIRVls6gAQgu+ciSxX5
qjVwBIGNDYzJ7odcDdEVUAF5/YnZhh366ijutoBncyyMV61cVgPdf2p0WTurc7Sn
/pFt9l+eJUieNx11osV/fJMVqVkCAwEAAaOBmDCBlTAdBgNVHQ4EFgQUko+K+bKp
hwfAfjVuSHpUOLuolVkwVgYDVR0jBE8wTYAU+ekvbf8dZHn8mYC69C0sbu426uKh
KqQoMCYxJDAiBgNVBAMUG0NBMV9zaGEyNTZfNDA5Nl82NTUzN192M19jYYIJAN31
dDnN22lrMA8GA1UdEwEB/wQFMAMBAf8wCwYDVR0PBAQDAgIEMA0GCSqGSIb3DQEB
CwUAA4ICAQA2dtn3EOcyMzcl1/hjfK51+qGrJ6sl1K/Dd7GqC5cVq5BSYwa52ysA
PBnP3epN3RB4qcD0WqayywEYJW7fc1codUrcYJV4Rce23wKn78R+ZQ1D2lHR/tMq
fm/09XDxBzZoB5Mom3LITXQr/8XPGZNe0qanUgCZaHjOu19o1jyxTAQs+K//cuUX
B0mQeS6jy5Ro4xroZHq9jnN+GD5FpvrUHZjCO6KYsHKLokSgYN8i2muVAaqS646f
l9uvYHD3LTR3ZqpWGQc7/nEy0U0jJ0cdyXqwD5+WetPMPqEJeUW7w/3Cth2Q4xhU
J8szfUrr/B39DfHw1XbR1jBSh2SUbtmuSkVmjheOutXpDP6q2S7sSS/idtgL3VtZ
Vz6tiVWYMgkLGL9YY+lEqVzzVmSddHjRWRpp8aHD8GkmwLq20oIKrLJT3st1oJXm
65EelmkAjxS5vWIE0Ziyeb6YWmXrcAGo3QNXY81mpXQYUfPW4aeWVYMBPJYkaYoE
Ab1f0LhiYWklVmxJpIp30M+f6gvi31/NNXgZv4auMS1lIlBP9fsLx81Ls1koKgQR
40ng1dQBwochnr8u438XEzcJBOO3kVKWOfVC9r7Peo1BpkVADlLOs1HedUVidU2R
ILlLD5lcmsGsFw6BX0htNhJ2VgVzvpjefxB0lVfeiWSedKxvVYvY9w==
-----END CERTIFICATE-----
