Certificate:
    Data:
        Version: 3 (0x2)
        Serial Number: 268435597 (0x1000008d)
    Signature Algorithm: sha256WithRSAEncryption
        Issuer: CN=CA1_sha256_4096_65537_v3_ca
        Validity
            Not Before: Mar  7 15:15:55 2018 GMT
            Not After : Mar  4 15:15:55 2028 GMT
        Subject: CN=SRK4_sha256_4096_65537_v3_ca
        Subject Public Key Info:
            Public Key Algorithm: rsaEncryption
                Public-Key: (4096 bit)
                Modulus:
                    00:e1:0c:ac:1d:de:c8:05:f5:1c:80:37:fd:35:ae:
                    4b:84:1c:7d:d7:17:f3:37:5a:e8:67:e1:3f:3a:6f:
                    2c:cb:56:1a:10:92:d5:b7:f4:22:91:a3:c8:14:fa:
                    e0:cc:d5:2c:db:70:7d:96:76:3d:46:fd:82:76:2f:
                    48:d0:8a:00:be:46:55:af:b2:f9:f7:f2:eb:6e:40:
                    e9:12:c1:ab:62:95:ef:4e:73:11:44:61:cb:4e:2b:
                    a3:60:91:4a:3d:b7:c3:62:6f:29:ba:d7:d1:e4:65:
                    2c:4a:d5:de:88:78:d4:f3:4b:4c:d0:b4:2a:c1:97:
                    29:22:c3:e9:ab:01:0e:09:ee:03:b5:98:0c:31:ed:
                    3d:c1:43:51:a6:80:7c:11:fa:15:56:ee:d7:75:c4:
                    ec:bc:b5:85:4e:7f:a9:11:be:f9:0e:ac:a4:37:45:
                    a2:8b:79:b0:26:e7:71:6e:b0:d0:96:00:16:b6:60:
                    e5:96:cd:0c:c0:d8:74:c1:06:03:a1:3d:c1:97:75:
                    0a:5b:8c:2a:21:1d:e4:d4:21:dd:dc:0c:dc:0c:0b:
                    37:4a:f6:85:5d:cb:b6:76:f2:68:b6:d0:26:18:c4:
                    6c:bb:61:45:c8:71:33:9e:a5:e0:b3:6c:58:a9:90:
                    f8:f0:c4:c0:d2:86:e7:62:f9:5e:50:08:2d:fc:f0:
                    2a:ad:c4:a7:8a:5c:b5:24:4c:ec:b9:5f:58:df:6b:
                    02:64:a7:b4:13:7d:6f:db:76:ed:d0:4c:5d:7e:6a:
                    b7:b3:0b:d7:2f:cf:37:36:29:8d:5a:7a:97:bd:d7:
                    2b:fe:08:1e:22:64:f8:f1:94:47:51:fb:48:10:60:
                    26:b2:5e:e6:f8:a0:e2:89:cb:04:29:2f:6b:4b:19:
                    ce:40:7d:a0:11:64:5b:47:03:bb:35:f9:2d:3b:2a:
                    92:b5:0f:5d:f5:eb:85:03:0c:3b:98:73:41:76:da:
                    26:14:5d:ce:72:80:8f:a6:c0:50:c2:f2:a6:29:be:
                    c2:aa:6c:62:6a:c0:3d:b2:41:d5:66:29:ff:09:5f:
                    17:19:23:29:e1:0c:8c:2d:2d:06:69:b2:e5:88:30:
                    51:a6:9f:17:fb:f3:21:ac:ba:0f:86:4f:b8:02:b5:
                    51:dd:7a:ef:bb:e0:a6:6a:3c:06:e8:ce:51:73:61:
                    53:01:c6:61:93:f6:81:5c:b8:d7:15:d1:cd:c7:cf:
                    d8:b8:1e:88:a8:dd:62:26:63:83:8a:a4:f1:96:6d:
                    59:c2:00:b8:b1:db:fe:37:f0:1d:c7:d7:a5:fe:6e:
                    3d:27:b8:c2:b1:16:59:e5:17:0f:5a:f4:0f:5a:08:
                    f2:18:c9:5c:35:6e:2c:4e:aa:48:4f:f6:b6:3e:49:
                    d8:7a:57
                Exponent: 65537 (0x10001)
        X509v3 extensions:
            X509v3 Subject Key Identifier: 
                D0:C7:3C:ED:1A:79:37:15:CA:A7:EB:43:16:8E:8D:B7:78:5C:11:00
            X509v3 Authority Key Identifier: 
                keyid:F9:E9:2F:6D:FF:1D:64:79:FC:99:80:BA:F4:2D:2C:6E:EE:36:EA:E2
                DirName:/CN=CA1_sha256_4096_65537_v3_ca
                serial:DD:F5:74:39:CD:DB:69:6B

            X509v3 Basic Constraints: critical
                CA:TRUE
            X509v3 Key Usage: 
                Certificate Sign
    Signature Algorithm: sha256WithRSAEncryption
         22:51:84:02:80:e3:33:32:7f:cf:c2:21:71:bd:6e:cf:f8:d2:
         9c:27:1f:a4:54:8a:5e:81:86:08:9f:f6:e2:4c:5c:4c:3e:62:
         e8:59:63:42:f6:03:07:e7:f5:d9:bd:91:7e:80:03:a5:22:5e:
         26:28:d2:be:f2:f9:3c:ff:02:1b:ea:67:f9:91:49:52:2c:c7:
         14:16:7c:1e:14:e9:48:31:33:84:dc:f4:b7:06:89:81:54:e6:
         b7:4c:cf:c0:8c:e4:2a:ef:c3:39:3f:28:df:bf:2d:a1:13:71:
         ac:ee:a0:88:e6:b9:b8:59:54:5c:e4:3e:1a:0d:c3:db:29:e3:
         85:af:4e:0a:fa:a7:d6:98:0e:45:b3:57:02:11:48:45:3b:0b:
         57:c3:c4:df:4e:7e:a2:35:d5:e1:40:20:68:53:a8:d7:25:21:
         99:5d:c0:be:6d:90:73:46:c2:03:bc:a5:29:34:76:c5:9c:fe:
         1e:47:ad:3a:1a:0e:cd:16:60:9a:9b:2b:c0:3c:ef:77:05:08:
         8b:e8:69:5e:73:22:34:b0:2f:c2:66:bb:10:be:52:70:1c:54:
         b9:b7:b2:59:f5:db:0c:12:98:31:1a:77:df:cc:47:52:50:65:
         4a:b3:6d:d0:92:ea:27:02:b9:7f:ca:d6:b4:c3:b5:72:65:a7:
         3d:dd:ea:b9:0e:a5:a8:12:54:bb:3b:4e:02:00:43:17:4e:7a:
         ff:e9:13:c3:ea:21:9d:8f:52:82:ab:e1:eb:80:b7:15:a8:28:
         09:40:f2:f7:08:b4:76:4d:50:74:1c:8a:89:d0:10:72:99:c3:
         a7:13:c2:e6:e5:18:7c:5e:c3:5a:6f:22:e0:41:79:a6:a3:a9:
         40:f8:1e:ab:22:00:0c:4d:f6:eb:b2:13:45:6d:7c:f8:93:69:
         2f:aa:17:b0:96:04:7f:10:cc:60:a4:49:85:4e:dc:01:8f:07:
         d4:49:3c:90:c6:0b:10:74:9e:86:10:a0:d0:5e:3a:02:b2:8f:
         7c:51:45:9f:76:e4:8f:9d:24:ee:fa:15:14:d4:3c:e4:16:d1:
         13:4f:34:22:6d:e2:a0:f6:4e:55:af:2d:41:17:43:a5:78:91:
         79:a2:c8:a2:b3:55:8e:51:51:f7:1b:c4:c9:52:62:4d:98:53:
         0c:5a:19:f5:a1:ff:28:30:0c:9d:75:22:c1:5c:24:a8:81:3e:
         4d:88:7f:1f:ea:f6:f3:5c:b7:ab:7a:c2:8d:69:f8:2d:71:b0:
         d9:8d:dd:1c:1b:64:9d:bb:ed:0a:aa:2a:3d:0c:9d:d6:6d:2f:
         a2:37:2d:78:1d:f8:d9:34:7f:33:bf:39:46:01:1f:43:bf:0b:
         a9:d9:12:0c:c7:06:46:cc
-----BEGIN CERTIFICATE-----
MIIFZDCCA0ygAwIBAgIEEAAAjTANBgkqhkiG9w0BAQsFADAmMSQwIgYDVQQDFBtD
QTFfc2hhMjU2XzQwOTZfNjU1MzdfdjNfY2EwHhcNMTgwMzA3MTUxNTU1WhcNMjgw
MzA0MTUxNTU1WjAnMSUwIwYDVQQDDBxTUks0X3NoYTI1Nl80MDk2XzY1NTM3X3Yz
X2NhMIICIjANBgkqhkiG9w0BAQEFAAOCAg8AMIICCgKCAgEA4QysHd7IBfUcgDf9
Na5LhBx91xfzN1roZ+E/Om8sy1YaEJLVt/QikaPIFPrgzNUs23B9lnY9Rv2Cdi9I
0IoAvkZVr7L59/LrbkDpEsGrYpXvTnMRRGHLTiujYJFKPbfDYm8putfR5GUsStXe
iHjU80tM0LQqwZcpIsPpqwEOCe4DtZgMMe09wUNRpoB8EfoVVu7XdcTsvLWFTn+p
Eb75DqykN0Wii3mwJudxbrDQlgAWtmDlls0MwNh0wQYDoT3Bl3UKW4wqIR3k1CHd
3AzcDAs3SvaFXcu2dvJottAmGMRsu2FFyHEznqXgs2xYqZD48MTA0obnYvleUAgt
/PAqrcSnily1JEzsuV9Y32sCZKe0E31v23bt0Exdfmq3swvXL883NimNWnqXvdcr
/ggeImT48ZRHUftIEGAmsl7m+KDiicsEKS9rSxnOQH2gEWRbRwO7NfktOyqStQ9d
9euFAww7mHNBdtomFF3OcoCPpsBQwvKmKb7CqmxiasA9skHVZin/CV8XGSMp4QyM
LS0GabLliDBRpp8X+/MhrLoPhk+4ArVR3Xrvu+CmajwG6M5Rc2FTAcZhk/aBXLjX
FdHNx8/YuB6IqN1iJmODiqTxlm1ZwgC4sdv+N/Adx9el/m49J7jCsRZZ5RcPWvQP
WgjyGMlcNW4sTqpIT/a2PknYelcCAwEAAaOBmDCBlTAdBgNVHQ4EFgQU0Mc87Rp5
NxXKp+tDFo6Nt3hcEQAwVgYDVR0jBE8wTYAU+ekvbf8dZHn8mYC69C0sbu426uKh
KqQoMCYxJDAiBgNVBAMUG0NBMV9zaGEyNTZfNDA5Nl82NTUzN192M19jYYIJAN31
dDnN22lrMA8GA1UdEwEB/wQFMAMBAf8wCwYDVR0PBAQDAgIEMA0GCSqGSIb3DQEB
CwUAA4ICAQAiUYQCgOMzMn/PwiFxvW7P+NKcJx+kVIpegYYIn/biTFxMPmLoWWNC
9gMH5/XZvZF+gAOlIl4mKNK+8vk8/wIb6mf5kUlSLMcUFnweFOlIMTOE3PS3BomB
VOa3TM/AjOQq78M5Pyjfvy2hE3Gs7qCI5rm4WVRc5D4aDcPbKeOFr04K+qfWmA5F
s1cCEUhFOwtXw8TfTn6iNdXhQCBoU6jXJSGZXcC+bZBzRsIDvKUpNHbFnP4eR606
Gg7NFmCamyvAPO93BQiL6GlecyI0sC/CZrsQvlJwHFS5t7JZ9dsMEpgxGnffzEdS
UGVKs23QkuonArl/yta0w7VyZac93eq5DqWoElS7O04CAEMXTnr/6RPD6iGdj1KC
q+HrgLcVqCgJQPL3CLR2TVB0HIqJ0BBymcOnE8Lm5Rh8XsNabyLgQXmmo6lA+B6r
IgAMTfbrshNFbXz4k2kvqhewlgR/EMxgpEmFTtwBjwfUSTyQxgsQdJ6GEKDQXjoC
so98UUWfduSPnSTu+hUU1DzkFtETTzQibeKg9k5Vry1BF0OleJF5osiis1WOUVH3
G8TJUmJNmFMMWhn1of8oMAyddSLBXCSogT5NiH8f6vbzXLeresKNafgtcbDZjd0c
G2Sdu+0Kqio9DJ3WbS+iNy14HfjZNH8zvzlGAR9Dvwup2RIMxwZGzA==
-----END CERTIFICATE-----
