Certificate:
    Data:
        Version: 3 (0x2)
        Serial Number: 268435591 (0x10000087)
    Signature Algorithm: sha256WithRSAEncryption
        Issuer: CN=CA1_sha256_4096_65537_v3_ca
        Validity
            Not Before: Mar  7 15:15:52 2018 GMT
            Not After : Mar  4 15:15:52 2028 GMT
        Subject: CN=SRK2_sha256_4096_65537_v3_ca
        Subject Public Key Info:
            Public Key Algorithm: rsaEncryption
                Public-Key: (4096 bit)
                Modulus:
                    00:b6:a1:55:02:aa:34:e7:23:e9:68:8d:ae:ec:20:
                    8b:ae:83:53:b7:50:31:36:db:3e:e4:e2:bc:ea:ae:
                    c7:b8:fc:49:0a:95:57:f1:a3:1c:eb:b9:15:d9:f1:
                    ac:28:60:53:f3:0a:7e:d0:3a:0f:70:ea:b3:90:4f:
                    00:41:46:1f:13:c4:06:32:dd:d2:18:47:24:cf:61:
                    9f:4d:95:e7:d6:ea:bb:a0:0e:bc:b6:9c:6d:a9:e7:
                    7b:e7:c4:6d:e4:d2:be:91:17:e9:01:bf:ac:ad:ab:
                    74:6f:4b:24:b5:79:84:a2:f3:24:a8:9d:e0:5c:f3:
                    d0:dc:81:e6:01:c1:85:28:15:6f:0e:36:5b:d7:e7:
                    fb:8f:b7:c4:d5:fb:87:7f:d9:2e:f5:d1:f1:1a:2e:
                    20:c0:17:da:9e:6e:7a:0a:cf:99:a8:cf:fa:1c:50:
                    20:45:80:d4:28:56:7d:98:98:55:0a:4a:89:4e:6b:
                    fe:9f:ec:b2:7c:e1:f4:a8:c0:76:7a:6a:69:e4:49:
                    d5:c4:49:79:83:7c:94:f0:2f:55:53:c8:ef:78:c2:
                    ba:dc:a7:fd:ca:fb:7a:86:21:7e:30:a4:64:2b:37:
                    90:39:1f:0f:44:1c:27:c6:0a:db:67:98:8a:fe:80:
                    34:e0:c1:b4:6b:e1:8a:fc:9c:b5:97:6b:d1:32:06:
                    f6:c1:4e:d8:90:81:40:1f:7b:a9:ff:cb:82:a8:b1:
                    4a:6e:c7:0f:af:70:00:c6:35:bf:6b:d7:d4:e1:9a:
                    dd:27:fc:12:5a:89:1f:d5:85:8f:ee:85:52:e9:f7:
                    fe:12:3c:62:ba:f8:25:67:2e:46:70:dd:17:1d:b9:
                    17:ed:03:d5:00:8a:5e:86:60:24:60:2f:70:e8:42:
                    65:48:2a:e6:bd:84:2e:c6:91:48:5f:d9:8e:f1:76:
                    08:f4:95:0b:60:44:f2:64:8f:e2:b1:d8:7d:9e:bc:
                    a9:25:9d:fd:8c:72:1c:2a:d0:c1:4c:ca:a7:4a:09:
                    58:46:de:38:6a:94:ad:7b:1c:68:61:b0:e0:6c:30:
                    6a:fe:d1:f9:b7:f7:11:ac:17:3b:a6:b1:a7:cb:ed:
                    bb:91:c3:33:3a:d0:3b:54:1c:53:03:81:fc:97:41:
                    18:cd:48:39:44:7f:36:76:73:50:fe:26:96:ac:60:
                    f7:50:53:ac:49:cf:60:78:2c:82:e3:fd:6a:34:69:
                    5a:dc:cd:32:b0:76:dc:ab:aa:91:e8:c6:e6:aa:5e:
                    f5:20:d3:2a:7c:0b:c4:b6:ef:54:5a:02:d6:ef:c3:
                    28:3f:38:9c:0d:6b:7f:e7:95:bb:00:e3:1a:97:c8:
                    58:b2:df:89:1e:13:8a:9f:10:f2:2f:f1:8e:2f:5d:
                    61:d0:af
                Exponent: 65537 (0x10001)
        X509v3 extensions:
            X509v3 Subject Key Identifier: 
                60:B5:A1:43:C3:C8:78:C9:B7:A5:B3:4B:56:A4:F2:17:D3:A7:3A:A0
            X509v3 Authority Key Identifier: 
                keyid:F9:E9:2F:6D:FF:1D:64:79:FC:99:80:BA:F4:2D:2C:6E:EE:36:EA:E2
                DirName:/CN=CA1_sha256_4096_65537_v3_ca
                serial:DD:F5:74:39:CD:DB:69:6B

            X509v3 Basic Constraints: critical
                CA:TRUE
            X509v3 Key Usage: 
                Certificate Sign
    Signature Algorithm: sha256WithRSAEncryption
         07:42:12:ed:de:c8:52:f8:13:3c:85:a6:b6:b2:11:cb:c8:da:
         17:de:ff:ce:48:5a:f3:1b:49:06:b1:62:2d:67:e2:c8:df:26:
         1c:ba:18:08:c5:59:08:7b:b1:a2:17:13:96:34:91:7f:44:c6:
         d8:5d:b3:8d:b0:e8:99:4a:4d:c9:d5:ea:ed:0c:93:48:ff:59:
         0f:56:04:e7:d1:de:4a:48:55:6b:f2:d2:40:12:3b:43:45:f0:
         36:f2:2e:aa:32:ee:a2:5e:60:d4:95:7f:b0:7a:30:c7:a3:f6:
         e2:af:e0:25:bd:d3:3c:8f:5b:12:bb:be:eb:eb:5f:fb:28:ab:
         34:95:2e:83:5d:78:67:aa:8f:9d:65:92:73:12:2f:cd:c5:a1:
         cc:b1:bd:c7:e4:0a:37:ea:d2:4c:c4:23:71:c5:ad:74:e9:c6:
         44:b2:74:c9:a5:13:49:df:8b:17:2f:b7:18:a5:bb:43:f1:9f:
         1c:44:0e:cc:b8:ca:37:65:c9:d1:5d:b9:52:5c:cd:20:27:c4:
         40:2a:a3:64:aa:9b:d1:37:68:dd:5e:24:fe:3c:74:f5:5b:5e:
         1e:52:c4:86:18:ce:a7:b2:e0:21:68:38:99:80:e0:93:9e:09:
         9c:a8:f3:cd:00:d7:fb:72:db:59:9f:ab:f6:fd:f2:99:92:b2:
         f5:7e:2f:99:5c:bb:11:fc:d3:4c:9f:8f:8e:13:49:a7:bf:44:
         91:5b:56:03:87:99:b3:30:72:2b:3a:cd:8c:e5:0f:41:98:59:
         36:d6:cb:cb:8f:dd:e9:96:80:d4:6b:78:f1:1e:cd:9e:d0:d0:
         da:f6:4d:cf:d0:b0:9b:dc:66:5c:d8:50:ed:10:2e:e1:46:82:
         c7:8d:23:35:1b:12:1b:7f:04:1f:ab:07:74:59:55:d1:0e:72:
         94:36:62:b7:54:02:dc:e6:c2:dd:87:6f:6a:35:f5:7d:e4:5a:
         e9:f2:22:8c:a0:6e:a2:e3:b4:e9:c8:a8:27:cc:e3:1c:c9:97:
         72:16:cc:db:60:06:ca:43:41:6a:08:02:b1:bb:57:03:a6:ba:
         b9:0f:70:55:91:07:bc:4a:5d:4b:a9:24:eb:1b:ab:de:ea:02:
         0c:97:94:f3:95:61:76:ce:4e:ed:b0:af:ca:0e:99:f7:c2:ec:
         15:c6:30:ca:a0:b9:0c:0b:f2:a2:12:ed:c9:48:d5:d7:88:8f:
         ae:97:2a:97:39:31:86:02:fe:e0:24:0f:58:83:fb:df:57:1b:
         f4:50:f4:1c:3c:5c:8f:9a:d9:5b:d4:27:d8:98:eb:e5:1f:58:
         e8:9b:3f:bb:24:3a:21:54:ba:2e:2b:e7:a4:3c:a6:5f:69:3d:
         08:41:31:db:25:3a:c1:3a
-----BEGIN CERTIFICATE-----
MIIFZDCCA0ygAwIBAgIEEAAAhzANBgkqhkiG9w0BAQsFADAmMSQwIgYDVQQDFBtD
QTFfc2hhMjU2XzQwOTZfNjU1MzdfdjNfY2EwHhcNMTgwMzA3MTUxNTUyWhcNMjgw
MzA0MTUxNTUyWjAnMSUwIwYDVQQDDBxTUksyX3NoYTI1Nl80MDk2XzY1NTM3X3Yz
X2NhMIICIjANBgkqhkiG9w0BAQEFAAOCAg8AMIICCgKCAgEAtqFVAqo05yPpaI2u
7CCLroNTt1AxNts+5OK86q7HuPxJCpVX8aMc67kV2fGsKGBT8wp+0DoPcOqzkE8A
QUYfE8QGMt3SGEckz2GfTZXn1uq7oA68tpxtqed758Rt5NK+kRfpAb+srat0b0sk
tXmEovMkqJ3gXPPQ3IHmAcGFKBVvDjZb1+f7j7fE1fuHf9ku9dHxGi4gwBfanm56
Cs+ZqM/6HFAgRYDUKFZ9mJhVCkqJTmv+n+yyfOH0qMB2empp5EnVxEl5g3yU8C9V
U8jveMK63Kf9yvt6hiF+MKRkKzeQOR8PRBwnxgrbZ5iK/oA04MG0a+GK/Jy1l2vR
Mgb2wU7YkIFAH3up/8uCqLFKbscPr3AAxjW/a9fU4ZrdJ/wSWokf1YWP7oVS6ff+
EjxiuvglZy5GcN0XHbkX7QPVAIpehmAkYC9w6EJlSCrmvYQuxpFIX9mO8XYI9JUL
YETyZI/isdh9nrypJZ39jHIcKtDBTMqnSglYRt44apStexxoYbDgbDBq/tH5t/cR
rBc7prGny+27kcMzOtA7VBxTA4H8l0EYzUg5RH82dnNQ/iaWrGD3UFOsSc9geCyC
4/1qNGla3M0ysHbcq6qR6Mbmql71INMqfAvEtu9UWgLW78MoPzicDWt/55W7AOMa
l8hYst+JHhOKnxDyL/GOL11h0K8CAwEAAaOBmDCBlTAdBgNVHQ4EFgQUYLWhQ8PI
eMm3pbNLVqTyF9OnOqAwVgYDVR0jBE8wTYAU+ekvbf8dZHn8mYC69C0sbu426uKh
KqQoMCYxJDAiBgNVBAMUG0NBMV9zaGEyNTZfNDA5Nl82NTUzN192M19jYYIJAN31
dDnN22lrMA8GA1UdEwEB/wQFMAMBAf8wCwYDVR0PBAQDAgIEMA0GCSqGSIb3DQEB
CwUAA4ICAQAHQhLt3shS+BM8haa2shHLyNoX3v/OSFrzG0kGsWItZ+LI3yYcuhgI
xVkIe7GiFxOWNJF/RMbYXbONsOiZSk3J1ertDJNI/1kPVgTn0d5KSFVr8tJAEjtD
RfA28i6qMu6iXmDUlX+wejDHo/bir+AlvdM8j1sSu77r61/7KKs0lS6DXXhnqo+d
ZZJzEi/NxaHMsb3H5Ao36tJMxCNxxa106cZEsnTJpRNJ34sXL7cYpbtD8Z8cRA7M
uMo3ZcnRXblSXM0gJ8RAKqNkqpvRN2jdXiT+PHT1W14eUsSGGM6nsuAhaDiZgOCT
ngmcqPPNANf7cttZn6v2/fKZkrL1fi+ZXLsR/NNMn4+OE0mnv0SRW1YDh5mzMHIr
Os2M5Q9BmFk21svLj93ploDUa3jxHs2e0NDa9k3P0LCb3GZc2FDtEC7hRoLHjSM1
GxIbfwQfqwd0WVXRDnKUNmK3VALc5sLdh29qNfV95Frp8iKMoG6i47TpyKgnzOMc
yZdyFszbYAbKQ0FqCAKxu1cDprq5D3BVkQe8Sl1LqSTrG6ve6gIMl5TzlWF2zk7t
sK/KDpn3wuwVxjDKoLkMC/KiEu3JSNXXiI+ulyqXOTGGAv7gJA9Yg/vfVxv0UPQc
PFyPmtlb1CfYmOvlH1jomz+7JDohVLouK+ekPKZfaT0IQTHbJTrBOg==
-----END CERTIFICATE-----
