Certificate:
    Data:
        Version: 3 (0x2)
        Serial Number: 268435590 (0x10000086)
    Signature Algorithm: sha256WithRSAEncryption
        Issuer: CN=SRK1_sha256_4096_65537_v3_ca
        Validity
            Not Before: Mar  7 15:15:51 2018 GMT
            Not After : Mar  4 15:15:51 2028 GMT
        Subject: CN=IMG1_1_sha256_4096_65537_v3_usr
        Subject Public Key Info:
            Public Key Algorithm: rsaEncryption
                Public-Key: (4096 bit)
                Modulus:
                    00:bd:0e:72:bf:f2:74:08:37:85:70:d4:a4:bc:5b:
                    d2:45:93:d6:94:6e:f6:48:82:a6:34:cf:7f:f5:e7:
                    23:03:3b:28:35:e0:43:67:02:66:8a:67:a4:6d:06:
                    5e:85:92:a7:42:63:be:2f:a4:bc:58:51:49:3f:e9:
                    88:1a:1e:d8:3b:44:1b:1a:77:30:cd:51:79:42:d3:
                    18:53:12:e3:47:11:80:26:1c:50:0d:cf:57:6a:02:
                    9f:66:44:04:8c:24:c2:e0:39:b4:36:2a:12:77:bf:
                    78:4a:2c:00:1a:dc:dc:15:48:9e:a1:e5:d8:4c:2f:
                    39:8b:ab:44:20:95:7d:49:f7:a2:ab:99:cb:74:fd:
                    2a:27:e3:ce:bb:c7:76:3b:68:74:43:24:c9:80:11:
                    b5:c3:71:3c:fd:21:cf:21:31:64:04:75:0c:01:2c:
                    4f:01:45:20:3b:4d:0f:c7:ba:fa:a9:8e:18:89:18:
                    bf:7a:29:78:3d:ea:b3:13:2a:4d:08:95:15:58:6b:
                    02:81:6f:e5:57:20:87:02:9b:e9:68:0a:55:70:6f:
                    86:9e:4b:b8:80:d8:63:c9:93:06:64:14:91:82:c4:
                    ba:3d:c3:a5:a9:22:a0:a1:50:15:cc:ae:19:05:bb:
                    86:8d:d2:d3:f5:a0:af:ef:5c:95:36:39:e5:50:a6:
                    c9:fe:20:b9:8b:ec:dc:0a:86:ac:99:ec:d0:af:89:
                    92:89:08:02:21:1e:2a:e0:3a:62:18:9b:a6:70:1c:
                    49:54:d2:09:39:5c:03:15:22:2e:29:ac:1c:68:95:
                    36:a2:d3:5c:48:16:89:a7:bf:8a:e5:d5:cf:8d:d3:
                    09:de:5c:a4:97:25:db:d7:14:de:3a:8b:d1:35:54:
                    02:ec:20:57:98:ff:8b:cc:2e:88:5d:ce:e3:f5:51:
                    59:ac:5b:96:88:c0:bd:07:f5:f7:66:77:55:ba:b9:
                    99:5d:7b:eb:b8:a5:81:e6:c2:e5:b7:e0:83:fe:af:
                    fd:1b:00:a5:b3:f5:6d:c2:e2:83:d7:63:1d:d9:e0:
                    28:16:7d:67:bf:71:67:13:ce:4d:7d:b4:13:51:5e:
                    29:31:00:f1:4f:b8:bf:36:a8:c1:cd:57:9e:c6:b7:
                    61:23:66:23:8e:74:1d:d8:45:0e:6f:2d:01:c9:fc:
                    a3:9a:60:bf:e4:f5:a2:e1:a5:88:cc:5a:de:fe:e0:
                    f5:5b:cb:e2:7f:d4:0f:36:51:26:c3:c7:a0:a3:92:
                    1a:e8:ee:d4:7f:83:f8:5a:c1:b1:b3:22:10:a9:28:
                    f6:62:a2:a4:98:aa:ae:3a:cc:5d:17:79:38:9d:53:
                    88:4e:e8:cd:28:10:43:ea:cf:eb:fe:44:e3:79:b6:
                    d8:bf:05
                Exponent: 65537 (0x10001)
        X509v3 extensions:
            X509v3 Basic Constraints: 
                CA:FALSE
            Netscape Comment: 
                OpenSSL Generated Certificate
            X509v3 Subject Key Identifier: 
                BC:4F:0F:AA:94:9A:BE:2C:1F:DC:AE:C5:BC:9F:51:20:DA:3D:8F:01
            X509v3 Authority Key Identifier: 
                keyid:7C:7E:7D:BE:CA:5D:11:F2:2C:3D:FF:5E:60:A6:92:35:DE:D6:D4:2A

    Signature Algorithm: sha256WithRSAEncryption
         25:cd:d0:5a:06:03:11:c7:c5:78:dd:8f:ba:d6:a2:e4:61:96:
         0e:f2:ae:25:59:2a:d6:1f:3b:14:9f:ed:4c:31:3a:d8:2c:35:
         2f:fc:6f:55:be:db:7b:b9:8f:56:05:ea:a2:39:9d:80:8c:6a:
         4f:38:be:74:2e:03:9c:97:a4:ba:6b:0d:70:38:68:2b:9d:6f:
         89:68:de:1d:15:14:07:85:22:df:b8:20:d2:a7:57:2f:a5:53:
         aa:c8:ac:8a:55:6c:ec:36:0b:bd:36:39:9a:38:55:49:bd:63:
         14:8e:48:24:03:d9:1f:b4:cc:75:66:83:28:f4:d1:48:37:3a:
         c9:5f:15:ef:6a:3f:52:85:86:e9:d6:76:c1:92:49:30:72:05:
         17:42:f3:ed:71:63:87:20:f2:e7:19:f5:37:31:c0:3f:d3:40:
         38:d4:67:92:2a:6a:28:7f:5d:d8:a8:f2:4d:c5:9d:38:1a:58:
         2a:9a:8f:42:e5:8a:a4:12:a2:ff:9b:31:f6:6b:67:ce:ef:90:
         77:0c:c4:45:87:86:53:4c:5e:ad:35:93:61:eb:e4:89:6e:08:
         6e:24:b1:f9:cb:28:3c:af:27:df:54:d5:e8:75:fe:4a:28:e6:
         bf:25:76:b4:d7:34:a7:d3:bc:21:c1:58:57:2a:33:5d:0a:8e:
         14:3f:ac:54:42:5e:f4:7d:f5:67:08:9c:26:b0:91:8b:7c:95:
         4a:72:40:76:ce:ca:75:dc:13:07:b3:ce:6f:26:cf:77:5a:6f:
         4e:39:eb:bc:7f:f9:a5:f5:9d:5d:f7:4e:39:ab:e0:2a:af:d0:
         95:f7:22:e9:47:18:65:8e:fb:3b:23:f7:18:10:9e:88:25:5d:
         43:6d:b3:a4:4b:ec:8e:fc:fc:49:57:a5:15:03:8c:2a:95:c9:
         08:fe:2f:25:b1:40:55:67:71:0e:e7:00:5e:ed:5b:25:82:d8:
         2a:27:45:26:0e:bd:83:b6:15:45:20:be:c5:20:6c:02:ef:c9:
         f0:52:64:3c:81:ab:f2:c0:74:ed:a5:e8:ae:64:a7:eb:29:b5:
         16:2d:6e:bd:49:94:d0:32:23:d8:2e:9b:91:8f:15:0f:2d:c1:
         cd:76:05:c9:eb:a1:47:2d:c9:ee:a9:cb:b4:6d:8e:9b:00:a5:
         4b:7b:32:13:59:81:d4:34:e6:85:bc:db:94:43:c2:28:64:6b:
         22:51:74:72:34:ac:a2:fe:32:55:e0:28:c7:f9:c1:3a:9a:1e:
         84:51:5c:13:3a:f6:b2:2c:af:dd:fa:6c:2e:6d:66:ca:1f:0d:
         e4:75:37:db:ff:cb:b2:fb:d6:9a:32:9e:a7:0f:7e:9b:5a:9f:
         74:5a:25:3a:a6:80:a2:75
-----BEGIN CERTIFICATE-----
MIIFSjCCAzKgAwIBAgIEEAAAhjANBgkqhkiG9w0BAQsFADAnMSUwIwYDVQQDDBxT
UksxX3NoYTI1Nl80MDk2XzY1NTM3X3YzX2NhMB4XDTE4MDMwNzE1MTU1MVoXDTI4
MDMwNDE1MTU1MVowKjEoMCYGA1UEAwwfSU1HMV8xX3NoYTI1Nl80MDk2XzY1NTM3
X3YzX3VzcjCCAiIwDQYJKoZIhvcNAQEBBQADggIPADCCAgoCggIBAL0Ocr/ydAg3
hXDUpLxb0kWT1pRu9kiCpjTPf/XnIwM7KDXgQ2cCZopnpG0GXoWSp0Jjvi+kvFhR
ST/piBoe2DtEGxp3MM1ReULTGFMS40cRgCYcUA3PV2oCn2ZEBIwkwuA5tDYqEne/
eEosABrc3BVInqHl2EwvOYurRCCVfUn3oquZy3T9KifjzrvHdjtodEMkyYARtcNx
PP0hzyExZAR1DAEsTwFFIDtND8e6+qmOGIkYv3opeD3qsxMqTQiVFVhrAoFv5Vcg
hwKb6WgKVXBvhp5LuIDYY8mTBmQUkYLEuj3DpakioKFQFcyuGQW7ho3S0/Wgr+9c
lTY55VCmyf4guYvs3AqGrJns0K+JkokIAiEeKuA6YhibpnAcSVTSCTlcAxUiLims
HGiVNqLTXEgWiae/iuXVz43TCd5cpJcl29cU3jqL0TVUAuwgV5j/i8wuiF3O4/VR
WaxblojAvQf192Z3Vbq5mV1767ilgebC5bfgg/6v/RsApbP1bcLig9djHdngKBZ9
Z79xZxPOTX20E1FeKTEA8U+4vzaowc1Xnsa3YSNmI450HdhFDm8tAcn8o5pgv+T1
ouGliMxa3v7g9VvL4n/UDzZRJsPHoKOSGuju1H+D+FrBsbMiEKko9mKipJiqrjrM
XRd5OJ1TiE7ozSgQQ+rP6/5E43m22L8FAgMBAAGjezB5MAkGA1UdEwQCMAAwLAYJ
YIZIAYb4QgENBB8WHU9wZW5TU0wgR2VuZXJhdGVkIENlcnRpZmljYXRlMB0GA1Ud
DgQWBBS8Tw+qlJq+LB/crsW8n1Eg2j2PATAfBgNVHSMEGDAWgBR8fn2+yl0R8iw9
/15gppI13tbUKjANBgkqhkiG9w0BAQsFAAOCAgEAJc3QWgYDEcfFeN2Putai5GGW
DvKuJVkq1h87FJ/tTDE62Cw1L/xvVb7be7mPVgXqojmdgIxqTzi+dC4DnJekumsN
cDhoK51viWjeHRUUB4Ui37gg0qdXL6VTqsisilVs7DYLvTY5mjhVSb1jFI5IJAPZ
H7TMdWaDKPTRSDc6yV8V72o/UoWG6dZ2wZJJMHIFF0Lz7XFjhyDy5xn1NzHAP9NA
ONRnkipqKH9d2KjyTcWdOBpYKpqPQuWKpBKi/5sx9mtnzu+QdwzERYeGU0xerTWT
YevkiW4IbiSx+csoPK8n31TV6HX+SijmvyV2tNc0p9O8IcFYVyozXQqOFD+sVEJe
9H31ZwicJrCRi3yVSnJAds7KddwTB7PObybPd1pvTjnrvH/5pfWdXfdOOavgKq/Q
lfci6UcYZY77OyP3GBCeiCVdQ22zpEvsjvz8SVelFQOMKpXJCP4vJbFAVWdxDucA
Xu1bJYLYKidFJg69g7YVRSC+xSBsAu/J8FJkPIGr8sB07aXormSn6ym1Fi1uvUmU
0DIj2C6bkY8VDy3BzXYFyeuhRy3J7qnLtG2OmwClS3syE1mB1DTmhbzblEPCKGRr
IlF0cjSsov4yVeAox/nBOpoehFFcEzr2siyv3fpsLm1myh8N5HU32//LsvvWmjKe
pw9+m1qfdFolOqaAonU=
-----END CERTIFICATE-----
