Certificate:
    Data:
        Version: 3 (0x2)
        Serial Number: 268435581 (0x1000007d)
    Signature Algorithm: sha256WithRSAEncryption
        Issuer: CN=SRK2_sha256_2048_65537_v3_ca
        Validity
            Not Before: Mar  7 15:15:48 2018 GMT
            Not After : Mar  4 15:15:48 2028 GMT
        Subject: CN=IMG2_1_sha256_2048_65537_v3_usr
        Subject Public Key Info:
            Public Key Algorithm: rsaEncryption
                Public-Key: (2048 bit)
                Modulus:
                    00:c3:81:13:76:c6:8c:6b:b8:72:e7:2c:ba:7e:87:
                    bd:91:5b:34:30:8e:6c:2a:be:21:f6:ae:d2:58:92:
                    1f:20:ee:4f:f9:8b:81:b2:c0:6c:2d:71:f0:a9:8e:
                    4b:6e:bd:91:7f:63:12:60:87:28:b4:62:8c:b0:50:
                    52:51:42:52:70:91:10:f5:a2:2a:76:30:46:cc:61:
                    bc:00:4d:fe:74:e6:75:f7:8c:7a:94:6f:48:25:f7:
                    97:cd:49:e6:77:d2:f2:3e:98:65:f1:24:81:2f:c3:
                    a9:3e:bb:e2:1f:91:e0:1c:89:bd:e9:af:5e:bb:b1:
                    b2:49:46:f3:59:59:1b:c7:a8:cc:8e:40:78:32:aa:
                    67:28:18:97:dc:75:c2:95:4b:41:6a:c0:59:44:39:
                    e4:f0:79:3f:41:96:21:64:b1:55:7c:f8:d4:e8:a1:
                    20:37:ee:82:f5:8d:90:92:2d:94:07:0e:a9:03:c7:
                    9d:b0:b1:4a:c6:f8:a7:30:9d:6f:b4:bd:a2:73:a7:
                    68:0b:ac:91:a3:1e:de:31:92:56:8a:9d:e8:ad:d9:
                    89:ab:70:26:ad:38:50:85:1a:5b:8d:e4:bd:7d:90:
                    df:33:be:ff:d5:96:0e:5f:d0:0a:fb:35:c4:36:47:
                    91:90:e3:eb:02:e0:7a:2f:ee:df:1a:47:88:21:55:
                    25:75
                Exponent: 65537 (0x10001)
        X509v3 extensions:
            X509v3 Basic Constraints: 
                CA:FALSE
            Netscape Comment: 
                OpenSSL Generated Certificate
            X509v3 Subject Key Identifier: 
                B9:B5:5A:C3:57:04:62:E9:C3:1C:CF:3D:8A:E2:C9:69:1D:A2:FE:E2
            X509v3 Authority Key Identifier: 
                keyid:B3:29:7A:64:B4:C6:C2:2D:AF:82:2F:F6:87:C7:2D:AD:87:16:A0:78

    Signature Algorithm: sha256WithRSAEncryption
         46:1e:8f:e9:b3:25:b5:4a:d5:26:e5:36:b6:3e:bb:0d:4c:05:
         a7:ed:e5:d2:c9:19:ad:7d:90:ac:47:aa:b9:a1:6d:20:c2:c9:
         bc:00:46:6f:f8:f9:0e:b5:4e:1e:f9:73:22:4d:00:d9:e9:c9:
         53:60:4f:16:5a:80:70:f0:95:ec:ac:0e:dc:2c:a7:78:fe:bf:
         cc:0d:89:41:78:37:f4:ff:73:d8:ce:86:39:87:90:60:d7:8c:
         13:14:8c:43:10:ed:4e:8e:dd:b1:21:1a:66:80:49:f5:25:a2:
         a5:f2:11:8f:66:bf:4c:22:27:c8:c4:33:0c:bc:cd:d6:49:65:
         cf:71:74:4f:d3:a0:99:62:50:e2:05:6f:5b:50:b7:8a:f6:2b:
         e3:fe:da:64:f0:36:08:fb:f4:82:97:eb:c6:9d:e7:b0:1e:f9:
         0e:a6:85:8a:2e:ff:50:b8:37:98:34:f7:ac:35:8f:db:ae:23:
         e8:fd:9e:d9:55:c8:66:35:ff:27:7e:5a:3d:5e:0a:95:37:14:
         94:5e:59:92:67:4d:66:1c:05:78:c2:2f:53:af:ae:87:1b:f6:
         2a:cb:75:a8:a7:bd:91:06:83:25:9e:d5:29:6b:b9:32:49:d0:
         49:47:f5:1f:63:0c:a4:98:92:7d:3b:a1:37:82:b8:0c:90:89:
         f3:1e:60:04
-----BEGIN CERTIFICATE-----
MIIDSjCCAjKgAwIBAgIEEAAAfTANBgkqhkiG9w0BAQsFADAnMSUwIwYDVQQDDBxT
UksyX3NoYTI1Nl8yMDQ4XzY1NTM3X3YzX2NhMB4XDTE4MDMwNzE1MTU0OFoXDTI4
MDMwNDE1MTU0OFowKjEoMCYGA1UEAwwfSU1HMl8xX3NoYTI1Nl8yMDQ4XzY1NTM3
X3YzX3VzcjCCASIwDQYJKoZIhvcNAQEBBQADggEPADCCAQoCggEBAMOBE3bGjGu4
cucsun6HvZFbNDCObCq+Ifau0liSHyDuT/mLgbLAbC1x8KmOS269kX9jEmCHKLRi
jLBQUlFCUnCREPWiKnYwRsxhvABN/nTmdfeMepRvSCX3l81J5nfS8j6YZfEkgS/D
qT674h+R4ByJvemvXruxsklG81lZG8eozI5AeDKqZygYl9x1wpVLQWrAWUQ55PB5
P0GWIWSxVXz41OihIDfugvWNkJItlAcOqQPHnbCxSsb4pzCdb7S9onOnaAuskaMe
3jGSVoqd6K3ZiatwJq04UIUaW43kvX2Q3zO+/9WWDl/QCvs1xDZHkZDj6wLgei/u
3xpHiCFVJXUCAwEAAaN7MHkwCQYDVR0TBAIwADAsBglghkgBhvhCAQ0EHxYdT3Bl
blNTTCBHZW5lcmF0ZWQgQ2VydGlmaWNhdGUwHQYDVR0OBBYEFLm1WsNXBGLpwxzP
PYriyWkdov7iMB8GA1UdIwQYMBaAFLMpemS0xsItr4Iv9ofHLa2HFqB4MA0GCSqG
SIb3DQEBCwUAA4IBAQBGHo/psyW1StUm5Ta2PrsNTAWn7eXSyRmtfZCsR6q5oW0g
wsm8AEZv+PkOtU4e+XMiTQDZ6clTYE8WWoBw8JXsrA7cLKd4/r/MDYlBeDf0/3PY
zoY5h5Bg14wTFIxDEO1Ojt2xIRpmgEn1JaKl8hGPZr9MIifIxDMMvM3WSWXPcXRP
06CZYlDiBW9bULeK9ivj/tpk8DYI+/SCl+vGneewHvkOpoWKLv9QuDeYNPesNY/b
riPo/Z7ZVchmNf8nflo9XgqVNxSUXlmSZ01mHAV4wi9Tr66HG/Yqy3Wop72RBoMl
ntUpa7kySdBJR/UfYwykmJJ9O6E3grgMkInzHmAE
-----END CERTIFICATE-----
