Certificate:
    Data:
        Version: 3 (0x2)
        Serial Number: 268435496 (0x10000028)
    Signature Algorithm: sha256WithRSAEncryption
        Issuer: CN=SRK2_sha256_1024_65537_v3_ca
        Validity
            Not Before: Mar  7 15:06:24 2018 GMT
            Not After : Mar  4 15:06:24 2028 GMT
        Subject: CN=CSF2_1_sha256_1024_65537_v3_usr
        Subject Public Key Info:
            Public Key Algorithm: rsaEncryption
                Public-Key: (1024 bit)
                Modulus:
                    00:be:ff:4a:40:47:1d:3f:86:5e:c8:cc:c1:5a:b4:
                    33:95:d4:b1:3d:63:3a:95:ab:91:39:7b:0a:8d:a4:
                    f6:a4:c5:fd:98:75:de:06:07:41:97:d3:2e:f3:34:
                    b1:15:ca:48:71:58:1b:13:36:ae:5c:fe:91:bf:4a:
                    0e:f1:b7:e8:80:7e:bc:e0:ee:4f:92:85:62:45:96:
                    f8:43:d0:2d:bc:f4:ba:cd:8d:3b:ff:3b:86:27:42:
                    67:f1:06:39:1b:40:89:ce:b5:52:40:a3:14:92:a5:
                    b7:d9:8c:65:63:a9:ff:a9:a2:3f:d6:f6:43:df:0b:
                    31:e7:fa:c9:5c:b1:49:c8:bf
                Exponent: 65537 (0x10001)
        X509v3 extensions:
            X509v3 Basic Constraints: 
                CA:FALSE
            Netscape Comment: 
                OpenSSL Generated Certificate
            X509v3 Subject Key Identifier: 
                47:5C:BE:5E:48:6D:5A:28:80:96:F3:42:FC:E6:31:62:BD:1C:86:1D
            X509v3 Authority Key Identifier: 
                keyid:B4:E7:2A:58:4C:75:2E:9C:2F:3B:89:33:08:84:73:F0:0A:10:21:87

    Signature Algorithm: sha256WithRSAEncryption
         01:78:ef:db:0d:2a:80:e7:32:e8:e3:1c:bc:49:7c:ed:81:7e:
         f7:ae:33:86:fe:7e:31:7a:e1:6d:cb:71:b1:07:1d:a1:9c:f0:
         7d:af:1e:fb:47:8b:4b:b3:32:72:25:4e:11:52:de:89:2e:09:
         77:86:8a:0b:fb:1d:db:7b:2f:df:c4:54:da:13:93:dc:25:f5:
         12:f4:fd:a6:de:fa:d4:ae:30:02:36:c5:bc:ba:78:b7:ab:5f:
         13:7c:ab:61:fe:a7:37:87:39:3d:0a:40:bb:27:0b:02:1e:c4:
         a5:7c:c5:21:c5:b2:55:f2:cb:36:9a:63:bd:d6:1a:ad:8f:8c:
         40:c1
-----BEGIN CERTIFICATE-----
MIICRTCCAa6gAwIBAgIEEAAAKDANBgkqhkiG9w0BAQsFADAnMSUwIwYDVQQDDBxT
UksyX3NoYTI1Nl8xMDI0XzY1NTM3X3YzX2NhMB4XDTE4MDMwNzE1MDYyNFoXDTI4
MDMwNDE1MDYyNFowKjEoMCYGA1UEAwwfQ1NGMl8xX3NoYTI1Nl8xMDI0XzY1NTM3
X3YzX3VzcjCBnzANBgkqhkiG9w0BAQEFAAOBjQAwgYkCgYEAvv9KQEcdP4ZeyMzB
WrQzldSxPWM6lauROXsKjaT2pMX9mHXeBgdBl9Mu8zSxFcpIcVgbEzauXP6Rv0oO
8bfogH684O5PkoViRZb4Q9AtvPS6zY07/zuGJ0Jn8QY5G0CJzrVSQKMUkqW32Yxl
Y6n/qaI/1vZD3wsx5/rJXLFJyL8CAwEAAaN7MHkwCQYDVR0TBAIwADAsBglghkgB
hvhCAQ0EHxYdT3BlblNTTCBHZW5lcmF0ZWQgQ2VydGlmaWNhdGUwHQYDVR0OBBYE
FEdcvl5IbVoogJbzQvzmMWK9HIYdMB8GA1UdIwQYMBaAFLTnKlhMdS6cLzuJMwiE
c/AKECGHMA0GCSqGSIb3DQEBCwUAA4GBAAF479sNKoDnMujjHLxJfO2BfveuM4b+
fjF64W3LcbEHHaGc8H2vHvtHi0uzMnIlThFS3okuCXeGigv7Hdt7L9/EVNoTk9wl
9RL0/abe+tSuMAI2xby6eLerXxN8q2H+pzeHOT0KQLsnCwIexKV8xSHFslXyyzaa
Y73WGq2PjEDB
-----END CERTIFICATE-----
