Certificate:
    Data:
        Version: 3 (0x2)
        Serial Number: 268435520 (0x10000040)
    Signature Algorithm: sha256WithRSAEncryption
        Issuer: CN=SRK2_sha256_4096_65537_v3_ca
        Validity
            Not Before: Mar  7 15:06:29 2018 GMT
            Not After : Mar  4 15:06:29 2028 GMT
        Subject: CN=CSF2_1_sha256_4096_65537_v3_usr
        Subject Public Key Info:
            Public Key Algorithm: rsaEncryption
                Public-Key: (4096 bit)
                Modulus:
                    00:bb:aa:e6:66:fd:50:f9:a7:d7:1f:f2:03:b6:4e:
                    d2:9f:e0:f0:d5:a0:e6:1b:7f:c3:10:ef:aa:83:0f:
                    0f:b2:a6:07:cc:38:72:1c:7f:d9:6f:a3:47:93:46:
                    1a:4e:1d:c0:37:66:bd:d0:67:8d:a8:cf:33:65:5b:
                    e7:62:d7:b1:ec:06:db:c6:0f:e2:7b:bc:bb:e6:a3:
                    09:08:26:cb:97:62:65:69:87:3e:44:98:7f:34:2c:
                    8b:30:b5:bf:5d:d4:9d:b3:26:80:c6:e2:f0:59:d2:
                    a6:5a:3f:ea:0f:d6:e2:b6:aa:97:f2:46:e5:38:ed:
                    6a:4f:a7:04:c1:c7:71:75:0c:f7:fa:81:b5:67:61:
                    74:fa:d3:ca:3d:6b:34:8b:d0:cb:37:a6:28:60:3c:
                    51:0b:87:18:af:23:9b:03:94:a7:26:ee:fc:4f:6e:
                    27:0d:85:e8:b4:9e:b5:38:b1:19:ea:ea:4d:7d:36:
                    07:78:61:80:72:1f:50:aa:01:49:90:b7:08:b8:6b:
                    cc:f4:f2:9c:81:46:f4:ed:07:58:0a:d3:cc:c5:05:
                    4b:e9:40:02:9c:04:fe:c4:5c:9e:1f:4f:34:07:37:
                    a5:c4:d3:20:1c:fa:bb:2a:73:a1:ea:db:ee:45:63:
                    28:3a:85:54:75:6d:8e:9d:4d:f8:8a:67:c1:10:8c:
                    87:40:5f:b7:bd:25:08:e7:44:3e:57:89:e2:00:db:
                    95:fe:b1:22:f7:4d:5b:02:94:2d:fa:48:52:47:17:
                    7c:c4:db:d1:ed:d4:60:20:35:8f:c7:ab:97:2f:1e:
                    7e:08:ee:8d:7a:f8:9c:c4:b9:3e:16:9a:73:62:1f:
                    59:10:94:10:e3:20:f8:ac:a6:88:39:33:b6:a4:0c:
                    21:bb:69:4f:47:56:8f:79:0f:49:3c:a6:db:3e:ba:
                    8e:5a:57:19:24:7f:2a:3d:d2:4a:d9:6a:21:71:22:
                    78:66:a0:e1:f0:ad:a4:20:37:a7:06:5e:0b:75:2e:
                    66:cc:ef:37:85:44:4d:1b:e7:26:dd:29:30:3f:39:
                    14:e6:94:e4:d5:fb:73:fc:3e:2d:7e:2c:38:66:78:
                    e4:0a:3d:9f:cc:ea:5e:c8:86:8c:ac:5d:3b:64:9f:
                    16:ae:9d:87:86:05:62:05:93:25:bf:c2:68:11:ce:
                    64:fb:21:4b:4f:21:8e:e7:e8:82:bd:85:0a:ed:89:
                    25:12:e2:71:bc:f5:e9:4d:6e:9f:2b:77:98:83:fd:
                    98:d6:5e:77:5a:ce:01:1e:44:5a:27:8b:b5:8e:8c:
                    ef:a9:30:ff:23:bd:9a:ae:cc:e0:62:62:28:5c:c4:
                    a7:3e:68:3a:10:b6:01:07:a2:85:f2:e6:7c:e2:2e:
                    38:1c:07
                Exponent: 65537 (0x10001)
        X509v3 extensions:
            X509v3 Basic Constraints: 
                CA:FALSE
            Netscape Comment: 
                OpenSSL Generated Certificate
            X509v3 Subject Key Identifier: 
                BF:64:1E:CE:BE:61:04:5B:49:0B:E0:FC:D4:FF:AE:AA:98:CF:76:E3
            X509v3 Authority Key Identifier: 
                keyid:14:2A:2F:C9:EC:E7:18:33:FC:33:C0:D4:AD:E9:A5:F6:9D:45:20:92

    Signature Algorithm: sha256WithRSAEncryption
         a4:92:1c:4d:69:5b:04:6f:85:a1:33:36:05:9e:7a:b2:0d:38:
         6d:a6:53:2d:5f:ca:bc:87:52:64:f9:62:ad:2a:6f:11:12:17:
         36:92:83:3f:b5:84:cd:fb:0f:78:36:9d:21:0b:af:e7:93:a8:
         7c:06:15:58:dc:42:ad:59:57:cb:ff:e6:53:5f:17:e4:b9:18:
         19:9b:d9:cc:8f:d4:db:2c:6a:51:22:01:ab:3c:24:b3:3b:b8:
         aa:9d:41:51:aa:86:f7:18:0f:34:e1:1b:75:70:c2:4b:30:e6:
         95:21:db:cf:f6:c5:4d:ad:48:fa:7f:08:8f:b9:ea:9f:3c:8c:
         4b:52:51:d4:44:a8:78:c3:be:85:a7:e9:09:4e:4d:5d:ba:dc:
         13:88:f9:75:ea:89:2a:02:63:7c:c9:10:66:d5:71:70:c7:55:
         71:3c:90:fc:75:8f:ef:56:d3:46:d4:34:b7:db:36:1b:75:a5:
         99:7e:e2:1b:17:3a:71:a4:cf:db:80:41:76:f5:3b:65:ab:d3:
         7d:3b:ec:b7:8d:13:2f:ee:2c:d8:8b:dc:7f:b9:c0:1a:04:48:
         7d:14:e6:eb:b2:01:47:fc:54:d8:c9:c7:15:57:f6:f5:a5:ba:
         9b:ce:b0:c3:36:7a:75:86:36:00:9e:08:73:b3:a5:70:67:30:
         93:1b:52:a8:05:bb:8c:77:b2:94:05:ab:99:47:cd:36:f7:44:
         5c:bb:cf:91:d2:69:70:64:56:72:a3:7e:a2:ce:fc:70:19:44:
         48:db:e3:ae:55:9d:32:6d:9c:f5:23:cd:b9:e8:0f:5f:21:9e:
         73:f8:64:dd:9d:5b:be:ec:7b:44:3f:d7:99:ef:32:d2:8b:ce:
         fc:99:95:1e:20:c8:48:9a:99:7c:ab:89:cb:d8:f2:d2:43:0b:
         b3:cf:6f:3a:f1:d0:b7:e1:f5:70:90:82:62:35:92:94:de:b9:
         fc:17:dc:b1:0c:f1:d6:39:0e:f1:20:dc:27:b8:65:7f:dc:8d:
         73:b0:98:d6:89:35:5e:e7:3c:33:73:c8:45:33:6f:6a:aa:a8:
         f2:f9:a6:fe:94:1b:aa:64:c3:83:00:8d:5d:30:46:bd:88:c1:
         a4:7a:a1:81:59:45:df:5e:4f:f0:65:40:85:a3:c2:37:4b:d7:
         f7:75:ec:2a:34:d6:6b:f0:04:30:2e:c5:51:42:f1:79:8a:e3:
         c0:af:df:9a:17:4b:41:49:be:1a:49:25:9f:3d:ed:18:a2:d2:
         10:32:e9:ad:53:5c:a4:96:b7:40:37:fb:56:9a:2b:ff:f3:3b:
         20:36:37:f9:4c:e2:17:ff:8c:ef:73:1a:6b:9a:aa:46:8b:e2:
         3a:ad:b5:57:28:b4:92:9d
-----BEGIN CERTIFICATE-----
MIIFSjCCAzKgAwIBAgIEEAAAQDANBgkqhkiG9w0BAQsFADAnMSUwIwYDVQQDDBxT
UksyX3NoYTI1Nl80MDk2XzY1NTM3X3YzX2NhMB4XDTE4MDMwNzE1MDYyOVoXDTI4
MDMwNDE1MDYyOVowKjEoMCYGA1UEAwwfQ1NGMl8xX3NoYTI1Nl80MDk2XzY1NTM3
X3YzX3VzcjCCAiIwDQYJKoZIhvcNAQEBBQADggIPADCCAgoCggIBALuq5mb9UPmn
1x/yA7ZO0p/g8NWg5ht/wxDvqoMPD7KmB8w4chx/2W+jR5NGGk4dwDdmvdBnjajP
M2Vb52LXsewG28YP4nu8u+ajCQgmy5diZWmHPkSYfzQsizC1v13UnbMmgMbi8FnS
plo/6g/W4raql/JG5Tjtak+nBMHHcXUM9/qBtWdhdPrTyj1rNIvQyzemKGA8UQuH
GK8jmwOUpybu/E9uJw2F6LSetTixGerqTX02B3hhgHIfUKoBSZC3CLhrzPTynIFG
9O0HWArTzMUFS+lAApwE/sRcnh9PNAc3pcTTIBz6uypzoerb7kVjKDqFVHVtjp1N
+IpnwRCMh0Bft70lCOdEPleJ4gDblf6xIvdNWwKULfpIUkcXfMTb0e3UYCA1j8er
ly8efgjujXr4nMS5Phaac2IfWRCUEOMg+KymiDkztqQMIbtpT0dWj3kPSTym2z66
jlpXGSR/Kj3SStlqIXEieGag4fCtpCA3pwZeC3UuZszvN4VETRvnJt0pMD85FOaU
5NX7c/w+LX4sOGZ45Ao9n8zqXsiGjKxdO2SfFq6dh4YFYgWTJb/CaBHOZPshS08h
jufogr2FCu2JJRLicbz16U1unyt3mIP9mNZed1rOAR5EWieLtY6M76kw/yO9mq7M
4GJiKFzEpz5oOhC2AQeihfLmfOIuOBwHAgMBAAGjezB5MAkGA1UdEwQCMAAwLAYJ
YIZIAYb4QgENBB8WHU9wZW5TU0wgR2VuZXJhdGVkIENlcnRpZmljYXRlMB0GA1Ud
DgQWBBS/ZB7OvmEEW0kL4PzU/66qmM924zAfBgNVHSMEGDAWgBQUKi/J7OcYM/wz
wNSt6aX2nUUgkjANBgkqhkiG9w0BAQsFAAOCAgEApJIcTWlbBG+FoTM2BZ56sg04
baZTLV/KvIdSZPlirSpvERIXNpKDP7WEzfsPeDadIQuv55OofAYVWNxCrVlXy//m
U18X5LkYGZvZzI/U2yxqUSIBqzwkszu4qp1BUaqG9xgPNOEbdXDCSzDmlSHbz/bF
Ta1I+n8Ij7nqnzyMS1JR1ESoeMO+hafpCU5NXbrcE4j5deqJKgJjfMkQZtVxcMdV
cTyQ/HWP71bTRtQ0t9s2G3WlmX7iGxc6caTP24BBdvU7ZavTfTvst40TL+4s2Ivc
f7nAGgRIfRTm67IBR/xU2MnHFVf29aW6m86wwzZ6dYY2AJ4Ic7OlcGcwkxtSqAW7
jHeylAWrmUfNNvdEXLvPkdJpcGRWcqN+os78cBlESNvjrlWdMm2c9SPNuegPXyGe
c/hk3Z1bvux7RD/Xme8y0ovO/JmVHiDISJqZfKuJy9jy0kMLs89vOvHQt+H1cJCC
YjWSlN65/BfcsQzx1jkO8SDcJ7hlf9yNc7CY1ok1Xuc8M3PIRTNvaqqo8vmm/pQb
qmTDgwCNXTBGvYjBpHqhgVlF315P8GVAhaPCN0vX93XsKjTWa/AEMC7FUULxeYrj
wK/fmhdLQUm+Gkklnz3tGKLSEDLprVNcpJa3QDf7Vpor//M7IDY3+UziF/+M73Ma
a5qqRoviOq21Vyi0kp0=
-----END CERTIFICATE-----
