Certificate:
    Data:
        Version: 3 (0x2)
        Serial Number: 268435517 (0x1000003d)
    Signature Algorithm: sha256WithRSAEncryption
        Issuer: CN=SRK1_sha256_4096_65537_v3_ca
        Validity
            Not Before: Mar  7 15:06:27 2018 GMT
            Not After : Mar  4 15:06:27 2028 GMT
        Subject: CN=CSF1_1_sha256_4096_65537_v3_usr
        Subject Public Key Info:
            Public Key Algorithm: rsaEncryption
                Public-Key: (4096 bit)
                Modulus:
                    00:fa:16:e3:0a:4b:73:09:5b:93:81:ad:b3:a1:af:
                    31:dd:06:50:9d:c6:c3:ae:64:20:96:82:d8:60:dc:
                    4b:c8:af:84:07:68:22:4c:00:28:4a:ec:5c:d2:12:
                    47:d1:49:80:ec:8b:6f:4a:9f:72:7c:7e:92:fe:47:
                    4c:40:7b:40:87:be:c2:df:a6:91:8a:fb:6b:62:82:
                    fb:d2:18:9e:24:5d:e1:e0:74:66:e7:cc:5a:26:20:
                    cc:98:52:e1:51:6d:05:85:ee:33:d3:81:8b:47:d9:
                    86:ef:0b:0f:37:8d:a2:4b:52:07:d0:f5:c8:69:b4:
                    2f:04:7e:d7:22:49:27:8b:6b:12:b6:97:25:05:39:
                    33:11:e5:08:42:c0:07:dc:26:4c:58:18:dc:cd:15:
                    35:1a:10:e1:dc:94:69:b0:92:1a:94:66:4b:20:6a:
                    03:2a:c5:ec:12:90:17:97:eb:99:26:34:d4:62:c4:
                    78:e6:38:ff:8d:3a:00:36:1d:43:59:fc:ac:f3:cf:
                    f5:6c:29:b4:1c:50:13:38:49:5e:84:b9:b9:84:6f:
                    64:ef:86:c8:b6:5c:75:bc:36:5b:98:89:bc:ba:b2:
                    cb:06:67:21:10:60:00:1b:88:d7:aa:a7:8a:07:43:
                    3a:26:2b:29:1d:41:f5:42:3c:0d:63:e8:19:c3:bc:
                    62:cc:52:d2:f7:bb:47:3f:87:8a:fe:72:3e:0d:e2:
                    8e:a0:0d:b5:d5:4f:66:4a:78:7c:ea:64:e9:79:22:
                    3c:31:5b:9f:a7:b8:29:c9:06:87:8a:e0:81:11:22:
                    03:6d:aa:55:31:6c:7d:78:46:12:45:6e:24:cd:39:
                    a4:ca:fe:91:8f:b1:b7:27:7f:17:7c:c0:fe:2a:ba:
                    ba:b9:b0:78:01:08:93:d7:5c:d2:17:bb:ee:1a:e9:
                    c6:eb:9f:b0:c5:24:5b:a1:0b:d6:61:32:9b:11:fc:
                    40:84:58:07:cd:04:07:ff:bc:47:49:1c:da:18:c9:
                    d6:14:b6:0f:09:ea:32:69:a9:e3:25:5f:0c:65:ca:
                    9f:7f:3c:2e:cb:53:b1:d6:59:7b:ef:82:31:f6:1d:
                    47:4c:93:83:2d:94:26:fd:4b:a6:2c:96:33:a5:64:
                    1c:dc:6b:1c:51:34:7e:ea:27:1e:13:44:d6:05:70:
                    7c:65:0d:5b:15:a3:a9:e1:75:bc:02:56:5b:6f:74:
                    42:8a:3e:bd:11:1e:6f:32:ab:52:87:9f:81:87:cc:
                    94:00:cd:b2:a7:c7:0f:b3:1e:12:34:5d:46:89:90:
                    ce:87:2b:94:90:3a:49:1b:c7:26:97:85:4e:81:e2:
                    de:b7:2c:ce:6a:98:99:53:06:4c:70:10:52:0e:57:
                    19:75:59
                Exponent: 65537 (0x10001)
        X509v3 extensions:
            X509v3 Basic Constraints: 
                CA:FALSE
            Netscape Comment: 
                OpenSSL Generated Certificate
            X509v3 Subject Key Identifier: 
                D2:C5:97:1D:34:A0:A2:9B:A1:CA:57:8D:E5:CF:66:33:27:0A:27:7E
            X509v3 Authority Key Identifier: 
                keyid:C4:97:9B:02:01:92:81:CC:05:2D:EA:2C:02:17:12:01:D3:EC:BF:B8

    Signature Algorithm: sha256WithRSAEncryption
         b5:7b:24:ad:10:fb:82:0b:5f:b2:ba:5c:c9:e4:00:a7:c7:5e:
         2e:f3:9b:69:8d:e7:24:a8:cf:9e:d2:43:22:8c:bb:f4:bb:15:
         38:5c:23:1b:18:54:67:55:7a:cf:18:cf:42:b2:e4:15:57:ea:
         f5:b1:97:99:d1:8a:0a:72:12:14:e5:55:a9:cd:26:a3:74:82:
         68:57:de:a5:5d:3f:67:85:4c:39:69:27:08:2d:ea:bb:e3:df:
         79:76:23:2a:83:96:6b:f0:8c:ff:b8:75:ae:97:5e:f9:bc:ed:
         c7:d0:4b:f5:af:35:f6:a1:fd:9a:c6:b9:9b:42:df:9f:46:cd:
         1b:a5:4c:e6:3e:ad:cf:f5:06:c7:b1:54:2a:fe:d9:2b:3f:73:
         75:89:db:03:4b:b1:b3:52:5d:f5:81:da:99:8d:92:6e:05:4f:
         2d:e9:86:b4:a1:a8:84:7f:e3:fd:e0:fa:c9:ae:93:c9:b2:bf:
         c8:d8:0c:bf:d5:00:c0:9d:06:f9:57:73:ef:3c:bc:5d:4e:c5:
         ac:2c:8a:b7:d8:36:8c:b2:2d:db:80:f3:99:65:a1:d4:12:bb:
         fa:00:c0:77:ad:b3:78:10:55:fb:0d:78:a7:3b:80:0f:63:c6:
         dc:e7:4d:20:09:68:a8:08:66:a8:35:c4:54:bc:e9:1e:2e:3f:
         95:c5:f5:3c:ac:c6:3e:d9:d2:17:2f:1e:68:60:c4:df:7e:23:
         86:6d:cf:6a:87:19:06:6a:c6:33:18:e1:bd:f9:de:3e:c3:90:
         f6:3e:df:b8:45:81:c8:37:ba:c5:46:d9:3a:ca:c6:ad:f6:21:
         71:63:d9:82:a6:86:f7:99:14:49:72:ae:af:64:35:e3:53:c4:
         18:ec:57:3e:39:81:5e:01:d6:00:97:53:32:b3:bc:44:49:92:
         c3:f3:db:0e:ca:36:6e:80:c1:10:06:e6:2d:8f:66:7c:5b:7e:
         12:bd:ff:47:4a:ba:74:9e:d9:01:81:7b:d2:93:22:5a:0b:15:
         2d:c3:2c:34:44:e0:14:4d:d5:ac:5c:be:fb:70:3e:6c:45:d8:
         70:64:18:2c:f9:1c:99:fa:88:a2:d5:64:10:6c:94:97:e3:7c:
         71:2a:71:64:25:23:29:23:34:97:de:66:8d:71:69:6c:6c:36:
         95:c2:50:89:2f:8e:72:44:e4:51:ff:68:70:c6:06:ff:87:5f:
         ea:0d:4c:4b:7b:5b:4d:3b:2e:f3:fe:fe:ff:5e:6b:1f:04:9d:
         42:3c:ff:cf:5f:03:b3:88:c1:aa:bb:33:08:18:20:69:16:8d:
         b7:53:dd:06:52:ac:82:5c:b6:2e:29:02:54:93:a0:21:02:78:
         6f:77:a4:95:75:c7:c9:20
-----BEGIN CERTIFICATE-----
MIIFSjCCAzKgAwIBAgIEEAAAPTANBgkqhkiG9w0BAQsFADAnMSUwIwYDVQQDDBxT
UksxX3NoYTI1Nl80MDk2XzY1NTM3X3YzX2NhMB4XDTE4MDMwNzE1MDYyN1oXDTI4
MDMwNDE1MDYyN1owKjEoMCYGA1UEAwwfQ1NGMV8xX3NoYTI1Nl80MDk2XzY1NTM3
X3YzX3VzcjCCAiIwDQYJKoZIhvcNAQEBBQADggIPADCCAgoCggIBAPoW4wpLcwlb
k4Gts6GvMd0GUJ3Gw65kIJaC2GDcS8ivhAdoIkwAKErsXNISR9FJgOyLb0qfcnx+
kv5HTEB7QIe+wt+mkYr7a2KC+9IYniRd4eB0ZufMWiYgzJhS4VFtBYXuM9OBi0fZ
hu8LDzeNoktSB9D1yGm0LwR+1yJJJ4trEraXJQU5MxHlCELAB9wmTFgY3M0VNRoQ
4dyUabCSGpRmSyBqAyrF7BKQF5frmSY01GLEeOY4/406ADYdQ1n8rPPP9WwptBxQ
EzhJXoS5uYRvZO+GyLZcdbw2W5iJvLqyywZnIRBgABuI16qnigdDOiYrKR1B9UI8
DWPoGcO8YsxS0ve7Rz+Hiv5yPg3ijqANtdVPZkp4fOpk6XkiPDFbn6e4KckGh4rg
gREiA22qVTFsfXhGEkVuJM05pMr+kY+xtyd/F3zA/iq6urmweAEIk9dc0he77hrp
xuufsMUkW6EL1mEymxH8QIRYB80EB/+8R0kc2hjJ1hS2DwnqMmmp4yVfDGXKn388
LstTsdZZe++CMfYdR0yTgy2UJv1LpiyWM6VkHNxrHFE0fuonHhNE1gVwfGUNWxWj
qeF1vAJWW290Qoo+vREebzKrUoefgYfMlADNsqfHD7MeEjRdRomQzocrlJA6SRvH
JpeFToHi3rcszmqYmVMGTHAQUg5XGXVZAgMBAAGjezB5MAkGA1UdEwQCMAAwLAYJ
YIZIAYb4QgENBB8WHU9wZW5TU0wgR2VuZXJhdGVkIENlcnRpZmljYXRlMB0GA1Ud
DgQWBBTSxZcdNKCim6HKV43lz2YzJwonfjAfBgNVHSMEGDAWgBTEl5sCAZKBzAUt
6iwCFxIB0+y/uDANBgkqhkiG9w0BAQsFAAOCAgEAtXskrRD7ggtfsrpcyeQAp8de
LvObaY3nJKjPntJDIoy79LsVOFwjGxhUZ1V6zxjPQrLkFVfq9bGXmdGKCnISFOVV
qc0mo3SCaFfepV0/Z4VMOWknCC3qu+PfeXYjKoOWa/CM/7h1rpde+bztx9BL9a81
9qH9msa5m0Lfn0bNG6VM5j6tz/UGx7FUKv7ZKz9zdYnbA0uxs1Jd9YHamY2SbgVP
LemGtKGohH/j/eD6ya6TybK/yNgMv9UAwJ0G+Vdz7zy8XU7FrCyKt9g2jLIt24Dz
mWWh1BK7+gDAd62zeBBV+w14pzuAD2PG3OdNIAloqAhmqDXEVLzpHi4/lcX1PKzG
PtnSFy8eaGDE334jhm3PaocZBmrGMxjhvfnePsOQ9j7fuEWByDe6xUbZOsrGrfYh
cWPZgqaG95kUSXKur2Q141PEGOxXPjmBXgHWAJdTMrO8REmSw/PbDso2boDBEAbm
LY9mfFt+Er3/R0q6dJ7ZAYF70pMiWgsVLcMsNETgFE3VrFy++3A+bEXYcGQYLPkc
mfqIotVkEGyUl+N8cSpxZCUjKSM0l95mjXFpbGw2lcJQiS+OckTkUf9ocMYG/4df
6g1MS3tbTTsu8/7+/15rHwSdQjz/z18Ds4jBqrszCBggaRaNt1PdBlKsgly2LikC
VJOgIQJ4b3eklXXHySA=
-----END CERTIFICATE-----
