Certificate:
    Data:
        Version: 3 (0x2)
        Serial Number: 268435515 (0x1000003b)
    Signature Algorithm: sha256WithRSAEncryption
        Issuer: CN=SRK4_sha256_2048_65537_v3_ca
        Validity
            Not Before: Mar  7 15:06:26 2018 GMT
            Not After : Mar  4 15:06:26 2028 GMT
        Subject: CN=IMG4_1_sha256_2048_65537_v3_usr
        Subject Public Key Info:
            Public Key Algorithm: rsaEncryption
                Public-Key: (2048 bit)
                Modulus:
                    00:ea:dc:0c:ab:f5:0c:5d:4b:c2:0b:74:5e:d1:ac:
                    19:3f:7c:3d:a9:80:e3:ca:32:e3:1e:52:fa:c5:c9:
                    1f:f5:e2:da:96:45:1a:3f:50:f4:4f:56:59:c7:ad:
                    21:d7:7a:f1:c6:e6:e0:9b:3a:9f:ee:fb:84:eb:ea:
                    00:91:c9:79:06:45:fc:81:a8:88:0a:05:c9:91:2d:
                    cc:5e:76:a7:98:e1:69:da:ee:f2:11:4a:aa:aa:89:
                    fb:40:63:8a:50:60:da:12:18:63:f5:1d:40:44:48:
                    51:05:73:46:68:b4:b0:96:d6:b7:10:25:d9:26:0c:
                    15:df:dc:83:87:38:84:7c:38:b2:b8:55:11:63:06:
                    9b:29:e7:e6:69:6a:65:90:10:3b:fe:8e:39:d9:a1:
                    f5:de:fc:84:41:62:27:4a:03:99:25:0a:3f:03:9a:
                    33:85:1b:13:25:a0:65:e5:8d:13:d4:44:52:21:58:
                    aa:41:1c:98:da:50:3f:77:4e:0e:25:55:e1:ea:7b:
                    65:f9:6c:64:e0:ae:36:9b:3a:14:9a:a2:99:e5:a0:
                    92:87:04:8c:a2:2d:26:0d:61:72:ad:a0:8a:79:3b:
                    27:ef:2e:df:8a:1c:f0:6d:1d:f5:aa:97:0b:2f:8d:
                    81:84:02:a6:26:d1:27:0a:04:29:bb:98:ce:fa:a7:
                    56:d9
                Exponent: 65537 (0x10001)
        X509v3 extensions:
            X509v3 Basic Constraints: 
                CA:FALSE
            Netscape Comment: 
                OpenSSL Generated Certificate
            X509v3 Subject Key Identifier: 
                AC:36:E1:D0:4E:96:02:B3:55:B7:47:B2:61:35:01:F5:DD:6C:E7:E3
            X509v3 Authority Key Identifier: 
                keyid:D9:AC:20:81:98:D7:E1:CE:1C:56:58:CA:EA:61:EF:98:4C:1A:59:08

    Signature Algorithm: sha256WithRSAEncryption
         3f:db:f3:e7:8e:4d:da:b3:1a:36:c9:00:74:5e:91:6d:aa:14:
         4f:6e:10:20:d0:29:ba:73:a5:80:72:41:dd:c4:b6:c5:64:ee:
         ef:b8:6a:92:fa:08:5f:ad:e0:e8:87:4c:31:c8:99:d9:b8:63:
         11:f9:5d:41:ad:15:1b:13:64:03:1c:c8:0d:64:19:f7:a1:bd:
         7b:61:e2:b9:93:b2:50:58:00:36:e9:7f:f1:53:8c:07:5a:93:
         d1:e1:9a:69:13:16:ae:f0:81:8b:81:2b:e1:d0:59:b7:61:01:
         99:66:24:8a:8e:4b:5b:b5:8f:a8:0c:fd:c7:72:3c:6d:0b:9f:
         a9:05:ab:94:91:88:df:07:d7:4a:0b:83:ef:8f:81:4e:e0:3e:
         39:da:f6:d1:dc:58:44:da:26:a1:a0:4f:a5:08:68:e7:df:7e:
         fd:fd:db:26:b2:ff:57:78:03:ec:87:c3:9c:33:df:fa:ec:b8:
         47:70:ef:ad:01:22:fe:bd:37:0a:1a:7f:27:23:87:bd:e4:25:
         2f:92:d7:5b:27:0d:70:84:a0:f7:94:97:ca:88:b5:53:12:0c:
         fb:9d:f4:a3:db:4c:45:c0:1a:87:da:6b:b3:2a:d7:90:18:79:
         cb:06:32:11:8c:c9:57:12:c3:bb:d1:0f:e0:78:4d:31:8f:f4:
         a4:b0:4d:ff
-----BEGIN CERTIFICATE-----
MIIDSjCCAjKgAwIBAgIEEAAAOzANBgkqhkiG9w0BAQsFADAnMSUwIwYDVQQDDBxT
Uks0X3NoYTI1Nl8yMDQ4XzY1NTM3X3YzX2NhMB4XDTE4MDMwNzE1MDYyNloXDTI4
MDMwNDE1MDYyNlowKjEoMCYGA1UEAwwfSU1HNF8xX3NoYTI1Nl8yMDQ4XzY1NTM3
X3YzX3VzcjCCASIwDQYJKoZIhvcNAQEBBQADggEPADCCAQoCggEBAOrcDKv1DF1L
wgt0XtGsGT98PamA48oy4x5S+sXJH/Xi2pZFGj9Q9E9WWcetIdd68cbm4Js6n+77
hOvqAJHJeQZF/IGoiAoFyZEtzF52p5jhadru8hFKqqqJ+0BjilBg2hIYY/UdQERI
UQVzRmi0sJbWtxAl2SYMFd/cg4c4hHw4srhVEWMGmynn5mlqZZAQO/6OOdmh9d78
hEFiJ0oDmSUKPwOaM4UbEyWgZeWNE9REUiFYqkEcmNpQP3dODiVV4ep7ZflsZOCu
Nps6FJqimeWgkocEjKItJg1hcq2gink7J+8u34oc8G0d9aqXCy+NgYQCpibRJwoE
KbuYzvqnVtkCAwEAAaN7MHkwCQYDVR0TBAIwADAsBglghkgBhvhCAQ0EHxYdT3Bl
blNTTCBHZW5lcmF0ZWQgQ2VydGlmaWNhdGUwHQYDVR0OBBYEFKw24dBOlgKzVbdH
smE1AfXdbOfjMB8GA1UdIwQYMBaAFNmsIIGY1+HOHFZYyuph75hMGlkIMA0GCSqG
SIb3DQEBCwUAA4IBAQA/2/Pnjk3asxo2yQB0XpFtqhRPbhAg0Cm6c6WAckHdxLbF
ZO7vuGqS+ghfreDoh0wxyJnZuGMR+V1BrRUbE2QDHMgNZBn3ob17YeK5k7JQWAA2
6X/xU4wHWpPR4ZppExau8IGLgSvh0Fm3YQGZZiSKjktbtY+oDP3HcjxtC5+pBauU
kYjfB9dKC4Pvj4FO4D452vbR3FhE2iahoE+lCGjn3379/dsmsv9XeAPsh8OcM9/6
7LhHcO+tASL+vTcKGn8nI4e95CUvktdbJw1whKD3lJfKiLVTEgz7nfSj20xFwBqH
2muzKteQGHnLBjIRjMlXEsO70Q/geE0xj/SksE3/
-----END CERTIFICATE-----
