Certificate:
    Data:
        Version: 3 (0x2)
        Serial Number: 268435527 (0x10000047)
    Signature Algorithm: sha256WithRSAEncryption
        Issuer: CN=SRK4_sha256_4096_65537_v3_ca
        Validity
            Not Before: Mar  7 15:06:34 2018 GMT
            Not After : Mar  4 15:06:34 2028 GMT
        Subject: CN=IMG4_1_sha256_4096_65537_v3_usr
        Subject Public Key Info:
            Public Key Algorithm: rsaEncryption
                Public-Key: (4096 bit)
                Modulus:
                    00:c2:fe:6e:89:50:96:e7:fa:a4:5b:05:72:c8:ae:
                    55:1a:88:1c:ed:56:5b:69:e0:31:29:2c:75:73:5c:
                    3a:cd:69:85:d3:3e:2c:40:02:98:9a:25:7e:7a:eb:
                    68:cd:f4:70:d0:e6:b7:cc:91:42:cc:03:74:ca:5c:
                    65:79:42:d7:6b:ac:b1:77:f0:86:94:91:4e:45:76:
                    d4:72:c1:7d:5a:7f:fa:79:7c:f5:31:a2:3a:56:d0:
                    d6:3a:78:65:8f:6a:79:7a:81:7a:3f:c3:2a:ab:39:
                    fb:ee:41:3e:90:27:07:e2:96:3b:de:41:b9:e0:85:
                    69:1c:bc:b2:9f:0c:d6:63:64:fd:a7:43:79:1a:c8:
                    4e:07:b0:08:af:e7:9a:7e:78:cd:2b:62:d0:35:e6:
                    59:b7:f5:f9:c7:f0:a8:83:6a:a7:b0:8e:04:b0:e8:
                    4f:4e:1b:ba:79:55:07:a2:e5:07:88:d3:69:08:ba:
                    c2:37:b9:e9:93:29:78:6c:5c:f7:1b:f7:c3:bf:75:
                    66:bb:f3:dd:9b:5a:78:21:2c:ca:57:06:ba:4d:c8:
                    32:2f:ea:85:18:72:56:df:5a:8a:32:b3:55:eb:9d:
                    7c:ab:28:b1:b3:84:4b:d3:16:2c:ef:37:1e:3d:5b:
                    31:c0:92:09:92:48:04:b7:d7:4c:4b:b4:41:39:e3:
                    e9:19:f7:66:7e:b8:5a:da:38:75:a1:ff:b5:3f:cd:
                    78:2f:07:41:82:f2:0e:01:b0:8e:5d:0a:1c:0f:fc:
                    eb:b9:b9:f1:49:cb:50:24:92:29:a3:a7:dc:05:07:
                    b5:29:ab:3c:7e:49:27:e9:2e:03:64:3a:6d:8f:4e:
                    2e:d5:4f:d2:23:fd:ec:26:2d:a0:fe:a8:ff:2f:fe:
                    b7:63:ea:f2:5c:6c:5f:8c:3b:35:d2:af:b3:c4:7c:
                    f7:fb:c4:7c:88:cc:9d:56:aa:1a:ba:13:9f:d0:7e:
                    bd:ac:37:7b:91:c2:59:4b:af:07:c2:9c:39:ac:2b:
                    8f:70:08:1e:50:85:9e:63:80:10:d9:e4:b2:35:7b:
                    48:d1:f8:4b:9a:82:e0:8f:75:4c:3f:c0:c1:31:6a:
                    27:13:d9:11:b3:fe:9f:15:ee:05:a5:28:a6:98:b4:
                    5e:f4:e8:48:03:f6:84:01:09:b8:88:a9:52:85:11:
                    7e:38:b9:4d:2c:79:d9:da:f4:9e:c7:b2:3c:dc:cf:
                    81:6f:2f:72:76:de:14:a9:86:98:2c:93:4d:cb:f1:
                    f8:b8:af:cf:15:5f:7a:3c:1c:b0:75:0b:bf:ab:e0:
                    6a:ba:ae:c2:1d:c7:88:ab:32:59:3e:ca:c8:65:1b:
                    7e:24:73:ee:3c:1d:d3:0b:e2:13:b3:f2:dc:19:dc:
                    a5:fd:f3
                Exponent: 65537 (0x10001)
        X509v3 extensions:
            X509v3 Basic Constraints: 
                CA:FALSE
            Netscape Comment: 
                OpenSSL Generated Certificate
            X509v3 Subject Key Identifier: 
                23:53:E6:37:FA:90:37:66:F7:B3:F0:6F:3F:F4:37:B7:46:4C:FB:ED
            X509v3 Authority Key Identifier: 
                keyid:0D:86:C2:5A:49:A2:83:FF:E0:E1:3C:00:F7:5E:5B:AB:69:AB:20:26

    Signature Algorithm: sha256WithRSAEncryption
         2c:60:03:51:80:47:a0:7c:dd:49:c6:d6:ae:38:61:68:26:b7:
         28:2d:69:82:38:0e:6d:51:2a:ff:35:50:1f:a3:f7:c2:cf:67:
         b7:ff:81:60:bc:bc:de:6c:c3:4b:f8:d5:5b:c5:cb:1a:b7:9f:
         98:8b:31:45:56:83:f1:11:dd:b8:13:d4:6a:e0:df:a1:7c:ce:
         e5:fd:80:de:ed:20:f0:b5:a3:2b:87:2e:13:7e:4c:4e:00:e3:
         98:2a:9d:bb:af:d8:00:0b:61:bb:f3:84:f0:ea:dd:77:39:59:
         0a:e3:a4:82:35:4f:e3:db:10:3d:ad:2c:d9:68:84:b9:2c:23:
         af:d9:a0:5e:16:12:ab:0a:c7:ee:44:b0:62:89:f4:13:80:1b:
         d5:a7:d5:10:e0:b3:ef:57:fb:84:99:21:07:52:ac:99:23:32:
         d5:c2:9f:13:44:1d:8c:d8:9a:a7:34:74:6f:22:d4:76:96:ae:
         d6:f7:72:3f:ff:83:4c:14:c7:b4:86:05:ec:4d:b8:6c:cc:dc:
         3e:86:aa:67:90:e2:2e:11:bd:13:d4:01:4a:e0:ea:25:a7:f6:
         9e:56:58:57:89:f7:b3:a1:1f:1f:40:e6:1a:e5:b3:e9:97:fd:
         76:86:9b:8b:44:89:2f:f5:44:5c:1f:63:62:e9:51:f3:5a:ba:
         39:8a:45:46:70:d4:74:f6:7e:a0:af:bf:93:4e:04:4b:5f:e5:
         50:2c:cd:7e:e6:3a:a7:47:d0:37:17:4b:be:20:fb:7c:d7:d6:
         b5:0b:de:45:ed:56:73:64:b9:9e:ed:a6:4b:fd:2f:42:61:dd:
         68:d2:3f:de:70:d7:a6:28:9f:89:7c:dc:0d:fc:df:de:0e:eb:
         15:14:4d:5d:32:60:75:56:db:8b:8c:ed:ea:49:c5:5d:37:be:
         d4:1e:c5:31:53:2e:21:c9:a4:0d:a9:d9:ff:59:ec:41:d1:2b:
         64:66:49:19:18:b3:a3:cc:fe:02:47:b7:85:7d:77:8b:b9:65:
         0e:49:b3:7f:19:f3:89:cb:b3:6a:c4:bd:84:58:af:6d:fc:a4:
         d7:38:f3:57:ee:51:fd:cb:3e:f6:ca:92:c8:3d:43:f1:28:42:
         3d:17:31:8b:74:a7:70:d5:14:f7:ad:f2:51:9d:17:01:72:77:
         b9:13:21:05:a4:44:24:e4:0d:a4:4e:64:b0:81:74:8b:e6:d8:
         9a:e4:d1:fb:72:b4:e4:b1:fe:fd:8f:83:25:b5:06:ba:b6:71:
         3d:39:55:f4:93:7a:dd:4d:9e:c3:b0:9d:1d:71:73:94:1c:04:
         82:d7:1e:a9:e8:05:e0:bc:72:fd:6b:f6:39:df:fa:ff:b8:32:
         be:cb:3f:46:29:1e:7f:7b
-----BEGIN CERTIFICATE-----
MIIFSjCCAzKgAwIBAgIEEAAARzANBgkqhkiG9w0BAQsFADAnMSUwIwYDVQQDDBxT
Uks0X3NoYTI1Nl80MDk2XzY1NTM3X3YzX2NhMB4XDTE4MDMwNzE1MDYzNFoXDTI4
MDMwNDE1MDYzNFowKjEoMCYGA1UEAwwfSU1HNF8xX3NoYTI1Nl80MDk2XzY1NTM3
X3YzX3VzcjCCAiIwDQYJKoZIhvcNAQEBBQADggIPADCCAgoCggIBAML+bolQluf6
pFsFcsiuVRqIHO1WW2ngMSksdXNcOs1phdM+LEACmJolfnrraM30cNDmt8yRQswD
dMpcZXlC12ussXfwhpSRTkV21HLBfVp/+nl89TGiOlbQ1jp4ZY9qeXqBej/DKqs5
++5BPpAnB+KWO95BueCFaRy8sp8M1mNk/adDeRrITgewCK/nmn54zSti0DXmWbf1
+cfwqINqp7COBLDoT04bunlVB6LlB4jTaQi6wje56ZMpeGxc9xv3w791Zrvz3Zta
eCEsylcGuk3IMi/qhRhyVt9aijKzVeudfKsosbOES9MWLO83Hj1bMcCSCZJIBLfX
TEu0QTnj6Rn3Zn64Wto4daH/tT/NeC8HQYLyDgGwjl0KHA/867m58UnLUCSSKaOn
3AUHtSmrPH5JJ+kuA2Q6bY9OLtVP0iP97CYtoP6o/y/+t2Pq8lxsX4w7NdKvs8R8
9/vEfIjMnVaqGroTn9B+vaw3e5HCWUuvB8KcOawrj3AIHlCFnmOAENnksjV7SNH4
S5qC4I91TD/AwTFqJxPZEbP+nxXuBaUoppi0XvToSAP2hAEJuIipUoURfji5TSx5
2dr0nseyPNzPgW8vcnbeFKmGmCyTTcvx+LivzxVfejwcsHULv6vgarquwh3HiKsy
WT7KyGUbfiRz7jwd0wviE7Py3Bncpf3zAgMBAAGjezB5MAkGA1UdEwQCMAAwLAYJ
YIZIAYb4QgENBB8WHU9wZW5TU0wgR2VuZXJhdGVkIENlcnRpZmljYXRlMB0GA1Ud
DgQWBBQjU+Y3+pA3Zvez8G8/9De3Rkz77TAfBgNVHSMEGDAWgBQNhsJaSaKD/+Dh
PAD3XluraasgJjANBgkqhkiG9w0BAQsFAAOCAgEALGADUYBHoHzdScbWrjhhaCa3
KC1pgjgObVEq/zVQH6P3ws9nt/+BYLy83mzDS/jVW8XLGrefmIsxRVaD8RHduBPU
auDfoXzO5f2A3u0g8LWjK4cuE35MTgDjmCqdu6/YAAthu/OE8OrddzlZCuOkgjVP
49sQPa0s2WiEuSwjr9mgXhYSqwrH7kSwYon0E4Ab1afVEOCz71f7hJkhB1KsmSMy
1cKfE0QdjNiapzR0byLUdpau1vdyP/+DTBTHtIYF7E24bMzcPoaqZ5DiLhG9E9QB
SuDqJaf2nlZYV4n3s6EfH0DmGuWz6Zf9doabi0SJL/VEXB9jYulR81q6OYpFRnDU
dPZ+oK+/k04ES1/lUCzNfuY6p0fQNxdLviD7fNfWtQveRe1Wc2S5nu2mS/0vQmHd
aNI/3nDXpiifiXzcDfzf3g7rFRRNXTJgdVbbi4zt6knFXTe+1B7FMVMuIcmkDanZ
/1nsQdErZGZJGRizo8z+Ake3hX13i7llDkmzfxnzicuzasS9hFivbfyk1zjzV+5R
/cs+9sqSyD1D8ShCPRcxi3SncNUU963yUZ0XAXJ3uRMhBaREJOQNpE5ksIF0i+bY
muTR+3K05LH+/Y+DJbUGurZxPTlV9JN63U2ew7CdHXFzlBwEgtceqegF4Lxy/Wv2
Od/6/7gyvss/Rikef3s=
-----END CERTIFICATE-----
