Certificate:
    Data:
        Version: 3 (0x2)
        Serial Number: 268435502 (0x1000002e)
    Signature Algorithm: sha256WithRSAEncryption
        Issuer: CN=SRK4_sha256_1024_65537_v3_ca
        Validity
            Not Before: Mar  7 15:06:24 2018 GMT
            Not After : Mar  4 15:06:24 2028 GMT
        Subject: CN=CSF4_1_sha256_1024_65537_v3_usr
        Subject Public Key Info:
            Public Key Algorithm: rsaEncryption
                Public-Key: (1024 bit)
                Modulus:
                    00:bc:8c:1a:93:28:7f:c0:8c:7b:ed:6a:10:96:81:
                    b5:f7:21:2f:06:2d:20:59:27:b5:51:92:92:4b:cd:
                    13:32:95:66:14:1a:f0:c5:00:98:1d:fe:d1:b7:15:
                    53:0d:8d:a7:34:e7:a8:be:ce:c5:34:36:e0:c7:a2:
                    94:52:3a:33:61:53:61:c7:f0:3f:05:35:d6:ef:d8:
                    65:42:cc:44:b8:e9:59:f5:d5:30:33:2d:6f:32:f8:
                    34:f3:f6:13:64:00:f6:8c:ef:66:dc:64:9c:96:45:
                    ac:2e:dc:65:46:ef:0f:7e:85:23:c1:16:b6:20:cb:
                    a7:ab:f1:85:e7:96:ab:98:ab
                Exponent: 65537 (0x10001)
        X509v3 extensions:
            X509v3 Basic Constraints: 
                CA:FALSE
            Netscape Comment: 
                OpenSSL Generated Certificate
            X509v3 Subject Key Identifier: 
                23:10:51:A4:E4:F4:46:4B:9A:57:20:3D:EF:92:81:B6:9A:A5:66:DA
            X509v3 Authority Key Identifier: 
                keyid:0B:90:7A:B0:9F:D9:5C:C7:31:E1:92:D2:53:F4:70:61:9A:E5:8F:D1

    Signature Algorithm: sha256WithRSAEncryption
         92:0d:f0:50:1c:d2:65:af:b4:1c:a0:4c:e0:bd:07:7c:e3:af:
         49:d1:8d:77:99:7d:27:d2:57:8f:03:0b:1f:36:a9:a6:8e:86:
         70:35:06:66:1d:ad:ad:40:ee:cc:99:30:02:eb:c9:e4:f6:a6:
         cc:1c:0d:7b:35:e6:bb:1f:79:51:6b:f4:50:44:e3:ff:fe:8e:
         a2:f7:59:9a:99:86:19:ff:cb:fb:3c:a9:91:8e:34:b2:35:a1:
         26:ea:1a:de:a7:6b:5c:56:6f:7d:d6:89:50:ee:11:7b:ce:01:
         d8:a0:11:e5:2b:12:32:b1:8f:96:28:11:02:cf:ee:b0:39:c8:
         49:10
-----BEGIN CERTIFICATE-----
MIICRTCCAa6gAwIBAgIEEAAALjANBgkqhkiG9w0BAQsFADAnMSUwIwYDVQQDDBxT
Uks0X3NoYTI1Nl8xMDI0XzY1NTM3X3YzX2NhMB4XDTE4MDMwNzE1MDYyNFoXDTI4
MDMwNDE1MDYyNFowKjEoMCYGA1UEAwwfQ1NGNF8xX3NoYTI1Nl8xMDI0XzY1NTM3
X3YzX3VzcjCBnzANBgkqhkiG9w0BAQEFAAOBjQAwgYkCgYEAvIwakyh/wIx77WoQ
loG19yEvBi0gWSe1UZKSS80TMpVmFBrwxQCYHf7RtxVTDY2nNOeovs7FNDbgx6KU
UjozYVNhx/A/BTXW79hlQsxEuOlZ9dUwMy1vMvg08/YTZAD2jO9m3GSclkWsLtxl
Ru8PfoUjwRa2IMunq/GF55armKsCAwEAAaN7MHkwCQYDVR0TBAIwADAsBglghkgB
hvhCAQ0EHxYdT3BlblNTTCBHZW5lcmF0ZWQgQ2VydGlmaWNhdGUwHQYDVR0OBBYE
FCMQUaTk9EZLmlcgPe+SgbaapWbaMB8GA1UdIwQYMBaAFAuQerCf2VzHMeGS0lP0
cGGa5Y/RMA0GCSqGSIb3DQEBCwUAA4GBAJIN8FAc0mWvtBygTOC9B3zjr0nRjXeZ
fSfSV48DCx82qaaOhnA1BmYdra1A7syZMALryeT2pswcDXs15rsfeVFr9FBE4//+
jqL3WZqZhhn/y/s8qZGONLI1oSbqGt6na1xWb33WiVDuEXvOAdigEeUrEjKxj5Yo
EQLP7rA5yEkQ
-----END CERTIFICATE-----
