Certificate:
    Data:
        Version: 3 (0x2)
        Serial Number: 268435509 (0x10000035)
    Signature Algorithm: sha256WithRSAEncryption
        Issuer: CN=SRK2_sha256_2048_65537_v3_ca
        Validity
            Not Before: Mar  7 15:06:25 2018 GMT
            Not After : Mar  4 15:06:25 2028 GMT
        Subject: CN=IMG2_1_sha256_2048_65537_v3_usr
        Subject Public Key Info:
            Public Key Algorithm: rsaEncryption
                Public-Key: (2048 bit)
                Modulus:
                    00:a5:4d:7f:36:5e:05:02:ca:34:f8:40:9a:67:40:
                    fd:b2:91:39:fe:d4:df:a0:dd:27:71:01:f6:48:27:
                    29:ea:40:27:04:bd:92:96:48:74:22:22:da:93:8d:
                    a0:4a:66:fb:ba:39:a9:3f:3e:13:0b:e5:83:24:a3:
                    fc:a5:26:d3:ad:9a:fb:6a:90:f4:7c:2f:4d:ad:a6:
                    2b:64:e9:24:5f:72:e2:3d:10:d5:2f:55:09:53:79:
                    e0:d3:9e:12:ce:90:22:8a:2f:33:ea:5e:81:80:92:
                    b7:46:df:dd:ef:38:77:8a:82:31:91:f3:6f:d9:76:
                    51:e7:29:bd:20:fb:b1:b5:c8:13:67:d5:fe:9b:5d:
                    18:9c:c7:1b:08:67:29:7a:a0:5b:49:3d:50:c4:7e:
                    a3:c0:a0:86:04:cf:14:97:6c:fa:ea:5b:00:82:0a:
                    dd:79:d8:d9:43:61:33:c2:6a:3f:34:4d:90:1a:6a:
                    b9:38:81:90:f6:58:fc:a1:96:d6:b8:8e:78:05:f2:
                    c8:02:14:0c:89:49:62:01:bc:77:64:7f:ed:af:8d:
                    c7:05:93:22:06:70:55:59:68:d4:7c:e1:80:43:f1:
                    f6:ac:b1:52:18:62:9e:a6:0b:c5:5a:6b:34:59:eb:
                    0c:ef:dc:53:15:c0:b8:71:ab:91:0e:d1:65:b9:4e:
                    19:f9
                Exponent: 65537 (0x10001)
        X509v3 extensions:
            X509v3 Basic Constraints: 
                CA:FALSE
            Netscape Comment: 
                OpenSSL Generated Certificate
            X509v3 Subject Key Identifier: 
                9B:5F:FB:D9:94:29:DD:B5:07:68:52:CA:9D:71:0D:05:CA:2F:46:70
            X509v3 Authority Key Identifier: 
                keyid:17:C3:ED:57:4A:53:98:BD:E4:22:EB:20:7D:D1:D2:FA:B6:09:75:EC

    Signature Algorithm: sha256WithRSAEncryption
         08:89:e6:37:bb:eb:c7:9c:38:56:80:52:c7:a7:70:e2:e6:fc:
         3a:7e:ea:bf:12:e1:51:dc:78:4b:6a:03:1e:10:6f:cd:21:38:
         2e:f1:8a:b5:26:41:3c:b8:52:8b:f2:3f:93:df:c8:8f:ef:0f:
         6f:d6:f8:0b:67:5e:ed:1a:2e:98:d2:29:18:90:57:dd:62:e1:
         63:b3:10:dc:5a:20:a3:03:98:62:a3:53:d7:86:96:f9:42:ea:
         d3:d7:97:06:bc:a5:77:72:2d:46:22:33:8b:15:49:94:b9:19:
         08:0c:1b:ee:e4:16:1f:52:53:c2:6e:e9:96:72:9e:d3:55:8a:
         fc:93:f6:e5:2a:49:38:d6:2d:90:69:61:16:56:85:f2:de:49:
         62:97:88:c6:c1:74:b6:f2:57:49:db:3e:e5:72:96:2c:39:9d:
         8b:ef:4c:65:4a:4a:71:08:d8:a6:c2:c4:20:d0:4e:42:43:0d:
         88:e9:0e:78:eb:24:72:56:ea:28:22:54:f1:33:cb:38:5c:78:
         10:cf:4b:61:92:19:4c:83:e0:a7:70:7b:19:48:4a:6c:ea:f3:
         76:5b:6b:f9:32:50:76:42:89:ce:52:c2:3c:6a:3e:14:04:0c:
         73:3b:c4:85:fe:fe:b9:8e:77:34:0b:f0:0f:c4:61:a4:0e:9b:
         42:65:bd:e8
-----BEGIN CERTIFICATE-----
MIIDSjCCAjKgAwIBAgIEEAAANTANBgkqhkiG9w0BAQsFADAnMSUwIwYDVQQDDBxT
UksyX3NoYTI1Nl8yMDQ4XzY1NTM3X3YzX2NhMB4XDTE4MDMwNzE1MDYyNVoXDTI4
MDMwNDE1MDYyNVowKjEoMCYGA1UEAwwfSU1HMl8xX3NoYTI1Nl8yMDQ4XzY1NTM3
X3YzX3VzcjCCASIwDQYJKoZIhvcNAQEBBQADggEPADCCAQoCggEBAKVNfzZeBQLK
NPhAmmdA/bKROf7U36DdJ3EB9kgnKepAJwS9kpZIdCIi2pONoEpm+7o5qT8+Ewvl
gySj/KUm062a+2qQ9HwvTa2mK2TpJF9y4j0Q1S9VCVN54NOeEs6QIoovM+pegYCS
t0bf3e84d4qCMZHzb9l2UecpvSD7sbXIE2fV/ptdGJzHGwhnKXqgW0k9UMR+o8Cg
hgTPFJds+upbAIIK3XnY2UNhM8JqPzRNkBpquTiBkPZY/KGW1riOeAXyyAIUDIlJ
YgG8d2R/7a+NxwWTIgZwVVlo1HzhgEPx9qyxUhhinqYLxVprNFnrDO/cUxXAuHGr
kQ7RZblOGfkCAwEAAaN7MHkwCQYDVR0TBAIwADAsBglghkgBhvhCAQ0EHxYdT3Bl
blNTTCBHZW5lcmF0ZWQgQ2VydGlmaWNhdGUwHQYDVR0OBBYEFJtf+9mUKd21B2hS
yp1xDQXKL0ZwMB8GA1UdIwQYMBaAFBfD7VdKU5i95CLrIH3R0vq2CXXsMA0GCSqG
SIb3DQEBCwUAA4IBAQAIieY3u+vHnDhWgFLHp3Di5vw6fuq/EuFR3HhLagMeEG/N
ITgu8Yq1JkE8uFKL8j+T38iP7w9v1vgLZ17tGi6Y0ikYkFfdYuFjsxDcWiCjA5hi
o1PXhpb5QurT15cGvKV3ci1GIjOLFUmUuRkIDBvu5BYfUlPCbumWcp7TVYr8k/bl
Kkk41i2QaWEWVoXy3klil4jGwXS28ldJ2z7lcpYsOZ2L70xlSkpxCNimwsQg0E5C
Qw2I6Q546yRyVuooIlTxM8s4XHgQz0thkhlMg+CncHsZSEps6vN2W2v5MlB2QonO
UsI8aj4UBAxzO8SF/v65jnc0C/APxGGkDptCZb3o
-----END CERTIFICATE-----
