Certificate:
    Data:
        Version: 3 (0x2)
        Serial Number: 268435492 (0x10000024)
    Signature Algorithm: sha256WithRSAEncryption
        Issuer: CN=CA1_sha256_1024_65537_v3_ca
        Validity
            Not Before: Mar  7 15:06:24 2018 GMT
            Not After : Mar  4 15:06:24 2028 GMT
        Subject: CN=SRK1_sha256_1024_65537_v3_ca
        Subject Public Key Info:
            Public Key Algorithm: rsaEncryption
                Public-Key: (1024 bit)
                Modulus:
                    00:b4:de:6d:ef:61:27:e7:34:02:ef:3d:b4:08:6a:
                    0e:23:c2:7e:f0:7d:20:a2:17:b1:ba:16:f1:f7:48:
                    3d:f3:62:26:d9:97:c5:13:1f:36:a9:e1:a8:41:52:
                    ee:f1:f1:f1:de:5f:12:03:c2:75:b5:88:97:e4:e7:
                    56:db:b9:9f:5c:a5:ed:7a:01:a3:d4:44:c3:ee:7d:
                    e4:f3:6b:0d:97:07:f9:d7:31:98:a3:ee:21:b9:d2:
                    d4:00:b5:17:06:e5:ab:49:41:3a:bb:2b:60:27:0e:
                    5f:6d:cf:6b:86:9a:c3:1e:9a:95:9a:89:18:cc:d1:
                    6b:83:b5:32:f6:10:25:d3:4d
                Exponent: 65537 (0x10001)
        X509v3 extensions:
            X509v3 Subject Key Identifier: 
                CF:57:50:EE:F2:FD:A2:D8:A3:C9:90:E1:77:B9:25:C8:2A:3A:0A:ED
            X509v3 Authority Key Identifier: 
                keyid:28:C6:D0:61:49:04:42:6C:49:12:94:50:1E:82:33:76:2A:1A:9D:8D
                DirName:/CN=CA1_sha256_1024_65537_v3_ca
                serial:B9:27:51:35:9A:8B:74:6C

            X509v3 Basic Constraints: critical
                CA:TRUE
            X509v3 Key Usage: 
                Certificate Sign
    Signature Algorithm: sha256WithRSAEncryption
         25:ca:41:4c:1e:a2:c4:22:39:40:ed:6e:bf:d6:4d:55:d1:cc:
         10:d3:c1:b6:a8:17:cc:a5:83:bf:32:ed:45:d3:3b:63:e1:9c:
         89:49:a2:08:d3:43:c9:37:b5:0f:17:2e:61:da:a5:4e:29:f1:
         e3:a9:e3:50:34:87:84:fd:de:d0:70:fb:21:22:b6:7d:6e:10:
         27:fd:d5:d7:bd:0a:60:da:6c:d4:91:3c:05:7a:ef:22:03:72:
         cc:42:fb:c2:5f:e8:04:1a:0c:22:78:cc:2f:20:9d:aa:bb:c7:
         d7:5f:c9:da:32:d8:2f:db:9d:76:5d:c2:ee:e2:71:4a:98:e0:
         78:17
-----BEGIN CERTIFICATE-----
MIICXzCCAcigAwIBAgIEEAAAJDANBgkqhkiG9w0BAQsFADAmMSQwIgYDVQQDFBtD
QTFfc2hhMjU2XzEwMjRfNjU1MzdfdjNfY2EwHhcNMTgwMzA3MTUwNjI0WhcNMjgw
MzA0MTUwNjI0WjAnMSUwIwYDVQQDDBxTUksxX3NoYTI1Nl8xMDI0XzY1NTM3X3Yz
X2NhMIGfMA0GCSqGSIb3DQEBAQUAA4GNADCBiQKBgQC03m3vYSfnNALvPbQIag4j
wn7wfSCiF7G6FvH3SD3zYibZl8UTHzap4ahBUu7x8fHeXxIDwnW1iJfk51bbuZ9c
pe16AaPURMPufeTzaw2XB/nXMZij7iG50tQAtRcG5atJQTq7K2AnDl9tz2uGmsMe
mpWaiRjM0WuDtTL2ECXTTQIDAQABo4GYMIGVMB0GA1UdDgQWBBTPV1Du8v2i2KPJ
kOF3uSXIKjoK7TBWBgNVHSMETzBNgBQoxtBhSQRCbEkSlFAegjN2KhqdjaEqpCgw
JjEkMCIGA1UEAxQbQ0ExX3NoYTI1Nl8xMDI0XzY1NTM3X3YzX2NhggkAuSdRNZqL
dGwwDwYDVR0TAQH/BAUwAwEB/zALBgNVHQ8EBAMCAgQwDQYJKoZIhvcNAQELBQAD
gYEAJcpBTB6ixCI5QO1uv9ZNVdHMENPBtqgXzKWDvzLtRdM7Y+GciUmiCNNDyTe1
DxcuYdqlTinx46njUDSHhP3e0HD7ISK2fW4QJ/3V170KYNps1JE8BXrvIgNyzEL7
wl/oBBoMInjMLyCdqrvH11/J2jLYL9uddl3C7uJxSpjgeBc=
-----END CERTIFICATE-----
