Certificate:
    Data:
        Version: 3 (0x2)
        Serial Number: 268435525 (0x10000045)
    Signature Algorithm: sha256WithRSAEncryption
        Issuer: CN=CA1_sha256_4096_65537_v3_ca
        Validity
            Not Before: Mar  7 15:06:32 2018 GMT
            Not After : Mar  4 15:06:32 2028 GMT
        Subject: CN=SRK4_sha256_4096_65537_v3_ca
        Subject Public Key Info:
            Public Key Algorithm: rsaEncryption
                Public-Key: (4096 bit)
                Modulus:
                    00:97:a8:f9:c7:7c:78:cc:d3:d2:96:b1:0a:58:7b:
                    53:65:0d:1e:e6:ad:0b:e6:ef:01:d3:f5:3f:dc:a7:
                    c1:00:48:fd:68:4e:7f:e3:f0:f8:57:d6:87:55:96:
                    49:1e:95:69:1c:5b:89:42:f3:5a:26:ca:60:83:6f:
                    ba:6e:78:42:24:f0:fb:da:a7:e4:d1:d5:29:a4:5d:
                    fe:24:52:5d:96:19:5a:74:f3:b5:94:25:91:ba:a6:
                    86:ce:3b:90:07:c0:ac:0f:87:25:56:d1:50:4b:25:
                    cf:6c:45:13:55:8e:67:12:7b:1a:18:d3:2a:51:62:
                    32:ec:d0:f8:50:b4:c6:a0:9f:94:63:13:e7:ef:e3:
                    35:c7:dd:1c:e2:56:5d:e5:29:1b:18:6f:89:a9:40:
                    0d:59:9f:48:4a:4d:88:ee:38:fe:14:a7:24:96:12:
                    13:d0:fe:5a:1f:45:a8:a1:51:38:0d:cf:40:6f:fb:
                    7e:dd:27:a2:d6:44:b7:e5:51:75:10:1c:21:85:58:
                    bf:52:6f:46:aa:af:02:ba:e5:65:af:31:dc:df:8c:
                    54:7c:f0:74:cf:55:63:7f:25:b9:c4:e0:70:a3:03:
                    22:65:94:ef:4b:74:a1:d5:03:1b:72:79:82:39:4d:
                    db:96:a0:d5:68:ed:ae:fd:2b:5b:fd:3c:b6:7a:1d:
                    83:12:73:86:2b:b7:24:25:a7:d2:57:45:3d:ac:b9:
                    8e:fe:26:a9:a7:0f:2f:ae:a6:8d:8b:9f:d5:0c:18:
                    31:f3:b7:c2:1d:33:4b:9e:8c:cc:9c:58:0e:0d:c1:
                    0f:0e:ba:da:58:7f:c8:16:1f:5f:ca:71:3e:0f:10:
                    e7:ae:22:69:6d:5b:5c:55:33:25:d3:39:99:b1:d5:
                    28:5d:84:d8:de:2e:f7:b6:a1:46:60:16:c3:9d:1c:
                    2b:37:8d:d3:5e:51:d7:88:90:59:aa:f9:2c:9f:e4:
                    05:3b:86:3f:05:c3:b1:95:a1:3f:4e:c2:96:03:c7:
                    e7:47:c4:9d:ec:08:1a:0d:a0:22:d5:e8:33:ee:50:
                    a6:38:a2:ea:a2:40:f3:60:ee:ec:31:89:46:4c:3c:
                    0b:52:d1:59:fa:f5:38:91:9e:82:df:6a:64:9c:46:
                    cb:c3:1d:9f:33:2a:c0:9a:a5:00:e7:99:02:b4:8e:
                    0f:57:4c:43:01:48:02:2b:b5:9e:59:76:06:1f:68:
                    5d:66:3e:5b:e1:55:a4:45:fe:97:52:b3:8b:10:90:
                    48:2c:a3:9e:c3:07:5b:3a:be:a2:24:d8:57:a9:df:
                    b5:32:f4:0f:50:8a:f0:73:a8:b3:7a:76:a8:d4:f2:
                    a6:1d:2b:2d:de:00:4d:ce:ed:02:7d:99:77:72:7d:
                    2c:13:83
                Exponent: 65537 (0x10001)
        X509v3 extensions:
            X509v3 Subject Key Identifier: 
                0D:86:C2:5A:49:A2:83:FF:E0:E1:3C:00:F7:5E:5B:AB:69:AB:20:26
            X509v3 Authority Key Identifier: 
                keyid:23:B6:9A:7D:81:09:9C:59:D5:68:D8:7C:E5:F6:18:BE:A1:D5:8F:87
                DirName:/CN=CA1_sha256_4096_65537_v3_ca
                serial:B3:E8:BA:E8:D8:D1:DA:FA

            X509v3 Basic Constraints: critical
                CA:TRUE
            X509v3 Key Usage: 
                Certificate Sign
    Signature Algorithm: sha256WithRSAEncryption
         87:71:cb:10:c7:b8:e4:1a:05:9a:38:ca:d7:f8:56:76:a3:e1:
         a1:fc:06:9a:a0:1e:e5:88:10:d2:6a:9a:11:0b:53:ca:33:9f:
         cc:fa:28:33:f8:bf:a7:a4:aa:12:ba:d1:d8:5f:45:94:a9:7d:
         65:7f:63:8c:2b:1e:99:45:82:6e:65:83:c6:8d:86:67:b5:94:
         f9:c3:ce:28:7c:4f:d9:4e:48:29:f6:f0:64:3e:da:18:fc:ab:
         b2:ae:bc:88:1c:84:d2:36:26:76:0b:e8:35:f5:51:13:3d:94:
         2e:e3:7f:2f:10:35:55:31:fc:06:e3:a3:f9:3f:47:61:18:aa:
         b9:63:3c:7f:3b:38:05:c4:13:fc:ad:ef:84:21:91:eb:c6:89:
         5b:79:59:5d:5f:d0:73:92:dd:9d:da:96:4f:1c:98:9a:39:2f:
         69:f0:d2:87:3f:39:01:b9:11:19:fc:1f:aa:df:1f:1c:cc:5a:
         14:aa:42:aa:d7:8c:01:ca:3a:25:b7:0e:22:e4:7b:a5:93:3b:
         e7:9a:5d:63:a7:39:f9:02:9c:4c:c9:43:f2:67:1c:11:24:75:
         4e:f6:b7:11:90:d7:21:b4:e7:7a:8f:4c:f7:61:06:b1:7f:aa:
         a0:e9:51:32:92:a6:8a:bf:35:07:f4:bf:fa:3c:d7:9e:1e:79:
         c5:94:d8:1b:2e:13:98:6f:5e:4c:6b:86:0f:ea:81:ca:16:99:
         24:fa:7d:4a:b0:03:11:77:69:4f:94:65:b7:a4:ed:77:5d:20:
         6b:c7:53:b1:c2:24:55:6d:41:db:d1:d7:a0:a7:99:a5:bf:f3:
         06:fb:08:a5:7d:bc:1d:1d:47:61:2e:f7:dc:69:2c:29:f7:8f:
         d4:47:ac:8f:2c:e7:37:96:96:e7:bb:f7:74:bd:44:ea:94:ff:
         5b:1d:92:2c:97:a8:3c:83:52:8b:09:83:1a:7d:5f:79:f0:ac:
         27:2a:d7:c3:05:95:e3:d8:fc:29:d1:52:68:65:bd:26:af:49:
         ba:55:8a:b2:5a:03:ef:d1:8f:b5:8b:71:ee:d0:62:42:41:55:
         a6:6a:91:e2:7a:39:cb:8c:dc:c5:d2:af:cc:5d:62:41:ae:9c:
         5a:5b:8c:d4:db:f1:bd:9d:94:69:1f:43:e8:f2:2a:0c:d2:f5:
         9e:c1:a5:e9:97:67:83:01:84:17:cc:ee:7b:77:2a:76:ba:4f:
         06:bd:0e:46:ed:bf:ba:db:20:56:00:23:ae:9d:b5:0a:4c:46:
         c5:ca:ec:90:2a:4c:1b:d2:56:15:a7:aa:1a:3d:57:a8:eb:73:
         5b:28:6f:1f:5b:be:7f:70:f2:a4:98:53:91:fc:e6:eb:a7:cd:
         c9:c3:66:40:82:ee:3b:7f
-----BEGIN CERTIFICATE-----
MIIFZDCCA0ygAwIBAgIEEAAARTANBgkqhkiG9w0BAQsFADAmMSQwIgYDVQQDFBtD
QTFfc2hhMjU2XzQwOTZfNjU1MzdfdjNfY2EwHhcNMTgwMzA3MTUwNjMyWhcNMjgw
MzA0MTUwNjMyWjAnMSUwIwYDVQQDDBxTUks0X3NoYTI1Nl80MDk2XzY1NTM3X3Yz
X2NhMIICIjANBgkqhkiG9w0BAQEFAAOCAg8AMIICCgKCAgEAl6j5x3x4zNPSlrEK
WHtTZQ0e5q0L5u8B0/U/3KfBAEj9aE5/4/D4V9aHVZZJHpVpHFuJQvNaJspgg2+6
bnhCJPD72qfk0dUppF3+JFJdlhladPO1lCWRuqaGzjuQB8CsD4clVtFQSyXPbEUT
VY5nEnsaGNMqUWIy7ND4ULTGoJ+UYxPn7+M1x90c4lZd5SkbGG+JqUANWZ9ISk2I
7jj+FKcklhIT0P5aH0WooVE4Dc9Ab/t+3Sei1kS35VF1EBwhhVi/Um9Gqq8CuuVl
rzHc34xUfPB0z1VjfyW5xOBwowMiZZTvS3Sh1QMbcnmCOU3blqDVaO2u/Stb/Ty2
eh2DEnOGK7ckJafSV0U9rLmO/iappw8vrqaNi5/VDBgx87fCHTNLnozMnFgODcEP
DrraWH/IFh9fynE+DxDnriJpbVtcVTMl0zmZsdUoXYTY3i73tqFGYBbDnRwrN43T
XlHXiJBZqvksn+QFO4Y/BcOxlaE/TsKWA8fnR8Sd7AgaDaAi1egz7lCmOKLqokDz
YO7sMYlGTDwLUtFZ+vU4kZ6C32pknEbLwx2fMyrAmqUA55kCtI4PV0xDAUgCK7We
WXYGH2hdZj5b4VWkRf6XUrOLEJBILKOewwdbOr6iJNhXqd+1MvQPUIrwc6izenao
1PKmHSst3gBNzu0CfZl3cn0sE4MCAwEAAaOBmDCBlTAdBgNVHQ4EFgQUDYbCWkmi
g//g4TwA915bq2mrICYwVgYDVR0jBE8wTYAUI7aafYEJnFnVaNh85fYYvqHVj4eh
KqQoMCYxJDAiBgNVBAMUG0NBMV9zaGEyNTZfNDA5Nl82NTUzN192M19jYYIJALPo
uujY0dr6MA8GA1UdEwEB/wQFMAMBAf8wCwYDVR0PBAQDAgIEMA0GCSqGSIb3DQEB
CwUAA4ICAQCHccsQx7jkGgWaOMrX+FZ2o+Gh/AaaoB7liBDSapoRC1PKM5/M+igz
+L+npKoSutHYX0WUqX1lf2OMKx6ZRYJuZYPGjYZntZT5w84ofE/ZTkgp9vBkPtoY
/KuyrryIHITSNiZ2C+g19VETPZQu438vEDVVMfwG46P5P0dhGKq5Yzx/OzgFxBP8
re+EIZHrxolbeVldX9Bzkt2d2pZPHJiaOS9p8NKHPzkBuREZ/B+q3x8czFoUqkKq
14wByjoltw4i5Hulkzvnml1jpzn5ApxMyUPyZxwRJHVO9rcRkNchtOd6j0z3YQax
f6qg6VEykqaKvzUH9L/6PNeeHnnFlNgbLhOYb15Ma4YP6oHKFpkk+n1KsAMRd2lP
lGW3pO13XSBrx1OxwiRVbUHb0degp5mlv/MG+wilfbwdHUdhLvfcaSwp94/UR6yP
LOc3lpbnu/d0vUTqlP9bHZIsl6g8g1KLCYMafV958KwnKtfDBZXj2Pwp0VJoZb0m
r0m6VYqyWgPv0Y+1i3Hu0GJCQVWmapHiejnLjNzF0q/MXWJBrpxaW4zU2/G9nZRp
H0Po8ioM0vWewaXpl2eDAYQXzO57dyp2uk8GvQ5G7b+62yBWACOunbUKTEbFyuyQ
Kkwb0lYVp6oaPVeo63NbKG8fW75/cPKkmFOR/Obrp83Jw2ZAgu47fw==
-----END CERTIFICATE-----
