Certificate:
    Data:
        Version: 3 (0x2)
        Serial Number: 268435516 (0x1000003c)
    Signature Algorithm: sha256WithRSAEncryption
        Issuer: CN=CA1_sha256_4096_65537_v3_ca
        Validity
            Not Before: Mar  7 15:06:27 2018 GMT
            Not After : Mar  4 15:06:27 2028 GMT
        Subject: CN=SRK1_sha256_4096_65537_v3_ca
        Subject Public Key Info:
            Public Key Algorithm: rsaEncryption
                Public-Key: (4096 bit)
                Modulus:
                    00:c4:78:bf:b5:ef:83:c2:17:e5:ad:eb:14:ba:f8:
                    15:48:a7:dd:9f:51:46:33:d9:a0:07:61:54:f1:1e:
                    0f:cd:e2:51:1e:ec:e5:6f:3b:56:55:c3:ba:11:a7:
                    dc:5f:99:05:92:3a:2f:92:64:57:ab:9c:b3:3c:15:
                    4c:28:2f:fc:fb:b1:5c:4c:a0:da:37:5a:78:16:fc:
                    90:60:02:b4:86:ae:ea:87:ee:23:c7:40:d5:af:36:
                    3d:4a:18:c3:a8:ea:32:71:83:67:d2:46:13:9e:0f:
                    ef:53:f8:1c:40:b5:b7:e4:e2:f2:be:7a:24:dc:fd:
                    8f:42:0e:bf:13:88:27:93:82:c8:da:66:4b:f4:d3:
                    03:34:0c:1e:a3:69:39:77:2f:e8:2f:35:69:30:19:
                    b8:34:52:c8:35:a6:a6:c9:0f:25:70:b2:15:2d:44:
                    3b:e5:bc:0f:51:eb:2e:11:be:47:09:40:b0:a3:7f:
                    73:de:a9:c5:11:a0:c5:45:d9:f8:23:ff:b2:d8:8f:
                    3d:f4:15:68:52:90:b7:8c:d0:9c:c8:b5:96:70:81:
                    93:c9:c7:04:29:9a:57:48:1a:34:6f:82:40:c9:a1:
                    7c:f2:b0:61:a4:1d:3c:65:6b:ba:76:4a:ce:28:77:
                    d9:86:11:24:5e:5a:f5:94:a2:fd:57:44:82:54:7a:
                    ca:9a:6b:39:dc:03:2b:a0:f3:5d:86:35:4b:5a:89:
                    19:ae:4d:1b:10:c1:e0:f8:6a:a8:14:7a:e1:bd:6a:
                    fd:e9:ce:59:55:88:c8:e5:a6:21:b7:96:46:38:27:
                    64:2b:67:a7:3d:f0:9d:f3:6e:5e:95:16:96:c2:28:
                    8c:a3:34:9f:60:8d:f7:dd:27:46:bb:b3:f0:df:0d:
                    c3:dc:ee:db:0d:3a:7c:9f:65:7f:18:b8:c9:1d:fd:
                    8c:47:62:f5:f3:d1:fc:12:dc:ef:21:32:ee:bc:4c:
                    bf:17:e0:1d:e7:b1:cd:4b:a5:5e:41:53:4f:c0:fa:
                    da:57:ac:52:27:ea:02:48:8c:6f:05:4f:61:e2:eb:
                    70:3a:d2:1f:c0:a2:b4:77:c8:2e:b5:6a:de:3e:29:
                    30:cc:17:65:f5:48:d4:06:20:24:a4:65:e8:50:89:
                    67:a5:ec:fe:6f:25:e8:21:ea:7e:bf:9c:a2:fa:9f:
                    ab:0d:0e:66:8b:da:b5:4a:36:a1:ed:3c:88:8e:e2:
                    23:43:50:7e:be:69:99:79:55:dc:be:54:10:fe:9e:
                    3f:2b:0d:82:92:59:a8:b7:a6:76:39:15:ad:f0:82:
                    28:1d:d1:ce:61:e7:a0:81:ef:57:a1:33:fa:ad:85:
                    46:7e:52:5a:7b:39:7a:d9:34:e8:5d:93:20:71:10:
                    27:50:ab
                Exponent: 65537 (0x10001)
        X509v3 extensions:
            X509v3 Subject Key Identifier: 
                C4:97:9B:02:01:92:81:CC:05:2D:EA:2C:02:17:12:01:D3:EC:BF:B8
            X509v3 Authority Key Identifier: 
                keyid:23:B6:9A:7D:81:09:9C:59:D5:68:D8:7C:E5:F6:18:BE:A1:D5:8F:87
                DirName:/CN=CA1_sha256_4096_65537_v3_ca
                serial:B3:E8:BA:E8:D8:D1:DA:FA

            X509v3 Basic Constraints: critical
                CA:TRUE
            X509v3 Key Usage: 
                Certificate Sign
    Signature Algorithm: sha256WithRSAEncryption
         b4:48:a5:42:02:2e:d9:fa:9c:6b:9d:06:d8:2f:ff:28:da:1f:
         6e:d2:1b:d1:9d:65:e8:9a:a7:b0:6f:cc:de:f5:78:be:4b:87:
         de:e8:49:3a:01:4d:6c:50:15:b2:c5:11:c2:83:d5:5d:9d:13:
         45:3b:ce:3a:53:a0:53:cc:da:f9:4e:e7:2b:51:2a:48:f6:5c:
         c9:e2:4f:fa:85:85:30:b3:e0:61:fd:36:55:78:88:00:91:ee:
         58:63:22:34:95:15:dd:5a:c3:d7:bd:a7:01:db:02:a4:ed:6e:
         bc:37:6c:5e:58:e7:7a:c3:f3:c2:19:02:c5:79:c9:71:61:12:
         66:3e:0a:ea:cb:cc:4a:21:24:28:0b:9d:da:95:3c:d5:8e:74:
         7b:a9:3e:35:38:85:e9:18:2c:60:95:e4:13:4d:35:40:8a:51:
         94:f7:4e:e0:c5:54:2c:3e:47:c1:a8:6e:43:6f:b4:55:39:66:
         2d:2e:b1:28:bb:6d:4d:11:82:98:ab:7f:15:71:9f:8a:e3:c7:
         d9:1e:58:e2:ba:43:b6:15:e9:83:c6:32:8b:cf:bc:f6:93:d5:
         36:d9:35:12:15:b0:47:62:fb:fd:1a:bb:12:31:30:e7:a6:8e:
         3d:22:d8:0f:c9:e6:86:a4:68:2d:38:1f:fb:fa:04:54:f2:d9:
         53:3c:37:11:b5:bc:fc:ea:05:b8:60:3f:5d:06:33:bb:96:4b:
         a1:ef:00:a1:7f:1f:89:cc:79:d2:5e:a0:89:1e:6c:44:05:2e:
         57:67:fe:e7:26:1f:f9:e0:ca:64:3c:27:2d:37:5c:de:bc:21:
         23:43:3b:f2:6e:41:02:3b:64:65:12:12:f3:c4:12:f6:b7:bd:
         9a:1f:86:c7:f6:e8:99:61:6d:c8:87:0d:c2:e2:e7:1a:b0:6e:
         51:0b:89:09:92:65:84:cc:79:1f:ca:b1:a0:a4:bf:38:63:3f:
         d2:11:ae:8d:d7:ed:6a:9b:17:f9:9d:dc:bc:45:b5:e6:2b:67:
         3c:b1:85:23:38:71:c8:b5:56:5d:21:77:c2:18:69:ae:3d:63:
         20:1d:49:c7:0f:d6:b5:13:c7:d6:1a:81:3c:74:c5:e4:81:f5:
         54:54:e8:19:1f:49:e7:e9:15:a6:8f:b3:03:fd:79:6f:33:b8:
         cf:c5:dc:cd:96:30:fe:5e:75:2e:58:df:a8:4c:0d:61:41:b0:
         b1:9f:6f:0c:9e:8c:27:e5:58:45:76:12:c6:75:c0:43:c0:4a:
         cf:ac:48:30:61:de:1f:f1:5a:69:98:19:3c:7e:c0:56:d3:07:
         e9:35:36:4b:de:7c:28:9b:6a:6f:ad:ad:a6:85:5e:f5:cc:d1:
         48:b1:03:c4:10:e2:17:41
-----BEGIN CERTIFICATE-----
MIIFZDCCA0ygAwIBAgIEEAAAPDANBgkqhkiG9w0BAQsFADAmMSQwIgYDVQQDFBtD
QTFfc2hhMjU2XzQwOTZfNjU1MzdfdjNfY2EwHhcNMTgwMzA3MTUwNjI3WhcNMjgw
MzA0MTUwNjI3WjAnMSUwIwYDVQQDDBxTUksxX3NoYTI1Nl80MDk2XzY1NTM3X3Yz
X2NhMIICIjANBgkqhkiG9w0BAQEFAAOCAg8AMIICCgKCAgEAxHi/te+DwhflresU
uvgVSKfdn1FGM9mgB2FU8R4PzeJRHuzlbztWVcO6EafcX5kFkjovkmRXq5yzPBVM
KC/8+7FcTKDaN1p4FvyQYAK0hq7qh+4jx0DVrzY9ShjDqOoycYNn0kYTng/vU/gc
QLW35OLyvnok3P2PQg6/E4gnk4LI2mZL9NMDNAweo2k5dy/oLzVpMBm4NFLINaam
yQ8lcLIVLUQ75bwPUesuEb5HCUCwo39z3qnFEaDFRdn4I/+y2I899BVoUpC3jNCc
yLWWcIGTyccEKZpXSBo0b4JAyaF88rBhpB08ZWu6dkrOKHfZhhEkXlr1lKL9V0SC
VHrKmms53AMroPNdhjVLWokZrk0bEMHg+GqoFHrhvWr96c5ZVYjI5aYht5ZGOCdk
K2enPfCd825elRaWwiiMozSfYI333SdGu7Pw3w3D3O7bDTp8n2V/GLjJHf2MR2L1
89H8EtzvITLuvEy/F+Ad57HNS6VeQVNPwPraV6xSJ+oCSIxvBU9h4utwOtIfwKK0
d8gutWrePikwzBdl9UjUBiAkpGXoUIlnpez+byXoIep+v5yi+p+rDQ5mi9q1Sjah
7TyIjuIjQ1B+vmmZeVXcvlQQ/p4/Kw2Cklmot6Z2ORWt8IIoHdHOYeegge9XoTP6
rYVGflJaezl62TToXZMgcRAnUKsCAwEAAaOBmDCBlTAdBgNVHQ4EFgQUxJebAgGS
gcwFLeosAhcSAdPsv7gwVgYDVR0jBE8wTYAUI7aafYEJnFnVaNh85fYYvqHVj4eh
KqQoMCYxJDAiBgNVBAMUG0NBMV9zaGEyNTZfNDA5Nl82NTUzN192M19jYYIJALPo
uujY0dr6MA8GA1UdEwEB/wQFMAMBAf8wCwYDVR0PBAQDAgIEMA0GCSqGSIb3DQEB
CwUAA4ICAQC0SKVCAi7Z+pxrnQbYL/8o2h9u0hvRnWXomqewb8ze9Xi+S4fe6Ek6
AU1sUBWyxRHCg9VdnRNFO846U6BTzNr5TucrUSpI9lzJ4k/6hYUws+Bh/TZVeIgA
ke5YYyI0lRXdWsPXvacB2wKk7W68N2xeWOd6w/PCGQLFeclxYRJmPgrqy8xKISQo
C53alTzVjnR7qT41OIXpGCxgleQTTTVAilGU907gxVQsPkfBqG5Db7RVOWYtLrEo
u21NEYKYq38VcZ+K48fZHljiukO2FemDxjKLz7z2k9U22TUSFbBHYvv9GrsSMTDn
po49ItgPyeaGpGgtOB/7+gRU8tlTPDcRtbz86gW4YD9dBjO7lkuh7wChfx+JzHnS
XqCJHmxEBS5XZ/7nJh/54MpkPCctN1zevCEjQzvybkECO2RlEhLzxBL2t72aH4bH
9uiZYW3Ihw3C4ucasG5RC4kJkmWEzHkfyrGgpL84Yz/SEa6N1+1qmxf5ndy8RbXm
K2c8sYUjOHHItVZdIXfCGGmuPWMgHUnHD9a1E8fWGoE8dMXkgfVUVOgZH0nn6RWm
j7MD/XlvM7jPxdzNljD+XnUuWN+oTA1hQbCxn28Mnown5VhFdhLGdcBDwErPrEgw
Yd4f8VppmBk8fsBW0wfpNTZL3nwom2pvra2mhV71zNFIsQPEEOIXQQ==
-----END CERTIFICATE-----
