Certificate:
    Data:
        Version: 3 (0x2)
        Serial Number: 268435501 (0x1000002d)
    Signature Algorithm: sha256WithRSAEncryption
        Issuer: CN=CA1_sha256_1024_65537_v3_ca
        Validity
            Not Before: Mar  7 15:06:24 2018 GMT
            Not After : Mar  4 15:06:24 2028 GMT
        Subject: CN=SRK4_sha256_1024_65537_v3_ca
        Subject Public Key Info:
            Public Key Algorithm: rsaEncryption
                Public-Key: (1024 bit)
                Modulus:
                    00:bf:cc:1f:30:65:6f:16:3a:03:fa:d1:8a:58:94:
                    1c:1f:52:ed:94:34:71:8a:4f:27:5b:af:26:ae:9c:
                    ef:5f:f8:bf:66:20:99:2f:fd:aa:68:be:b9:c0:4f:
                    b1:f6:81:d0:28:3f:9a:bb:cb:0a:ca:a0:23:7b:96:
                    28:fc:81:5e:fc:9d:f0:26:e6:09:32:3a:1c:93:a7:
                    5b:9b:ee:ef:6f:a7:11:cc:03:ae:f2:44:e6:9b:d0:
                    2b:e4:fe:dd:25:eb:24:68:16:e5:b4:7a:d0:e8:e9:
                    d7:38:13:2a:14:16:02:d8:a5:7e:77:e4:4c:30:87:
                    49:6c:60:e4:15:7e:13:9f:37
                Exponent: 65537 (0x10001)
        X509v3 extensions:
            X509v3 Subject Key Identifier: 
                0B:90:7A:B0:9F:D9:5C:C7:31:E1:92:D2:53:F4:70:61:9A:E5:8F:D1
            X509v3 Authority Key Identifier: 
                keyid:28:C6:D0:61:49:04:42:6C:49:12:94:50:1E:82:33:76:2A:1A:9D:8D
                DirName:/CN=CA1_sha256_1024_65537_v3_ca
                serial:B9:27:51:35:9A:8B:74:6C

            X509v3 Basic Constraints: critical
                CA:TRUE
            X509v3 Key Usage: 
                Certificate Sign
    Signature Algorithm: sha256WithRSAEncryption
         23:5f:ad:b3:d5:c1:8b:2b:5f:e0:26:87:9f:63:93:87:b9:e4:
         2c:14:eb:dc:39:e1:be:ee:97:83:43:c5:f1:fc:3c:5e:2f:27:
         fe:ce:e7:c0:ee:49:8d:91:6a:13:c0:0c:39:b9:cf:93:dd:16:
         00:1d:25:1e:5d:3a:3e:bd:d8:2a:d8:3f:b7:c4:8c:61:0e:00:
         89:6a:aa:c7:55:b1:d0:a9:a7:2d:14:91:9a:86:ed:a8:1e:ad:
         ba:7d:51:a0:12:68:d1:e3:a8:10:b3:ec:e6:4b:68:53:7b:cc:
         e3:61:8a:60:a0:aa:12:36:e0:43:db:8a:15:35:16:8b:6b:8b:
         ee:2e
-----BEGIN CERTIFICATE-----
MIICXzCCAcigAwIBAgIEEAAALTANBgkqhkiG9w0BAQsFADAmMSQwIgYDVQQDFBtD
QTFfc2hhMjU2XzEwMjRfNjU1MzdfdjNfY2EwHhcNMTgwMzA3MTUwNjI0WhcNMjgw
MzA0MTUwNjI0WjAnMSUwIwYDVQQDDBxTUks0X3NoYTI1Nl8xMDI0XzY1NTM3X3Yz
X2NhMIGfMA0GCSqGSIb3DQEBAQUAA4GNADCBiQKBgQC/zB8wZW8WOgP60YpYlBwf
Uu2UNHGKTydbryaunO9f+L9mIJkv/apovrnAT7H2gdAoP5q7ywrKoCN7lij8gV78
nfAm5gkyOhyTp1ub7u9vpxHMA67yROab0Cvk/t0l6yRoFuW0etDo6dc4EyoUFgLY
pX535Ewwh0lsYOQVfhOfNwIDAQABo4GYMIGVMB0GA1UdDgQWBBQLkHqwn9lcxzHh
ktJT9HBhmuWP0TBWBgNVHSMETzBNgBQoxtBhSQRCbEkSlFAegjN2KhqdjaEqpCgw
JjEkMCIGA1UEAxQbQ0ExX3NoYTI1Nl8xMDI0XzY1NTM3X3YzX2NhggkAuSdRNZqL
dGwwDwYDVR0TAQH/BAUwAwEB/zALBgNVHQ8EBAMCAgQwDQYJKoZIhvcNAQELBQAD
gYEAI1+ts9XBiytf4CaHn2OTh7nkLBTr3Dnhvu6Xg0PF8fw8Xi8n/s7nwO5JjZFq
E8AMObnPk90WAB0lHl06Pr3YKtg/t8SMYQ4AiWqqx1Wx0KmnLRSRmobtqB6tun1R
oBJo0eOoELPs5ktoU3vM42GKYKCqEjbgQ9uKFTUWi2uL7i4=
-----END CERTIFICATE-----
