Certificate:
    Data:
        Version: 3 (0x2)
        Serial Number: 268435495 (0x10000027)
    Signature Algorithm: sha256WithRSAEncryption
        Issuer: CN=CA1_sha256_1024_65537_v3_ca
        Validity
            Not Before: Mar  7 15:06:24 2018 GMT
            Not After : Mar  4 15:06:24 2028 GMT
        Subject: CN=SRK2_sha256_1024_65537_v3_ca
        Subject Public Key Info:
            Public Key Algorithm: rsaEncryption
                Public-Key: (1024 bit)
                Modulus:
                    00:9f:e7:66:e1:a1:e4:73:31:b4:34:35:71:9d:ab:
                    b0:3d:fe:1d:52:3f:9b:17:ed:2b:db:84:a8:6f:6c:
                    20:05:c6:57:01:3d:ab:fd:f8:71:16:25:c6:81:b1:
                    18:4e:54:07:4b:53:1b:6e:0f:20:c1:36:ba:9a:e9:
                    1b:10:05:90:02:d2:5a:7a:69:2b:72:e7:63:e5:9e:
                    10:b7:3d:56:6d:fa:89:51:d2:0b:94:84:60:18:b6:
                    b6:b0:36:1b:1d:2e:3f:95:c4:34:70:35:4f:b5:0c:
                    9b:36:b0:55:df:29:4f:c6:e5:d5:dc:de:66:bc:57:
                    63:b4:0d:a6:4a:a9:cc:02:e9
                Exponent: 65537 (0x10001)
        X509v3 extensions:
            X509v3 Subject Key Identifier: 
                B4:E7:2A:58:4C:75:2E:9C:2F:3B:89:33:08:84:73:F0:0A:10:21:87
            X509v3 Authority Key Identifier: 
                keyid:28:C6:D0:61:49:04:42:6C:49:12:94:50:1E:82:33:76:2A:1A:9D:8D
                DirName:/CN=CA1_sha256_1024_65537_v3_ca
                serial:B9:27:51:35:9A:8B:74:6C

            X509v3 Basic Constraints: critical
                CA:TRUE
            X509v3 Key Usage: 
                Certificate Sign
    Signature Algorithm: sha256WithRSAEncryption
         16:55:30:dc:79:90:66:f1:6e:f1:91:84:0c:5e:ea:40:ca:56:
         a7:ae:cc:f8:1d:ac:7d:74:ef:98:5e:45:1d:fa:5e:b2:d8:84:
         6d:cc:f7:59:c2:bc:89:ea:ca:52:42:97:2d:ae:eb:84:2b:8c:
         5c:4f:81:ea:da:29:ef:05:46:36:35:4f:5f:bc:22:4a:e9:4b:
         77:8c:86:61:ef:fc:ea:3f:d6:0c:f8:3a:10:56:2c:d2:2f:95:
         65:2b:c5:ea:17:80:34:55:50:b8:ea:11:d5:c9:25:cc:e4:fa:
         02:07:b0:de:96:4f:c4:6b:3b:50:89:97:f0:af:7a:19:7d:2b:
         01:e8
-----BEGIN CERTIFICATE-----
MIICXzCCAcigAwIBAgIEEAAAJzANBgkqhkiG9w0BAQsFADAmMSQwIgYDVQQDFBtD
QTFfc2hhMjU2XzEwMjRfNjU1MzdfdjNfY2EwHhcNMTgwMzA3MTUwNjI0WhcNMjgw
MzA0MTUwNjI0WjAnMSUwIwYDVQQDDBxTUksyX3NoYTI1Nl8xMDI0XzY1NTM3X3Yz
X2NhMIGfMA0GCSqGSIb3DQEBAQUAA4GNADCBiQKBgQCf52bhoeRzMbQ0NXGdq7A9
/h1SP5sX7SvbhKhvbCAFxlcBPav9+HEWJcaBsRhOVAdLUxtuDyDBNrqa6RsQBZAC
0lp6aSty52PlnhC3PVZt+olR0guUhGAYtrawNhsdLj+VxDRwNU+1DJs2sFXfKU/G
5dXc3ma8V2O0DaZKqcwC6QIDAQABo4GYMIGVMB0GA1UdDgQWBBS05ypYTHUunC87
iTMIhHPwChAhhzBWBgNVHSMETzBNgBQoxtBhSQRCbEkSlFAegjN2KhqdjaEqpCgw
JjEkMCIGA1UEAxQbQ0ExX3NoYTI1Nl8xMDI0XzY1NTM3X3YzX2NhggkAuSdRNZqL
dGwwDwYDVR0TAQH/BAUwAwEB/zALBgNVHQ8EBAMCAgQwDQYJKoZIhvcNAQELBQAD
gYEAFlUw3HmQZvFu8ZGEDF7qQMpWp67M+B2sfXTvmF5FHfpestiEbcz3WcK8ierK
UkKXLa7rhCuMXE+B6top7wVGNjVPX7wiSulLd4yGYe/86j/WDPg6EFYs0i+VZSvF
6heANFVQuOoR1cklzOT6Agew3pZPxGs7UImX8K96GX0rAeg=
-----END CERTIFICATE-----
