Certificate:
    Data:
        Version: 3 (0x2)
        Serial Number: 268435522 (0x10000042)
    Signature Algorithm: sha256WithRSAEncryption
        Issuer: CN=CA1_sha256_4096_65537_v3_ca
        Validity
            Not Before: Mar  7 15:06:30 2018 GMT
            Not After : Mar  4 15:06:30 2028 GMT
        Subject: CN=SRK3_sha256_4096_65537_v3_ca
        Subject Public Key Info:
            Public Key Algorithm: rsaEncryption
                Public-Key: (4096 bit)
                Modulus:
                    00:a2:e6:28:4f:06:78:59:ac:4a:7f:f3:56:6e:cd:
                    a0:cb:0a:33:9f:14:fb:a7:71:95:a3:dc:9d:4e:ef:
                    82:02:d3:08:c9:28:0b:59:d4:37:ed:4c:be:77:06:
                    ba:a0:0a:75:b4:4c:8e:f4:5b:8e:bf:fd:7d:3d:c1:
                    7e:50:b5:ce:62:8f:e9:20:b1:d5:a4:2d:07:57:99:
                    83:8a:27:94:18:e9:88:55:40:b3:00:cc:b1:eb:45:
                    21:5a:ac:4c:fa:a2:99:50:84:4e:7e:ea:f8:ab:cf:
                    28:56:a9:df:e1:f0:4f:e6:16:fb:ce:fc:f2:70:3c:
                    4e:90:b6:4e:bd:1e:14:fc:1c:e4:27:37:2a:1f:4e:
                    2d:01:ab:41:64:0e:ae:13:be:b2:11:29:91:e0:1a:
                    e2:ee:6b:23:2e:54:ad:6c:b1:54:53:e1:ef:7e:e7:
                    1d:ec:59:67:ee:b2:0b:7b:06:d5:d5:e5:b7:70:ea:
                    41:6e:a3:40:9a:33:51:20:c1:64:0f:93:02:46:4e:
                    e9:db:fe:90:91:43:84:32:04:9b:4d:95:a7:eb:0c:
                    89:20:4f:28:5b:a5:f6:a1:83:46:15:dd:cc:47:c8:
                    7f:16:cb:2d:33:34:1b:f2:44:e0:ab:fd:6d:57:f3:
                    c3:fc:44:d6:7f:46:50:ad:16:79:1c:3e:00:e5:cc:
                    73:cb:53:6c:ac:56:57:93:44:55:b4:eb:e4:6b:7c:
                    b5:dc:3f:01:01:41:4f:f6:05:d5:42:5d:9b:ad:ff:
                    be:63:0a:f9:c9:3c:33:5f:bb:45:45:4c:91:6a:b2:
                    4a:f0:cf:1c:fa:66:51:b9:38:80:d5:6b:74:c8:83:
                    aa:5f:50:ec:f2:03:67:38:1a:57:c2:c1:ca:1c:10:
                    35:fb:9b:5f:7c:4f:ca:e7:9a:51:cb:19:c3:2a:5a:
                    98:a3:61:fa:25:7e:a1:59:61:e2:74:53:6f:6c:f1:
                    65:f7:b9:0b:05:67:6a:c8:d1:9a:22:5f:e4:08:9a:
                    0c:cb:3d:47:03:66:3c:67:7e:b6:29:02:1f:b4:0b:
                    1e:39:4b:17:4c:82:cd:85:b2:a7:c6:f2:e0:07:c8:
                    b4:5a:25:e9:9e:4a:39:ff:b4:fb:eb:ab:b3:ed:00:
                    cb:04:57:91:76:c2:de:0b:65:e0:e1:89:b3:6c:85:
                    48:d8:2d:9a:20:d7:ed:8e:20:0d:8a:69:34:f9:e5:
                    80:e6:c2:e8:3c:c8:24:da:c9:2d:e5:ad:a8:cb:42:
                    02:36:5d:7b:ed:ed:0d:c1:6d:54:3b:8d:9f:c4:c0:
                    3b:be:fa:c0:a0:f7:e7:66:54:c5:57:6a:9e:0a:8d:
                    c1:d4:63:f6:9f:99:0c:47:02:db:0c:2e:5e:7c:bc:
                    bb:c8:4f
                Exponent: 65537 (0x10001)
        X509v3 extensions:
            X509v3 Subject Key Identifier: 
                60:B4:F1:D8:95:3F:DF:B1:F3:27:E7:7E:00:9F:45:5D:14:83:67:EB
            X509v3 Authority Key Identifier: 
                keyid:23:B6:9A:7D:81:09:9C:59:D5:68:D8:7C:E5:F6:18:BE:A1:D5:8F:87
                DirName:/CN=CA1_sha256_4096_65537_v3_ca
                serial:B3:E8:BA:E8:D8:D1:DA:FA

            X509v3 Basic Constraints: critical
                CA:TRUE
            X509v3 Key Usage: 
                Certificate Sign
    Signature Algorithm: sha256WithRSAEncryption
         6e:7a:f9:5f:74:91:9c:45:0a:6d:68:58:ba:ec:0b:81:a2:9d:
         9c:9e:44:30:68:8c:e6:a4:53:4e:71:ff:7b:67:85:3a:56:a0:
         82:d9:18:23:f0:57:73:d2:45:19:39:59:3d:37:2a:ff:2d:33:
         29:e0:91:37:2f:1c:44:d1:54:9a:cf:eb:86:e2:04:be:f7:e9:
         9f:65:28:a8:07:4c:61:42:75:28:d2:be:1f:64:6b:e1:42:25:
         98:43:1e:aa:29:6b:bd:f6:e8:5c:a6:f9:e6:8b:c1:7c:73:d6:
         df:9c:b5:a9:19:53:c9:f3:7f:41:11:8a:33:b2:fa:d6:77:37:
         c1:b8:37:33:81:1e:2f:80:10:ea:cf:f8:8d:7c:b7:bc:d5:5a:
         72:98:39:3e:f4:4c:1c:65:e2:a8:35:5a:60:e2:d7:92:3c:03:
         e7:65:ec:05:30:31:79:28:98:66:4f:40:57:89:31:07:8a:b3:
         f7:0b:c3:68:f5:8d:fe:3d:d1:d0:f7:10:6c:81:97:06:ea:75:
         4a:19:66:78:67:60:32:8a:63:82:7b:4a:22:a6:e5:29:1a:e6:
         f0:07:8e:09:04:74:f4:ab:2a:36:f9:79:f7:da:57:ca:07:8d:
         2d:99:b1:1a:5f:31:e0:ba:5a:d3:58:1b:4e:f0:a2:d3:2c:1e:
         22:d4:99:f4:50:9b:55:98:84:ed:b1:46:bf:e2:96:86:e0:bf:
         44:c4:85:f9:a5:f1:0c:77:2b:33:1b:a8:e4:5d:48:2e:4f:44:
         6c:2e:ad:4d:91:88:e3:a5:9b:f7:b6:ed:26:bf:8a:bc:dd:e4:
         20:7f:6b:a5:93:34:d5:ae:92:2d:a0:24:cb:35:a7:dc:f7:e7:
         39:73:9e:76:87:33:fc:cc:98:91:38:76:00:e7:e4:3b:fa:05:
         66:eb:68:bc:8f:e3:f5:a9:27:65:0e:7c:4f:9d:97:04:6c:e1:
         df:81:1b:eb:82:fc:95:3e:d0:f1:db:e6:9a:d2:b4:bc:5f:d4:
         68:13:ce:cc:4a:87:69:e0:40:69:7e:23:c0:0d:17:e4:8d:90:
         c5:7b:3d:ad:40:d7:1a:8e:0c:c1:15:06:5d:a2:90:9e:8a:22:
         eb:85:20:6d:b8:08:ea:51:3d:82:8a:ea:41:7d:8f:48:74:72:
         2f:60:66:7b:c0:72:12:2f:da:34:e4:42:57:ee:46:dc:d0:3d:
         a2:7e:8b:12:9e:8e:db:8f:fd:d5:55:b4:a6:40:69:b1:d7:f4:
         10:b3:46:07:d3:be:69:d4:33:24:22:59:00:a7:7d:53:da:32:
         11:c1:2c:91:cf:55:48:7d:2a:66:ee:0a:9c:eb:45:ab:b6:46:
         5a:94:a2:89:23:f3:a6:cb
-----BEGIN CERTIFICATE-----
MIIFZDCCA0ygAwIBAgIEEAAAQjANBgkqhkiG9w0BAQsFADAmMSQwIgYDVQQDFBtD
QTFfc2hhMjU2XzQwOTZfNjU1MzdfdjNfY2EwHhcNMTgwMzA3MTUwNjMwWhcNMjgw
MzA0MTUwNjMwWjAnMSUwIwYDVQQDDBxTUkszX3NoYTI1Nl80MDk2XzY1NTM3X3Yz
X2NhMIICIjANBgkqhkiG9w0BAQEFAAOCAg8AMIICCgKCAgEAouYoTwZ4WaxKf/NW
bs2gywoznxT7p3GVo9ydTu+CAtMIySgLWdQ37Uy+dwa6oAp1tEyO9FuOv/19PcF+
ULXOYo/pILHVpC0HV5mDiieUGOmIVUCzAMyx60UhWqxM+qKZUIROfur4q88oVqnf
4fBP5hb7zvzycDxOkLZOvR4U/BzkJzcqH04tAatBZA6uE76yESmR4Bri7msjLlSt
bLFUU+Hvfucd7Fln7rILewbV1eW3cOpBbqNAmjNRIMFkD5MCRk7p2/6QkUOEMgSb
TZWn6wyJIE8oW6X2oYNGFd3MR8h/FsstMzQb8kTgq/1tV/PD/ETWf0ZQrRZ5HD4A
5cxzy1NsrFZXk0RVtOvka3y13D8BAUFP9gXVQl2brf++Ywr5yTwzX7tFRUyRarJK
8M8c+mZRuTiA1Wt0yIOqX1Ds8gNnOBpXwsHKHBA1+5tffE/K55pRyxnDKlqYo2H6
JX6hWWHidFNvbPFl97kLBWdqyNGaIl/kCJoMyz1HA2Y8Z362KQIftAseOUsXTILN
hbKnxvLgB8i0WiXpnko5/7T766uz7QDLBFeRdsLeC2Xg4YmzbIVI2C2aINftjiAN
imk0+eWA5sLoPMgk2skt5a2oy0ICNl177e0NwW1UO42fxMA7vvrAoPfnZlTFV2qe
Co3B1GP2n5kMRwLbDC5efLy7yE8CAwEAAaOBmDCBlTAdBgNVHQ4EFgQUYLTx2JU/
37HzJ+d+AJ9FXRSDZ+swVgYDVR0jBE8wTYAUI7aafYEJnFnVaNh85fYYvqHVj4eh
KqQoMCYxJDAiBgNVBAMUG0NBMV9zaGEyNTZfNDA5Nl82NTUzN192M19jYYIJALPo
uujY0dr6MA8GA1UdEwEB/wQFMAMBAf8wCwYDVR0PBAQDAgIEMA0GCSqGSIb3DQEB
CwUAA4ICAQBuevlfdJGcRQptaFi67AuBop2cnkQwaIzmpFNOcf97Z4U6VqCC2Rgj
8Fdz0kUZOVk9Nyr/LTMp4JE3LxxE0VSaz+uG4gS+9+mfZSioB0xhQnUo0r4fZGvh
QiWYQx6qKWu99uhcpvnmi8F8c9bfnLWpGVPJ839BEYozsvrWdzfBuDczgR4vgBDq
z/iNfLe81VpymDk+9EwcZeKoNVpg4teSPAPnZewFMDF5KJhmT0BXiTEHirP3C8No
9Y3+PdHQ9xBsgZcG6nVKGWZ4Z2AyimOCe0oipuUpGubwB44JBHT0qyo2+Xn32lfK
B40tmbEaXzHgulrTWBtO8KLTLB4i1Jn0UJtVmITtsUa/4paG4L9ExIX5pfEMdysz
G6jkXUguT0RsLq1NkYjjpZv3tu0mv4q83eQgf2ulkzTVrpItoCTLNafc9+c5c552
hzP8zJiROHYA5+Q7+gVm62i8j+P1qSdlDnxPnZcEbOHfgRvrgvyVPtDx2+aa0rS8
X9RoE87MSodp4EBpfiPADRfkjZDFez2tQNcajgzBFQZdopCeiiLrhSBtuAjqUT2C
iupBfY9IdHIvYGZ7wHISL9o05EJX7kbc0D2ifosSno7bj/3VVbSmQGmx1/QQs0YH
075p1DMkIlkAp31T2jIRwSyRz1VIfSpm7gqc60WrtkZalKKJI/Omyw==
-----END CERTIFICATE-----
