Certificate:
    Data:
        Version: 3 (0x2)
        Serial Number: 268435553 (0x10000061)
    Signature Algorithm: sha256WithRSAEncryption
        Issuer: CN=SRK1_sha256_4096_65537_v3_ca
        Validity
            Not Before: Mar  7 15:13:34 2018 GMT
            Not After : Mar  4 15:13:34 2028 GMT
        Subject: CN=CSF1_1_sha256_4096_65537_v3_usr
        Subject Public Key Info:
            Public Key Algorithm: rsaEncryption
                Public-Key: (4096 bit)
                Modulus:
                    00:db:55:b7:f3:e9:b6:29:43:b7:40:71:9e:57:fe:
                    dc:6c:16:3f:bb:f4:5d:c0:bc:66:ee:8c:fa:86:74:
                    1c:1d:1f:90:d2:c8:55:2b:dc:d8:d4:d6:97:9c:56:
                    1e:d5:19:7a:b9:46:f9:78:0d:09:7f:d3:ba:7a:3d:
                    a3:96:a3:86:5b:8a:35:44:90:a0:a5:f0:27:28:0d:
                    47:de:19:08:e5:62:dd:a6:0a:0e:66:2d:22:73:9e:
                    cb:c0:3c:e1:c1:ef:94:56:94:75:32:6c:32:92:06:
                    b6:ff:b8:32:bd:ca:9a:98:7c:93:c9:1f:d9:05:b0:
                    f8:91:c1:b1:ab:59:69:bc:fe:b2:f0:c6:23:fa:66:
                    50:66:09:a1:15:63:a3:ac:e8:29:0c:41:c6:19:f5:
                    60:54:18:7e:4b:a0:20:46:38:ca:49:f6:2f:53:a2:
                    1d:84:11:00:3d:64:80:2d:c5:e0:39:ea:c6:43:41:
                    f5:20:b0:af:48:7a:e5:e9:7c:cb:2a:c1:47:58:f6:
                    e3:3d:84:32:79:1b:23:b2:bc:35:47:ef:ec:50:b7:
                    ff:8a:b0:40:53:0b:e3:6e:38:d7:49:c1:2b:b2:62:
                    27:d2:5b:eb:62:6c:86:4f:72:a1:53:a6:d0:04:0a:
                    4b:5d:1b:d8:ff:00:c4:09:a1:ae:bc:d9:d1:e3:20:
                    1e:1b:af:91:3e:59:ca:f7:ed:37:74:05:89:d1:fd:
                    17:86:02:32:e9:81:f2:21:b0:ed:ac:80:96:d0:ee:
                    c4:2b:e1:91:a2:f5:67:49:9e:27:a2:34:01:f6:66:
                    f8:d9:c6:eb:a3:f6:db:70:a8:61:74:4c:16:fe:0a:
                    a4:29:ae:83:e6:4d:66:9b:83:c6:b9:f8:26:cd:69:
                    79:ce:05:a8:fd:68:ae:ba:03:b5:e7:57:d3:e4:21:
                    01:bd:56:c8:54:ad:c1:e9:ad:e4:8a:d9:c2:f6:c4:
                    fd:7a:bd:e2:36:72:56:c3:46:6f:08:e0:e5:d1:5b:
                    8c:fe:e7:8d:5a:4d:1d:05:9d:a8:fa:61:3d:ce:0d:
                    04:93:a4:93:1d:40:ac:0f:af:ed:c5:4c:06:fb:c6:
                    1c:69:7b:c7:29:5b:3c:6d:4e:3c:47:be:22:c6:e4:
                    bb:d7:5d:42:da:c2:fb:b5:f6:d1:0d:93:96:49:0b:
                    d1:30:07:b9:24:60:21:ac:2b:65:53:50:d5:e3:bb:
                    78:f6:f1:96:90:fd:37:6f:85:0f:1f:9a:23:0b:d8:
                    c6:fa:db:83:a9:80:f4:34:86:c2:68:ea:17:0a:0b:
                    de:14:d0:76:18:41:ea:01:da:f3:d7:06:d7:12:56:
                    a2:19:f9:2e:ea:db:55:a9:00:8e:5f:01:c2:0a:89:
                    2d:32:6b
                Exponent: 65537 (0x10001)
        X509v3 extensions:
            X509v3 Basic Constraints: 
                CA:FALSE
            Netscape Comment: 
                OpenSSL Generated Certificate
            X509v3 Subject Key Identifier: 
                36:C5:D9:FB:ED:5A:8C:62:0A:4A:89:2D:81:1D:35:1A:3A:AD:6F:78
            X509v3 Authority Key Identifier: 
                keyid:49:C4:19:6F:44:F8:97:D4:51:67:CB:70:A3:EF:20:64:18:BF:3B:15

    Signature Algorithm: sha256WithRSAEncryption
         2f:a5:d7:aa:02:30:77:63:1d:0f:bb:a2:4f:c5:78:20:6f:c9:
         19:13:11:ef:00:02:c8:65:e1:58:b3:69:a7:6f:16:2c:66:3d:
         6c:9e:81:b5:b2:7c:41:f1:9b:75:38:20:51:e1:43:71:e2:4b:
         fc:99:b6:c7:ed:9b:e2:bf:f6:bf:2c:bc:b2:9e:c3:2e:5b:ec:
         b6:e7:1b:e7:36:e1:d2:3f:fc:c8:24:fc:fe:ae:53:bf:b4:04:
         82:51:e9:7d:cf:bf:a2:4c:6e:27:a5:19:4a:c6:f3:03:d6:93:
         e1:37:11:af:10:99:e6:0b:a3:ff:c8:92:f9:65:4a:fd:15:53:
         31:a4:8a:71:22:99:16:4e:4a:ee:45:84:23:a9:51:4c:3c:61:
         49:1c:7d:b7:6e:d7:7f:50:7f:04:c1:4e:fb:be:3f:9a:d6:6d:
         09:f6:33:d4:c0:cb:31:c0:bb:1e:40:23:80:a4:9d:e4:a3:28:
         ce:9e:d3:5f:ad:a5:a6:14:99:77:af:c1:98:43:5f:00:cb:34:
         f9:28:48:90:e8:94:53:d8:e5:71:8a:c6:e7:a7:18:b1:96:d1:
         bd:ab:c1:e9:4f:27:da:fc:cd:97:d4:68:d4:f4:c3:e6:99:36:
         62:2a:dc:ff:4d:a7:66:8d:3c:bf:58:66:74:0b:54:90:f4:11:
         e2:a9:5d:ac:55:08:19:ca:07:7e:fb:b1:bd:b7:27:d1:ab:fd:
         45:20:ad:68:b1:5c:cc:4e:07:d2:2b:d1:7d:55:4a:35:5d:2c:
         3f:28:ee:2f:90:89:39:c7:0c:6c:b0:ec:c2:71:81:07:e1:e6:
         f3:16:00:fe:19:10:19:7f:99:c4:c4:8a:7d:e1:0e:60:71:8a:
         3b:eb:92:90:9d:c4:b8:af:2c:d2:ee:b3:78:f6:90:c7:ea:b8:
         8f:37:be:75:8e:56:d8:91:bd:a8:8a:bb:91:3b:14:df:05:35:
         ff:9b:75:d6:ac:2b:d1:e9:bd:37:03:9e:77:60:e1:b4:f9:43:
         f6:a3:50:98:3d:d6:99:dc:3a:88:93:8b:52:f9:d2:62:5c:84:
         60:8c:7c:27:b3:4c:e7:96:c0:35:9b:d3:ec:da:b5:24:0d:f1:
         12:68:79:8f:2c:1c:53:3a:e5:3a:e2:6b:6d:d1:ff:92:85:89:
         a1:27:4a:1c:94:1d:b7:5f:f5:12:81:50:e4:33:3b:57:58:0e:
         95:e7:0f:89:91:48:c7:2b:68:de:b1:7a:f2:01:ad:8e:c8:e4:
         7c:89:04:f5:e9:81:b9:f3:5e:5b:d9:55:eb:0b:e3:47:1d:51:
         28:65:11:e7:62:15:6e:fd:a8:f2:60:af:4c:51:40:5c:44:39:
         9e:49:fc:6c:b3:24:25:8e
-----BEGIN CERTIFICATE-----
MIIFSjCCAzKgAwIBAgIEEAAAYTANBgkqhkiG9w0BAQsFADAnMSUwIwYDVQQDDBxT
UksxX3NoYTI1Nl80MDk2XzY1NTM3X3YzX2NhMB4XDTE4MDMwNzE1MTMzNFoXDTI4
MDMwNDE1MTMzNFowKjEoMCYGA1UEAwwfQ1NGMV8xX3NoYTI1Nl80MDk2XzY1NTM3
X3YzX3VzcjCCAiIwDQYJKoZIhvcNAQEBBQADggIPADCCAgoCggIBANtVt/PptilD
t0Bxnlf+3GwWP7v0XcC8Zu6M+oZ0HB0fkNLIVSvc2NTWl5xWHtUZerlG+XgNCX/T
uno9o5ajhluKNUSQoKXwJygNR94ZCOVi3aYKDmYtInOey8A84cHvlFaUdTJsMpIG
tv+4Mr3Kmph8k8kf2QWw+JHBsatZabz+svDGI/pmUGYJoRVjo6zoKQxBxhn1YFQY
fkugIEY4ykn2L1OiHYQRAD1kgC3F4DnqxkNB9SCwr0h65el8yyrBR1j24z2EMnkb
I7K8NUfv7FC3/4qwQFML424410nBK7JiJ9Jb62Jshk9yoVOm0AQKS10b2P8AxAmh
rrzZ0eMgHhuvkT5ZyvftN3QFidH9F4YCMumB8iGw7ayAltDuxCvhkaL1Z0meJ6I0
AfZm+NnG66P223CoYXRMFv4KpCmug+ZNZpuDxrn4Js1pec4FqP1orroDtedX0+Qh
Ab1WyFStwemt5IrZwvbE/Xq94jZyVsNGbwjg5dFbjP7njVpNHQWdqPphPc4NBJOk
kx1ArA+v7cVMBvvGHGl7xylbPG1OPEe+Isbku9ddQtrC+7X20Q2TlkkL0TAHuSRg
IawrZVNQ1eO7ePbxlpD9N2+FDx+aIwvYxvrbg6mA9DSGwmjqFwoL3hTQdhhB6gHa
89cG1xJWohn5LurbVakAjl8BwgqJLTJrAgMBAAGjezB5MAkGA1UdEwQCMAAwLAYJ
YIZIAYb4QgENBB8WHU9wZW5TU0wgR2VuZXJhdGVkIENlcnRpZmljYXRlMB0GA1Ud
DgQWBBQ2xdn77VqMYgpKiS2BHTUaOq1veDAfBgNVHSMEGDAWgBRJxBlvRPiX1FFn
y3Cj7yBkGL87FTANBgkqhkiG9w0BAQsFAAOCAgEAL6XXqgIwd2MdD7uiT8V4IG/J
GRMR7wACyGXhWLNpp28WLGY9bJ6BtbJ8QfGbdTggUeFDceJL/Jm2x+2b4r/2vyy8
sp7DLlvstucb5zbh0j/8yCT8/q5Tv7QEglHpfc+/okxuJ6UZSsbzA9aT4TcRrxCZ
5guj/8iS+WVK/RVTMaSKcSKZFk5K7kWEI6lRTDxhSRx9t27Xf1B/BMFO+74/mtZt
CfYz1MDLMcC7HkAjgKSd5KMozp7TX62lphSZd6/BmENfAMs0+ShIkOiUU9jlcYrG
56cYsZbRvavB6U8n2vzNl9Ro1PTD5pk2Yirc/02nZo08v1hmdAtUkPQR4qldrFUI
GcoHfvuxvbcn0av9RSCtaLFczE4H0ivRfVVKNV0sPyjuL5CJOccMbLDswnGBB+Hm
8xYA/hkQGX+ZxMSKfeEOYHGKO+uSkJ3EuK8s0u6zePaQx+q4jze+dY5W2JG9qIq7
kTsU3wU1/5t11qwr0em9NwOed2DhtPlD9qNQmD3Wmdw6iJOLUvnSYlyEYIx8J7NM
55bANZvT7Nq1JA3xEmh5jywcUzrlOuJrbdH/koWJoSdKHJQdt1/1EoFQ5DM7V1gO
lecPiZFIxyto3rF68gGtjsjkfIkE9emBufNeW9lV6wvjRx1RKGUR52IVbv2o8mCv
TFFAXEQ5nkn8bLMkJY4=
-----END CERTIFICATE-----
