Certificate:
    Data:
        Version: 3 (0x2)
        Serial Number: 268435529 (0x10000049)
    Signature Algorithm: sha256WithRSAEncryption
        Issuer: CN=SRK1_sha256_1024_65537_v3_ca
        Validity
            Not Before: Mar  7 15:13:29 2018 GMT
            Not After : Mar  4 15:13:29 2028 GMT
        Subject: CN=CSF1_1_sha256_1024_65537_v3_usr
        Subject Public Key Info:
            Public Key Algorithm: rsaEncryption
                Public-Key: (1024 bit)
                Modulus:
                    00:ce:22:84:d1:d9:fc:fd:5d:7e:06:0c:be:e7:8c:
                    70:44:a0:9d:a8:19:81:12:c9:7d:bb:53:8d:6e:a8:
                    d0:d3:86:a0:a9:32:d0:f0:bb:b4:fb:14:96:cb:d9:
                    d8:dc:45:dc:15:2a:d8:13:1e:49:c0:7b:9f:d9:6c:
                    1f:ae:fa:3f:c4:c5:ae:6d:b1:f9:bb:a6:65:86:80:
                    0a:87:60:b3:cf:a6:fa:b7:a0:2f:1b:cc:b7:eb:33:
                    5d:cd:b6:2a:b1:95:0e:72:66:18:5c:31:9e:19:33:
                    31:b0:8a:07:7e:4a:3b:3d:d1:e4:84:5d:96:da:5a:
                    c7:5a:69:17:c9:de:3b:ac:21
                Exponent: 65537 (0x10001)
        X509v3 extensions:
            X509v3 Basic Constraints: 
                CA:FALSE
            Netscape Comment: 
                OpenSSL Generated Certificate
            X509v3 Subject Key Identifier: 
                CA:C3:CF:5F:B6:94:14:61:FE:7A:55:93:71:48:18:50:DC:C7:80:97
            X509v3 Authority Key Identifier: 
                keyid:D7:53:2A:32:D6:72:47:26:19:BA:12:27:6A:B1:DB:92:50:29:A8:A5

    Signature Algorithm: sha256WithRSAEncryption
         38:51:40:08:cf:dc:90:31:ab:de:5d:30:c7:7b:ab:0f:07:d0:
         f0:f7:95:67:35:21:07:d4:db:18:ec:36:8a:1c:e8:06:bb:ea:
         6b:e8:8b:dd:af:92:98:d2:b1:c7:22:ff:79:e4:85:ce:71:a5:
         c3:e2:2b:cd:46:c0:80:e5:ef:b6:6c:93:89:f3:8f:5b:73:7e:
         a6:5f:b3:de:80:b0:0b:e0:ab:e5:ac:f5:52:d4:25:17:84:22:
         14:09:60:97:b0:e2:62:39:93:d2:68:80:0a:4f:df:37:b8:f3:
         64:43:77:b8:b7:34:dd:5b:35:e8:fd:28:49:fd:55:96:6c:f5:
         0d:f6
-----BEGIN CERTIFICATE-----
MIICRTCCAa6gAwIBAgIEEAAASTANBgkqhkiG9w0BAQsFADAnMSUwIwYDVQQDDBxT
UksxX3NoYTI1Nl8xMDI0XzY1NTM3X3YzX2NhMB4XDTE4MDMwNzE1MTMyOVoXDTI4
MDMwNDE1MTMyOVowKjEoMCYGA1UEAwwfQ1NGMV8xX3NoYTI1Nl8xMDI0XzY1NTM3
X3YzX3VzcjCBnzANBgkqhkiG9w0BAQEFAAOBjQAwgYkCgYEAziKE0dn8/V1+Bgy+
54xwRKCdqBmBEsl9u1ONbqjQ04agqTLQ8Lu0+xSWy9nY3EXcFSrYEx5JwHuf2Wwf
rvo/xMWubbH5u6ZlhoAKh2Czz6b6t6AvG8y36zNdzbYqsZUOcmYYXDGeGTMxsIoH
fko7PdHkhF2W2lrHWmkXyd47rCECAwEAAaN7MHkwCQYDVR0TBAIwADAsBglghkgB
hvhCAQ0EHxYdT3BlblNTTCBHZW5lcmF0ZWQgQ2VydGlmaWNhdGUwHQYDVR0OBBYE
FMrDz1+2lBRh/npVk3FIGFDcx4CXMB8GA1UdIwQYMBaAFNdTKjLWckcmGboSJ2qx
25JQKailMA0GCSqGSIb3DQEBCwUAA4GBADhRQAjP3JAxq95dMMd7qw8H0PD3lWc1
IQfU2xjsNooc6Aa76mvoi92vkpjSscci/3nkhc5xpcPiK81GwIDl77Zsk4nzj1tz
fqZfs96AsAvgq+Ws9VLUJReEIhQJYJew4mI5k9JogApP3ze482RDd7i3NN1bNej9
KEn9VZZs9Q32
-----END CERTIFICATE-----
