Certificate:
    Data:
        Version: 3 (0x2)
        Serial Number: 268435541 (0x10000055)
    Signature Algorithm: sha256WithRSAEncryption
        Issuer: CN=SRK1_sha256_2048_65537_v3_ca
        Validity
            Not Before: Mar  7 15:13:30 2018 GMT
            Not After : Mar  4 15:13:30 2028 GMT
        Subject: CN=CSF1_1_sha256_2048_65537_v3_usr
        Subject Public Key Info:
            Public Key Algorithm: rsaEncryption
                Public-Key: (2048 bit)
                Modulus:
                    00:9b:ff:42:4f:6c:63:c5:26:80:5c:1b:cf:26:5d:
                    6e:74:84:d8:43:25:a6:b2:a3:e6:6f:eb:c2:90:76:
                    0c:a9:0d:82:e4:a5:17:63:4b:16:f5:a2:5e:87:64:
                    bf:90:58:da:2f:81:3a:c6:3e:48:37:21:d2:c1:0d:
                    c4:46:80:cb:9c:82:f2:53:9a:ec:b1:63:67:b9:14:
                    3f:21:b0:33:fb:91:42:38:a0:0d:8d:c9:f7:0d:31:
                    06:b5:81:54:e6:30:6f:7c:b2:68:78:82:61:6a:8c:
                    1d:e6:f7:d5:99:87:11:8d:bf:53:72:a9:10:38:2b:
                    9f:1e:c1:43:7b:68:da:c9:e5:17:c1:91:d7:2c:ba:
                    66:4b:2a:68:1b:2d:a1:f3:1f:f2:82:69:1c:1e:e1:
                    bd:2c:a4:ae:13:9e:e4:99:10:09:e2:5e:01:13:2f:
                    86:1f:3f:c6:c1:51:10:61:4a:3c:52:8f:fe:fe:7c:
                    c1:41:04:7b:46:46:1d:26:ac:dd:39:8f:11:fc:50:
                    c0:c7:31:83:0b:be:35:2f:13:80:94:e4:6d:09:c9:
                    ef:74:8e:99:7f:86:5a:56:09:df:8b:32:d9:a5:66:
                    85:e5:9a:df:43:6b:33:1a:5a:17:54:b5:6b:83:2b:
                    27:25:fe:f3:8a:65:8c:fd:97:24:38:bf:51:9e:3a:
                    25:23
                Exponent: 65537 (0x10001)
        X509v3 extensions:
            X509v3 Basic Constraints: 
                CA:FALSE
            Netscape Comment: 
                OpenSSL Generated Certificate
            X509v3 Subject Key Identifier: 
                66:03:85:56:1A:E7:77:86:6E:60:DD:2D:DB:DB:D6:00:49:56:3F:4E
            X509v3 Authority Key Identifier: 
                keyid:83:51:E2:3E:A6:86:D1:75:4A:F5:A3:BF:11:E7:36:71:03:8F:E2:85

    Signature Algorithm: sha256WithRSAEncryption
         5c:fa:cd:24:9c:59:3a:6e:49:90:e8:d6:8b:6e:eb:f8:b5:1b:
         30:57:f0:92:82:47:70:17:32:4b:0a:fd:14:b9:39:3e:7e:94:
         a7:cf:72:84:06:49:15:8f:2f:5a:65:67:d0:a4:ae:15:46:85:
         ad:c3:f9:1d:37:10:00:57:22:8f:34:69:07:b9:35:b5:3e:64:
         13:41:98:14:22:5b:db:38:84:95:0c:81:77:e9:ae:f3:1f:d6:
         57:d6:e8:f0:ce:d5:47:24:d3:6b:b5:6e:b0:bf:c5:ce:9c:34:
         ed:79:2f:e1:e1:7a:e0:3b:92:c7:4c:2c:e0:9c:91:24:12:3b:
         67:dc:97:82:c7:84:41:1a:7f:36:76:61:51:14:1f:e2:ba:f6:
         15:7e:fc:a1:be:29:07:0b:ba:ef:c6:0a:1e:27:4e:e8:07:b3:
         c5:fa:43:c9:5f:a1:08:7c:49:66:56:90:af:f8:45:05:29:26:
         4f:59:65:04:0a:ac:a8:e7:ff:99:f1:ec:8b:9f:6d:81:a1:86:
         cc:72:aa:79:dd:3c:71:73:00:9a:76:b5:20:6e:f5:f0:b3:7f:
         c9:ee:ab:21:b4:16:c0:7e:ce:6b:37:5a:7b:0e:f1:d9:2a:61:
         e6:56:ab:a1:ed:da:b0:16:9c:2f:c1:aa:92:a0:64:7b:5e:b9:
         b7:9f:f9:d7
-----BEGIN CERTIFICATE-----
MIIDSjCCAjKgAwIBAgIEEAAAVTANBgkqhkiG9w0BAQsFADAnMSUwIwYDVQQDDBxT
UksxX3NoYTI1Nl8yMDQ4XzY1NTM3X3YzX2NhMB4XDTE4MDMwNzE1MTMzMFoXDTI4
MDMwNDE1MTMzMFowKjEoMCYGA1UEAwwfQ1NGMV8xX3NoYTI1Nl8yMDQ4XzY1NTM3
X3YzX3VzcjCCASIwDQYJKoZIhvcNAQEBBQADggEPADCCAQoCggEBAJv/Qk9sY8Um
gFwbzyZdbnSE2EMlprKj5m/rwpB2DKkNguSlF2NLFvWiXodkv5BY2i+BOsY+SDch
0sENxEaAy5yC8lOa7LFjZ7kUPyGwM/uRQjigDY3J9w0xBrWBVOYwb3yyaHiCYWqM
Heb31ZmHEY2/U3KpEDgrnx7BQ3to2snlF8GR1yy6ZksqaBstofMf8oJpHB7hvSyk
rhOe5JkQCeJeARMvhh8/xsFREGFKPFKP/v58wUEEe0ZGHSas3TmPEfxQwMcxgwu+
NS8TgJTkbQnJ73SOmX+GWlYJ34sy2aVmheWa30NrMxpaF1S1a4MrJyX+84pljP2X
JDi/UZ46JSMCAwEAAaN7MHkwCQYDVR0TBAIwADAsBglghkgBhvhCAQ0EHxYdT3Bl
blNTTCBHZW5lcmF0ZWQgQ2VydGlmaWNhdGUwHQYDVR0OBBYEFGYDhVYa53eGbmDd
Ldvb1gBJVj9OMB8GA1UdIwQYMBaAFINR4j6mhtF1SvWjvxHnNnEDj+KFMA0GCSqG
SIb3DQEBCwUAA4IBAQBc+s0knFk6bkmQ6NaLbuv4tRswV/CSgkdwFzJLCv0UuTk+
fpSnz3KEBkkVjy9aZWfQpK4VRoWtw/kdNxAAVyKPNGkHuTW1PmQTQZgUIlvbOISV
DIF36a7zH9ZX1ujwztVHJNNrtW6wv8XOnDTteS/h4XrgO5LHTCzgnJEkEjtn3JeC
x4RBGn82dmFRFB/iuvYVfvyhvikHC7rvxgoeJ07oB7PF+kPJX6EIfElmVpCv+EUF
KSZPWWUECqyo5/+Z8eyLn22BoYbMcqp53TxxcwCadrUgbvXws3/J7qshtBbAfs5r
N1p7DvHZKmHmVquh7dqwFpwvwaqSoGR7Xrm3n/nX
-----END CERTIFICATE-----
