Certificate:
    Data:
        Version: 3 (0x2)
        Serial Number: 268435544 (0x10000058)
    Signature Algorithm: sha256WithRSAEncryption
        Issuer: CN=SRK2_sha256_2048_65537_v3_ca
        Validity
            Not Before: Mar  7 15:13:31 2018 GMT
            Not After : Mar  4 15:13:31 2028 GMT
        Subject: CN=CSF2_1_sha256_2048_65537_v3_usr
        Subject Public Key Info:
            Public Key Algorithm: rsaEncryption
                Public-Key: (2048 bit)
                Modulus:
                    00:bf:57:b8:b6:6d:06:e3:2f:02:29:5a:e1:f5:10:
                    88:13:6f:9b:a1:54:b3:82:c5:de:a4:f4:ee:53:0d:
                    44:70:b7:f2:89:5e:4e:8a:5b:0f:d7:a2:c8:fb:7a:
                    05:7f:78:a6:9b:2c:59:9f:cb:cb:60:69:3c:1b:ae:
                    7a:fe:07:75:53:f2:53:79:31:87:ce:c8:8b:9c:d9:
                    4e:3f:9d:4c:c5:c6:78:0e:3c:2d:41:00:b0:ef:55:
                    ad:53:55:2b:ab:44:d1:4f:01:b5:10:38:57:4b:b7:
                    3b:43:16:ab:a1:bd:d6:69:bf:d0:df:3d:6c:01:4e:
                    41:88:55:71:52:f4:5a:70:c2:ed:98:e0:a8:d6:56:
                    df:26:a7:9b:d7:3f:7c:f5:bb:22:4a:95:5a:d2:26:
                    40:00:40:ae:db:e4:14:75:13:16:ee:88:4b:94:cc:
                    32:ee:6b:ae:0f:a0:ad:1a:b4:f3:9f:32:28:ce:01:
                    ba:20:2d:dc:16:58:fb:74:63:3c:1b:b4:4d:df:6c:
                    86:36:3d:c9:3d:7b:00:86:e4:1d:3c:76:31:0b:0c:
                    d3:83:d4:9f:6c:3a:5f:ed:eb:b1:8a:5a:50:00:e3:
                    17:8f:b4:a1:39:5d:4e:93:3d:3a:9f:22:ce:f5:32:
                    55:7f:18:d2:d0:81:c2:ad:e6:a5:6a:45:3a:48:e1:
                    88:8f
                Exponent: 65537 (0x10001)
        X509v3 extensions:
            X509v3 Basic Constraints: 
                CA:FALSE
            Netscape Comment: 
                OpenSSL Generated Certificate
            X509v3 Subject Key Identifier: 
                DF:FB:CB:55:96:A5:C1:BC:A2:C9:03:0B:EC:35:67:49:B3:E3:CD:8B
            X509v3 Authority Key Identifier: 
                keyid:3C:8B:9F:F4:F1:CE:FC:A4:77:03:8E:AB:F7:61:DB:C6:6D:1B:41:41

    Signature Algorithm: sha256WithRSAEncryption
         30:15:de:0a:19:09:6d:e7:65:ac:68:94:76:47:d2:f1:11:93:
         46:61:39:63:87:e4:79:7b:db:70:04:3e:ee:e9:2a:23:95:b7:
         1e:f9:74:ba:27:9a:af:8d:3a:a9:7e:2a:1e:5d:4a:e5:4a:5f:
         81:7a:33:f5:ff:39:c3:ba:60:95:05:53:31:53:f8:e2:dc:54:
         54:2d:bc:06:83:5a:c7:e2:8c:c4:c6:ff:34:28:57:ee:98:ab:
         4a:24:3c:b9:4e:3f:78:2c:08:49:5c:2b:28:e6:13:2e:b2:df:
         b6:57:e3:6e:80:a0:12:21:b6:68:a4:63:83:99:38:f1:74:21:
         81:96:90:09:ff:35:78:f4:98:e5:0e:43:f1:78:98:45:02:1a:
         40:ce:81:85:09:67:ac:12:38:35:dd:b3:c5:c4:5a:88:0d:58:
         49:86:26:8e:4a:96:b4:40:5b:8d:a9:fd:31:d1:b8:fa:d5:a9:
         f7:ce:6b:76:0c:ba:65:a7:36:1e:91:d7:2e:9f:79:68:b4:0d:
         d8:b5:19:87:cc:7b:9a:45:59:b9:61:b8:bc:2f:60:eb:4e:7d:
         f4:e1:a7:a3:7a:5d:90:5b:ca:b2:14:cc:38:e8:25:58:11:7b:
         11:ab:f5:a8:8a:ef:09:9f:dc:98:c9:9d:2b:cf:54:6d:de:d5:
         20:87:13:05
-----BEGIN CERTIFICATE-----
MIIDSjCCAjKgAwIBAgIEEAAAWDANBgkqhkiG9w0BAQsFADAnMSUwIwYDVQQDDBxT
UksyX3NoYTI1Nl8yMDQ4XzY1NTM3X3YzX2NhMB4XDTE4MDMwNzE1MTMzMVoXDTI4
MDMwNDE1MTMzMVowKjEoMCYGA1UEAwwfQ1NGMl8xX3NoYTI1Nl8yMDQ4XzY1NTM3
X3YzX3VzcjCCASIwDQYJKoZIhvcNAQEBBQADggEPADCCAQoCggEBAL9XuLZtBuMv
Aila4fUQiBNvm6FUs4LF3qT07lMNRHC38oleTopbD9eiyPt6BX94ppssWZ/Ly2Bp
PBuuev4HdVPyU3kxh87Ii5zZTj+dTMXGeA48LUEAsO9VrVNVK6tE0U8BtRA4V0u3
O0MWq6G91mm/0N89bAFOQYhVcVL0WnDC7ZjgqNZW3yanm9c/fPW7IkqVWtImQABA
rtvkFHUTFu6IS5TMMu5rrg+grRq0858yKM4BuiAt3BZY+3RjPBu0Td9shjY9yT17
AIbkHTx2MQsM04PUn2w6X+3rsYpaUADjF4+0oTldTpM9Op8izvUyVX8Y0tCBwq3m
pWpFOkjhiI8CAwEAAaN7MHkwCQYDVR0TBAIwADAsBglghkgBhvhCAQ0EHxYdT3Bl
blNTTCBHZW5lcmF0ZWQgQ2VydGlmaWNhdGUwHQYDVR0OBBYEFN/7y1WWpcG8oskD
C+w1Z0mz482LMB8GA1UdIwQYMBaAFDyLn/TxzvykdwOOq/dh28ZtG0FBMA0GCSqG
SIb3DQEBCwUAA4IBAQAwFd4KGQlt52WsaJR2R9LxEZNGYTljh+R5e9twBD7u6Soj
lbce+XS6J5qvjTqpfioeXUrlSl+BejP1/znDumCVBVMxU/ji3FRULbwGg1rH4ozE
xv80KFfumKtKJDy5Tj94LAhJXCso5hMust+2V+NugKASIbZopGODmTjxdCGBlpAJ
/zV49JjlDkPxeJhFAhpAzoGFCWesEjg13bPFxFqIDVhJhiaOSpa0QFuNqf0x0bj6
1an3zmt2DLplpzYekdcun3lotA3YtRmHzHuaRVm5Ybi8L2DrTn304aejel2QW8qy
FMw46CVYEXsRq/Woiu8Jn9yYyZ0rz1Rt3tUghxMF
-----END CERTIFICATE-----
