Certificate:
    Data:
        Version: 3 (0x2)
        Serial Number: 268435535 (0x1000004f)
    Signature Algorithm: sha256WithRSAEncryption
        Issuer: CN=SRK3_sha256_1024_65537_v3_ca
        Validity
            Not Before: Mar  7 15:13:30 2018 GMT
            Not After : Mar  4 15:13:30 2028 GMT
        Subject: CN=CSF3_1_sha256_1024_65537_v3_usr
        Subject Public Key Info:
            Public Key Algorithm: rsaEncryption
                Public-Key: (1024 bit)
                Modulus:
                    00:d7:e4:a0:e6:9f:2b:20:6b:25:67:a7:f1:2e:4e:
                    0a:05:3f:66:a2:99:b6:8c:7b:a1:cb:5d:5b:d4:5b:
                    ab:e2:3d:d7:84:dc:38:05:d3:5d:4f:a9:d5:81:b7:
                    8f:d4:2a:c3:03:d8:32:53:1d:89:96:82:e1:31:9d:
                    1a:26:8c:14:4d:38:1d:a1:49:b6:e2:bc:a1:d4:8b:
                    94:67:0c:e6:3b:3f:40:d3:3c:80:7a:d5:ba:02:89:
                    42:bd:7e:1c:e1:c5:44:b4:7c:fd:e3:12:9e:55:b1:
                    ad:6c:ca:6a:c9:bc:a5:59:9d:c4:d9:4a:38:26:bc:
                    89:b8:20:20:bc:19:c6:f2:31
                Exponent: 65537 (0x10001)
        X509v3 extensions:
            X509v3 Basic Constraints: 
                CA:FALSE
            Netscape Comment: 
                OpenSSL Generated Certificate
            X509v3 Subject Key Identifier: 
                73:6C:6A:48:D9:C7:E3:11:28:34:B9:DD:DE:9A:04:EA:15:BA:53:A1
            X509v3 Authority Key Identifier: 
                keyid:B8:15:E6:A8:94:4D:E7:90:37:45:D3:07:47:2B:A2:39:47:6C:2F:94

    Signature Algorithm: sha256WithRSAEncryption
         7a:55:40:a6:53:a0:e7:d6:fb:13:93:5b:81:24:75:4e:16:42:
         50:28:d8:20:c4:cb:ff:25:6c:fa:9a:8f:37:33:fd:89:3d:a4:
         ea:c5:1d:d2:bd:81:da:4d:29:9c:56:18:61:f7:4e:a2:9d:ee:
         41:23:5f:6e:c0:7b:db:de:45:45:5d:98:a9:6a:62:61:b4:80:
         0c:46:84:15:73:fb:33:15:06:bc:03:c0:bf:08:5b:2b:3a:b2:
         d7:49:3e:17:e6:ea:e5:19:fb:5f:bb:bd:8a:e2:10:2c:f8:a2:
         a5:ca:27:29:c9:d4:39:24:2c:9d:5d:68:23:2a:d5:64:a4:64:
         4d:8c
-----BEGIN CERTIFICATE-----
MIICRTCCAa6gAwIBAgIEEAAATzANBgkqhkiG9w0BAQsFADAnMSUwIwYDVQQDDBxT
UkszX3NoYTI1Nl8xMDI0XzY1NTM3X3YzX2NhMB4XDTE4MDMwNzE1MTMzMFoXDTI4
MDMwNDE1MTMzMFowKjEoMCYGA1UEAwwfQ1NGM18xX3NoYTI1Nl8xMDI0XzY1NTM3
X3YzX3VzcjCBnzANBgkqhkiG9w0BAQEFAAOBjQAwgYkCgYEA1+Sg5p8rIGslZ6fx
Lk4KBT9mopm2jHuhy11b1Fur4j3XhNw4BdNdT6nVgbeP1CrDA9gyUx2JloLhMZ0a
JowUTTgdoUm24ryh1IuUZwzmOz9A0zyAetW6AolCvX4c4cVEtHz94xKeVbGtbMpq
ybylWZ3E2Uo4JryJuCAgvBnG8jECAwEAAaN7MHkwCQYDVR0TBAIwADAsBglghkgB
hvhCAQ0EHxYdT3BlblNTTCBHZW5lcmF0ZWQgQ2VydGlmaWNhdGUwHQYDVR0OBBYE
FHNsakjZx+MRKDS53d6aBOoVulOhMB8GA1UdIwQYMBaAFLgV5qiUTeeQN0XTB0cr
ojlHbC+UMA0GCSqGSIb3DQEBCwUAA4GBAHpVQKZToOfW+xOTW4EkdU4WQlAo2CDE
y/8lbPqajzcz/Yk9pOrFHdK9gdpNKZxWGGH3TqKd7kEjX27Ae9veRUVdmKlqYmG0
gAxGhBVz+zMVBrwDwL8IWys6stdJPhfm6uUZ+1+7vYriECz4oqXKJynJ1DkkLJ1d
aCMq1WSkZE2M
-----END CERTIFICATE-----
