Certificate:
    Data:
        Version: 3 (0x2)
        Serial Number: 268435538 (0x10000052)
    Signature Algorithm: sha256WithRSAEncryption
        Issuer: CN=SRK4_sha256_1024_65537_v3_ca
        Validity
            Not Before: Mar  7 15:13:30 2018 GMT
            Not After : Mar  4 15:13:30 2028 GMT
        Subject: CN=CSF4_1_sha256_1024_65537_v3_usr
        Subject Public Key Info:
            Public Key Algorithm: rsaEncryption
                Public-Key: (1024 bit)
                Modulus:
                    00:dc:c0:2b:b5:1d:6a:ca:2c:a4:46:a1:02:03:ae:
                    67:46:d7:da:b4:41:82:e7:1f:4c:84:0f:d6:ad:56:
                    a9:6b:8b:f7:d0:e9:0e:a1:d4:4b:88:8b:39:c7:89:
                    c8:88:97:37:0c:20:07:74:59:a7:8a:94:a8:b1:a0:
                    04:e8:b2:cc:1a:c5:79:ea:e8:ac:19:fa:20:68:36:
                    4f:46:fb:d6:e4:de:88:3d:50:26:65:bb:14:a6:50:
                    85:71:95:67:8c:05:a1:20:0f:91:8a:71:5b:aa:9e:
                    8f:0d:d6:ce:55:6a:c8:b7:b1:ea:d0:0c:c4:0d:f4:
                    17:2e:82:a7:b8:75:9f:3f:87
                Exponent: 65537 (0x10001)
        X509v3 extensions:
            X509v3 Basic Constraints: 
                CA:FALSE
            Netscape Comment: 
                OpenSSL Generated Certificate
            X509v3 Subject Key Identifier: 
                C5:E9:86:F1:C5:0C:93:30:6A:76:49:D1:55:44:03:60:7F:95:CB:7B
            X509v3 Authority Key Identifier: 
                keyid:CD:C7:7D:EE:CE:23:5A:6A:08:7A:8B:AC:42:0B:46:58:BA:62:F7:B8

    Signature Algorithm: sha256WithRSAEncryption
         be:45:95:38:16:1f:7a:4c:80:36:c6:6d:b2:16:45:40:e7:76:
         06:39:f5:87:f4:56:38:ad:ff:86:ae:0b:71:b7:7c:ba:a8:6f:
         5c:77:57:34:71:54:fc:b3:55:bc:c7:66:c8:de:b8:51:5c:4f:
         a1:ba:0d:c7:70:8e:7c:f0:32:b5:78:ad:fb:d7:fc:1b:c9:d7:
         13:ed:7a:84:6b:ca:61:2d:22:48:b1:9b:71:4f:84:86:40:8c:
         e4:65:a1:e0:e8:3c:2f:6f:d4:26:7f:3b:da:83:0a:02:18:ed:
         92:54:2d:64:fe:c0:39:63:af:a0:09:91:4b:3d:28:4f:ff:8d:
         f6:30
-----BEGIN CERTIFICATE-----
MIICRTCCAa6gAwIBAgIEEAAAUjANBgkqhkiG9w0BAQsFADAnMSUwIwYDVQQDDBxT
Uks0X3NoYTI1Nl8xMDI0XzY1NTM3X3YzX2NhMB4XDTE4MDMwNzE1MTMzMFoXDTI4
MDMwNDE1MTMzMFowKjEoMCYGA1UEAwwfQ1NGNF8xX3NoYTI1Nl8xMDI0XzY1NTM3
X3YzX3VzcjCBnzANBgkqhkiG9w0BAQEFAAOBjQAwgYkCgYEA3MArtR1qyiykRqEC
A65nRtfatEGC5x9MhA/WrVapa4v30OkOodRLiIs5x4nIiJc3DCAHdFmnipSosaAE
6LLMGsV56uisGfogaDZPRvvW5N6IPVAmZbsUplCFcZVnjAWhIA+RinFbqp6PDdbO
VWrIt7Hq0AzEDfQXLoKnuHWfP4cCAwEAAaN7MHkwCQYDVR0TBAIwADAsBglghkgB
hvhCAQ0EHxYdT3BlblNTTCBHZW5lcmF0ZWQgQ2VydGlmaWNhdGUwHQYDVR0OBBYE
FMXphvHFDJMwanZJ0VVEA2B/lct7MB8GA1UdIwQYMBaAFM3Hfe7OI1pqCHqLrEIL
Rli6Yve4MA0GCSqGSIb3DQEBCwUAA4GBAL5FlTgWH3pMgDbGbbIWRUDndgY59Yf0
Vjit/4auC3G3fLqob1x3VzRxVPyzVbzHZsjeuFFcT6G6DcdwjnzwMrV4rfvX/BvJ
1xPteoRrymEtIkixm3FPhIZAjORloeDoPC9v1CZ/O9qDCgIY7ZJULWT+wDljr6AJ
kUs9KE//jfYw
-----END CERTIFICATE-----
