Certificate:
    Data:
        Version: 3 (0x2)
        Serial Number: 268435530 (0x1000004a)
    Signature Algorithm: sha256WithRSAEncryption
        Issuer: CN=SRK1_sha256_1024_65537_v3_ca
        Validity
            Not Before: Mar  7 15:13:29 2018 GMT
            Not After : Mar  4 15:13:29 2028 GMT
        Subject: CN=IMG1_1_sha256_1024_65537_v3_usr
        Subject Public Key Info:
            Public Key Algorithm: rsaEncryption
                Public-Key: (1024 bit)
                Modulus:
                    00:b9:7a:66:06:09:ac:3b:09:bb:09:ff:53:20:a2:
                    7b:95:74:75:6b:a5:82:dc:e3:f5:bd:d2:79:04:b6:
                    07:5f:1d:25:6d:bc:16:8b:7d:df:d0:8e:0a:b0:67:
                    cc:fb:ca:34:6c:3c:64:0a:cd:2e:04:07:33:04:f9:
                    09:67:30:1c:19:a3:74:f6:ce:e2:79:4d:fa:0c:05:
                    e5:05:61:5c:8c:79:b2:93:79:51:46:39:da:1c:ca:
                    1a:2b:0e:d4:8c:cf:6a:82:79:fa:dc:3c:77:7f:60:
                    db:93:50:75:43:c5:e5:c2:53:a1:cb:a7:7d:70:17:
                    db:2d:3b:36:83:24:79:f8:31
                Exponent: 65537 (0x10001)
        X509v3 extensions:
            X509v3 Basic Constraints: 
                CA:FALSE
            Netscape Comment: 
                OpenSSL Generated Certificate
            X509v3 Subject Key Identifier: 
                79:C9:30:DC:E7:4E:50:C3:DD:10:27:F1:C7:75:DD:67:0D:0C:3D:02
            X509v3 Authority Key Identifier: 
                keyid:D7:53:2A:32:D6:72:47:26:19:BA:12:27:6A:B1:DB:92:50:29:A8:A5

    Signature Algorithm: sha256WithRSAEncryption
         14:2c:b2:8e:d7:dd:7d:46:81:0f:2e:ed:95:25:42:7a:35:47:
         47:f6:d0:24:04:05:c1:01:79:d1:cf:fe:11:ae:b9:81:64:43:
         08:d1:55:00:67:b4:ac:7a:18:34:61:fb:ee:d0:43:ae:de:aa:
         0d:cb:e8:18:dd:7c:33:17:79:76:87:e7:ef:86:b3:cc:38:96:
         14:69:3b:70:9d:e9:b0:99:d0:0f:fe:61:13:f1:6d:18:fd:a7:
         16:58:11:80:87:2f:ef:38:25:c0:54:a6:29:be:06:6a:99:54:
         b6:97:83:2a:21:23:52:d3:2a:11:65:41:79:73:e3:05:d9:3a:
         d7:29
-----BEGIN CERTIFICATE-----
MIICRTCCAa6gAwIBAgIEEAAASjANBgkqhkiG9w0BAQsFADAnMSUwIwYDVQQDDBxT
UksxX3NoYTI1Nl8xMDI0XzY1NTM3X3YzX2NhMB4XDTE4MDMwNzE1MTMyOVoXDTI4
MDMwNDE1MTMyOVowKjEoMCYGA1UEAwwfSU1HMV8xX3NoYTI1Nl8xMDI0XzY1NTM3
X3YzX3VzcjCBnzANBgkqhkiG9w0BAQEFAAOBjQAwgYkCgYEAuXpmBgmsOwm7Cf9T
IKJ7lXR1a6WC3OP1vdJ5BLYHXx0lbbwWi33f0I4KsGfM+8o0bDxkCs0uBAczBPkJ
ZzAcGaN09s7ieU36DAXlBWFcjHmyk3lRRjnaHMoaKw7UjM9qgnn63Dx3f2Dbk1B1
Q8XlwlOhy6d9cBfbLTs2gyR5+DECAwEAAaN7MHkwCQYDVR0TBAIwADAsBglghkgB
hvhCAQ0EHxYdT3BlblNTTCBHZW5lcmF0ZWQgQ2VydGlmaWNhdGUwHQYDVR0OBBYE
FHnJMNznTlDD3RAn8cd13WcNDD0CMB8GA1UdIwQYMBaAFNdTKjLWckcmGboSJ2qx
25JQKailMA0GCSqGSIb3DQEBCwUAA4GBABQsso7X3X1GgQ8u7ZUlQno1R0f20CQE
BcEBedHP/hGuuYFkQwjRVQBntKx6GDRh++7QQ67eqg3L6BjdfDMXeXaH5++Gs8w4
lhRpO3Cd6bCZ0A/+YRPxbRj9pxZYEYCHL+84JcBUpim+BmqZVLaXgyohI1LTKhFl
QXlz4wXZOtcp
-----END CERTIFICATE-----
