Certificate:
    Data:
        Version: 3 (0x2)
        Serial Number: 268435554 (0x10000062)
    Signature Algorithm: sha256WithRSAEncryption
        Issuer: CN=SRK1_sha256_4096_65537_v3_ca
        Validity
            Not Before: Mar  7 15:13:34 2018 GMT
            Not After : Mar  4 15:13:34 2028 GMT
        Subject: CN=IMG1_1_sha256_4096_65537_v3_usr
        Subject Public Key Info:
            Public Key Algorithm: rsaEncryption
                Public-Key: (4096 bit)
                Modulus:
                    00:9d:d4:92:92:34:61:6b:16:f1:df:9f:58:54:79:
                    c9:f4:19:2a:a7:06:df:9a:08:54:b1:38:26:8a:14:
                    ff:5c:b5:83:8a:10:5d:f5:b5:fe:ec:df:7d:84:58:
                    c9:2e:f3:95:4c:76:98:c3:37:b6:f1:d5:22:a9:dc:
                    53:92:70:f0:48:36:d5:37:bb:6e:8e:5a:e1:86:9c:
                    1d:49:a0:c8:85:16:06:74:48:48:2c:0d:13:fd:01:
                    fd:d3:e0:8d:22:e8:52:4c:b7:a2:d4:cd:9d:f7:ca:
                    b8:a5:05:0d:77:6f:3c:6a:ab:b5:a8:88:b8:e6:2c:
                    19:fa:b0:c5:c4:88:dc:6b:f4:e7:c9:b7:dd:6e:0e:
                    13:26:5e:ac:f2:01:d9:17:3e:9d:6c:4b:df:0e:f4:
                    c9:6e:c1:7f:90:46:b2:2f:bc:f0:0f:ab:bf:a0:3a:
                    54:bc:c5:7e:c4:08:f9:90:22:50:8d:e1:00:be:4a:
                    0a:d8:10:f7:c6:95:ba:32:42:59:bd:99:85:cb:6e:
                    b2:1d:cc:41:74:14:c6:74:be:df:08:16:91:4b:61:
                    d6:86:ae:67:90:5f:d8:62:3f:c5:be:6d:77:7e:11:
                    6b:8f:89:f8:0b:e7:cf:b9:2f:b2:05:de:97:53:9e:
                    c5:35:61:fc:0a:e6:bb:78:a9:23:5f:07:bd:22:45:
                    5e:d6:85:28:47:f9:4d:20:8d:f2:bf:5f:ef:5d:92:
                    d5:c8:b5:5f:09:be:0e:6d:04:36:97:df:c0:79:02:
                    d7:fc:77:b4:0a:f6:83:95:e6:22:0f:61:3a:3c:78:
                    c4:e9:35:ac:d4:56:a6:aa:0d:49:7b:ab:10:b2:ef:
                    59:a1:30:04:0f:bc:4e:8d:04:00:5f:48:88:dc:57:
                    03:a7:92:57:cc:bc:dd:11:e0:a9:92:b5:46:81:83:
                    7f:06:fe:09:85:29:a7:06:da:69:42:24:7b:f6:ba:
                    0f:86:a5:b3:b2:a3:a5:bb:c9:2d:93:9b:7c:c8:2b:
                    9a:36:c5:d5:68:f8:04:0c:fb:62:32:0a:e1:40:ca:
                    aa:74:1e:4b:bb:1b:bc:8c:74:d3:a7:6b:f3:43:7f:
                    08:de:77:eb:b1:2b:b3:18:9e:cc:0e:34:c9:6a:fb:
                    4d:c3:ce:5b:5f:2e:eb:91:fe:3c:7c:bf:3c:14:62:
                    91:1e:7f:5c:42:8c:27:55:09:1f:6f:c1:ff:d9:5f:
                    49:96:c0:c4:bf:4e:ca:f0:a0:43:fe:a4:f0:35:c3:
                    04:ed:b4:41:18:12:c8:e1:30:b1:54:e8:86:6d:cc:
                    71:e1:06:02:5d:ea:64:fa:ee:af:9f:93:e9:81:46:
                    bc:e0:2a:c6:77:c3:f8:c4:83:bb:bf:fa:65:0a:ca:
                    03:d3:f3
                Exponent: 65537 (0x10001)
        X509v3 extensions:
            X509v3 Basic Constraints: 
                CA:FALSE
            Netscape Comment: 
                OpenSSL Generated Certificate
            X509v3 Subject Key Identifier: 
                E0:A0:0B:2F:E4:10:F5:9C:D6:9B:E2:FA:B1:03:0D:63:4F:41:88:3E
            X509v3 Authority Key Identifier: 
                keyid:49:C4:19:6F:44:F8:97:D4:51:67:CB:70:A3:EF:20:64:18:BF:3B:15

    Signature Algorithm: sha256WithRSAEncryption
         24:74:90:33:68:ed:ff:02:15:ba:c3:72:4b:69:a8:b9:c0:d2:
         89:40:65:db:f8:bb:01:18:cb:42:d3:7a:e2:ab:eb:61:59:73:
         1f:0f:de:50:0e:77:0f:1b:86:ea:a3:9d:3f:0a:23:01:90:41:
         7e:99:c4:89:80:37:5a:47:bc:aa:88:50:65:61:ca:9e:fa:47:
         cd:31:ac:39:02:45:ef:f6:ec:4f:6e:47:84:b7:b0:33:7a:22:
         7b:67:4c:99:e7:b5:48:b2:b5:c6:92:d5:c1:c1:41:c4:6a:56:
         4e:17:ab:4f:6f:cf:7c:69:a5:08:52:19:6a:1d:db:a3:76:8a:
         74:d5:57:d0:19:53:f8:9b:b1:7c:ea:b2:c0:27:ef:0f:31:1c:
         b5:b1:45:e3:47:13:6e:54:1e:da:a3:b7:ff:a9:32:3d:ff:e0:
         3c:6b:33:ec:66:c2:e0:2c:8f:89:bb:31:16:62:8a:55:d9:cb:
         b1:9a:d2:31:c8:ef:45:0a:84:53:af:ee:1d:b5:6d:f2:af:82:
         6b:9d:57:05:a7:ee:de:f7:69:1c:bb:5f:06:20:74:5d:4e:ec:
         8c:03:bb:98:1c:5f:59:c9:4d:aa:0d:91:b9:76:ca:75:1e:76:
         a7:cf:e3:ff:4e:19:b4:cb:53:c7:e8:af:db:f4:98:32:83:58:
         9c:62:7b:e5:70:91:c1:4e:38:da:09:09:35:a2:2f:87:f1:bf:
         c1:0d:80:79:ec:41:e5:ff:65:fe:f1:7c:37:15:01:c5:ec:6c:
         7b:92:02:23:76:f3:64:50:b0:ee:67:8c:6e:00:df:d6:e7:ab:
         be:1b:69:42:78:95:56:d9:12:db:cf:30:c8:2e:3b:34:26:e4:
         d1:e9:08:d9:a3:25:a6:3b:fc:c1:bb:93:a1:38:a5:7a:d0:5b:
         fe:7d:ca:9a:dc:17:b7:16:d7:e0:3c:0a:2f:c8:de:c8:a2:f3:
         13:a5:aa:9b:eb:38:7b:77:b9:78:12:67:75:cb:8c:71:90:00:
         3c:d1:95:60:56:b5:01:7a:7b:79:32:03:33:90:ea:0d:ee:1e:
         65:af:f2:43:8f:01:e4:5b:59:24:cb:49:50:dd:b3:78:29:8f:
         b8:2e:66:62:4f:3e:16:12:73:8e:d7:26:42:9d:4d:12:66:17:
         ac:5c:20:bd:6a:80:38:b5:db:dc:b8:29:e8:ab:29:5f:bd:a0:
         d7:8a:d5:f0:b8:8d:c1:c2:15:10:c5:4e:86:c7:99:5d:b9:19:
         0e:3a:58:01:aa:e9:f2:2a:d2:c9:2c:68:c3:46:94:e4:5c:79:
         5d:6e:e7:7d:c5:eb:b9:72:b4:20:ac:38:b9:ab:e9:dc:62:72:
         30:ad:37:2b:c5:a6:42:33
-----BEGIN CERTIFICATE-----
MIIFSjCCAzKgAwIBAgIEEAAAYjANBgkqhkiG9w0BAQsFADAnMSUwIwYDVQQDDBxT
UksxX3NoYTI1Nl80MDk2XzY1NTM3X3YzX2NhMB4XDTE4MDMwNzE1MTMzNFoXDTI4
MDMwNDE1MTMzNFowKjEoMCYGA1UEAwwfSU1HMV8xX3NoYTI1Nl80MDk2XzY1NTM3
X3YzX3VzcjCCAiIwDQYJKoZIhvcNAQEBBQADggIPADCCAgoCggIBAJ3UkpI0YWsW
8d+fWFR5yfQZKqcG35oIVLE4JooU/1y1g4oQXfW1/uzffYRYyS7zlUx2mMM3tvHV
IqncU5Jw8Eg21Te7bo5a4YacHUmgyIUWBnRISCwNE/0B/dPgjSLoUky3otTNnffK
uKUFDXdvPGqrtaiIuOYsGfqwxcSI3Gv058m33W4OEyZerPIB2Rc+nWxL3w70yW7B
f5BGsi+88A+rv6A6VLzFfsQI+ZAiUI3hAL5KCtgQ98aVujJCWb2Zhctush3MQXQU
xnS+3wgWkUth1oauZ5Bf2GI/xb5td34Ra4+J+Avnz7kvsgXel1OexTVh/Armu3ip
I18HvSJFXtaFKEf5TSCN8r9f712S1ci1Xwm+Dm0ENpffwHkC1/x3tAr2g5XmIg9h
Ojx4xOk1rNRWpqoNSXurELLvWaEwBA+8To0EAF9IiNxXA6eSV8y83RHgqZK1RoGD
fwb+CYUppwbaaUIke/a6D4als7KjpbvJLZObfMgrmjbF1Wj4BAz7YjIK4UDKqnQe
S7sbvIx006dr80N/CN5367ErsxiezA40yWr7TcPOW18u65H+PHy/PBRikR5/XEKM
J1UJH2/B/9lfSZbAxL9OyvCgQ/6k8DXDBO20QRgSyOEwsVTohm3MceEGAl3qZPru
r5+T6YFGvOAqxnfD+MSDu7/6ZQrKA9PzAgMBAAGjezB5MAkGA1UdEwQCMAAwLAYJ
YIZIAYb4QgENBB8WHU9wZW5TU0wgR2VuZXJhdGVkIENlcnRpZmljYXRlMB0GA1Ud
DgQWBBTgoAsv5BD1nNab4vqxAw1jT0GIPjAfBgNVHSMEGDAWgBRJxBlvRPiX1FFn
y3Cj7yBkGL87FTANBgkqhkiG9w0BAQsFAAOCAgEAJHSQM2jt/wIVusNyS2moucDS
iUBl2/i7ARjLQtN64qvrYVlzHw/eUA53DxuG6qOdPwojAZBBfpnEiYA3Wke8qohQ
ZWHKnvpHzTGsOQJF7/bsT25HhLewM3oie2dMmee1SLK1xpLVwcFBxGpWTherT2/P
fGmlCFIZah3bo3aKdNVX0BlT+JuxfOqywCfvDzEctbFF40cTblQe2qO3/6kyPf/g
PGsz7GbC4CyPibsxFmKKVdnLsZrSMcjvRQqEU6/uHbVt8q+Ca51XBafu3vdpHLtf
BiB0XU7sjAO7mBxfWclNqg2RuXbKdR52p8/j/04ZtMtTx+iv2/SYMoNYnGJ75XCR
wU442gkJNaIvh/G/wQ2AeexB5f9l/vF8NxUBxexse5ICI3bzZFCw7meMbgDf1uer
vhtpQniVVtkS288wyC47NCbk0ekI2aMlpjv8wbuToTiletBb/n3KmtwXtxbX4DwK
L8jeyKLzE6Wqm+s4e3e5eBJndcuMcZAAPNGVYFa1AXp7eTIDM5DqDe4eZa/yQ48B
5FtZJMtJUN2zeCmPuC5mYk8+FhJzjtcmQp1NEmYXrFwgvWqAOLXb3Lgp6KspX72g
14rV8LiNwcIVEMVOhseZXbkZDjpYAarp8irSySxow0aU5Fx5XW7nfcXruXK0IKw4
uavp3GJyMK03K8WmQjM=
-----END CERTIFICATE-----
