Certificate:
    Data:
        Version: 3 (0x2)
        Serial Number: 268435542 (0x10000056)
    Signature Algorithm: sha256WithRSAEncryption
        Issuer: CN=SRK1_sha256_2048_65537_v3_ca
        Validity
            Not Before: Mar  7 15:13:30 2018 GMT
            Not After : Mar  4 15:13:30 2028 GMT
        Subject: CN=IMG1_1_sha256_2048_65537_v3_usr
        Subject Public Key Info:
            Public Key Algorithm: rsaEncryption
                Public-Key: (2048 bit)
                Modulus:
                    00:c6:4c:d5:0a:c3:cb:b8:7f:29:3e:54:20:5b:5c:
                    be:f6:2c:53:60:43:da:8f:b2:00:18:b5:c9:62:19:
                    e8:78:c1:56:6f:e9:e1:e3:91:29:8f:fb:9f:34:eb:
                    b9:33:69:3e:d5:e5:c8:9e:87:00:b1:85:7f:b6:be:
                    57:93:c1:64:c7:d6:93:fe:89:d0:0b:3e:6d:02:27:
                    90:6c:ce:9f:5d:55:35:99:1c:e3:35:27:80:3e:11:
                    9e:98:ef:44:47:3c:9f:d8:f5:f4:38:03:34:71:04:
                    f1:79:1e:70:be:b3:be:d7:1c:f6:91:6c:f9:88:50:
                    8c:a9:53:a8:a3:56:3f:9d:dc:04:d7:20:8a:66:33:
                    86:29:11:13:12:ea:0d:0c:38:7d:59:79:f8:88:7c:
                    a2:e7:e4:ee:51:e1:97:fd:98:a8:03:61:f1:a5:f9:
                    89:b5:d8:8b:1b:75:b0:0a:af:7d:5c:af:03:5b:9a:
                    fa:2b:ee:aa:8b:53:cf:49:64:b0:14:2f:9b:7c:e8:
                    90:d2:9a:7a:5e:07:4e:ed:8f:2c:22:11:23:65:a4:
                    01:89:6d:a4:cb:89:fb:e8:7a:24:2e:ee:f2:95:8a:
                    37:c9:66:47:2a:74:df:98:ad:ae:e3:0b:05:db:a1:
                    85:21:20:f1:85:f1:87:1f:75:d5:82:03:9e:29:ee:
                    20:e7
                Exponent: 65537 (0x10001)
        X509v3 extensions:
            X509v3 Basic Constraints: 
                CA:FALSE
            Netscape Comment: 
                OpenSSL Generated Certificate
            X509v3 Subject Key Identifier: 
                DF:87:B3:5B:9B:F4:C0:08:3E:03:C8:F0:03:0C:FE:1F:57:F8:A5:78
            X509v3 Authority Key Identifier: 
                keyid:83:51:E2:3E:A6:86:D1:75:4A:F5:A3:BF:11:E7:36:71:03:8F:E2:85

    Signature Algorithm: sha256WithRSAEncryption
         2b:b9:aa:27:87:73:37:21:2a:8c:07:42:dc:05:69:45:21:0b:
         90:cb:28:11:ee:e2:64:4b:32:d1:06:20:00:85:51:b4:8e:59:
         6c:23:f3:bf:15:10:9f:72:05:cd:c7:72:c4:c6:0d:5b:b0:06:
         c6:25:21:7d:91:cb:2e:ad:97:54:d2:cf:05:f3:19:64:77:5e:
         f1:99:f1:e4:38:cd:1d:95:88:f7:4f:9b:49:34:11:45:40:ff:
         e4:17:7d:48:e7:1a:ac:d1:b9:3a:89:2e:0d:a2:9a:9c:0b:57:
         80:75:b8:56:a5:71:ce:c1:af:08:c6:7f:ff:52:0b:4b:dc:43:
         36:b9:ff:6d:34:12:6a:68:d8:06:7b:13:8f:82:3c:f5:f3:af:
         70:05:b4:0a:9b:f1:f6:ee:26:f9:9d:d0:32:55:37:62:18:06:
         3b:5b:d4:21:7e:41:d6:e4:bc:26:84:64:8c:7c:a7:53:d4:d1:
         f8:45:0e:6e:16:d6:88:33:1d:85:56:2b:3f:ff:ca:30:b6:bd:
         80:70:63:68:47:c6:e9:74:55:fc:36:17:bf:87:07:09:b5:f9:
         0f:47:75:e1:7c:3c:c7:fd:c6:01:b5:b9:c2:4f:cb:47:89:e6:
         ea:54:10:bc:99:3b:f4:7d:7f:04:ae:69:fc:37:14:23:f6:7d:
         fe:72:47:dc
-----BEGIN CERTIFICATE-----
MIIDSjCCAjKgAwIBAgIEEAAAVjANBgkqhkiG9w0BAQsFADAnMSUwIwYDVQQDDBxT
UksxX3NoYTI1Nl8yMDQ4XzY1NTM3X3YzX2NhMB4XDTE4MDMwNzE1MTMzMFoXDTI4
MDMwNDE1MTMzMFowKjEoMCYGA1UEAwwfSU1HMV8xX3NoYTI1Nl8yMDQ4XzY1NTM3
X3YzX3VzcjCCASIwDQYJKoZIhvcNAQEBBQADggEPADCCAQoCggEBAMZM1QrDy7h/
KT5UIFtcvvYsU2BD2o+yABi1yWIZ6HjBVm/p4eORKY/7nzTruTNpPtXlyJ6HALGF
f7a+V5PBZMfWk/6J0As+bQInkGzOn11VNZkc4zUngD4RnpjvREc8n9j19DgDNHEE
8XkecL6zvtcc9pFs+YhQjKlTqKNWP53cBNcgimYzhikRExLqDQw4fVl5+Ih8oufk
7lHhl/2YqANh8aX5ibXYixt1sAqvfVyvA1ua+ivuqotTz0lksBQvm3zokNKael4H
Tu2PLCIRI2WkAYltpMuJ++h6JC7u8pWKN8lmRyp035itruMLBduhhSEg8YXxhx91
1YIDninuIOcCAwEAAaN7MHkwCQYDVR0TBAIwADAsBglghkgBhvhCAQ0EHxYdT3Bl
blNTTCBHZW5lcmF0ZWQgQ2VydGlmaWNhdGUwHQYDVR0OBBYEFN+Hs1ub9MAIPgPI
8AMM/h9X+KV4MB8GA1UdIwQYMBaAFINR4j6mhtF1SvWjvxHnNnEDj+KFMA0GCSqG
SIb3DQEBCwUAA4IBAQAruaonh3M3ISqMB0LcBWlFIQuQyygR7uJkSzLRBiAAhVG0
jllsI/O/FRCfcgXNx3LExg1bsAbGJSF9kcsurZdU0s8F8xlkd17xmfHkOM0dlYj3
T5tJNBFFQP/kF31I5xqs0bk6iS4NopqcC1eAdbhWpXHOwa8Ixn//UgtL3EM2uf9t
NBJqaNgGexOPgjz1869wBbQKm/H27ib5ndAyVTdiGAY7W9QhfkHW5LwmhGSMfKdT
1NH4RQ5uFtaIMx2FVis//8owtr2AcGNoR8bpdFX8Nhe/hwcJtfkPR3XhfDzH/cYB
tbnCT8tHiebqVBC8mTv0fX8Ermn8NxQj9n3+ckfc
-----END CERTIFICATE-----
