Certificate:
    Data:
        Version: 3 (0x2)
        Serial Number: 268435545 (0x10000059)
    Signature Algorithm: sha256WithRSAEncryption
        Issuer: CN=SRK2_sha256_2048_65537_v3_ca
        Validity
            Not Before: Mar  7 15:13:31 2018 GMT
            Not After : Mar  4 15:13:31 2028 GMT
        Subject: CN=IMG2_1_sha256_2048_65537_v3_usr
        Subject Public Key Info:
            Public Key Algorithm: rsaEncryption
                Public-Key: (2048 bit)
                Modulus:
                    00:c1:0c:86:e1:9a:d8:22:38:f0:08:bd:88:82:e3:
                    35:6e:57:7c:e0:79:60:ba:a7:fb:49:44:eb:a0:4b:
                    fc:9d:3c:c5:c7:eb:32:84:d9:0f:c9:0e:b8:c4:19:
                    a5:75:58:8d:5f:66:fb:ec:aa:7d:d9:e0:df:9c:1e:
                    3a:61:10:6c:b8:2d:a2:d8:28:d4:cb:70:90:aa:2f:
                    c4:04:b6:48:21:8f:b8:0a:f4:52:08:eb:fb:18:ca:
                    b7:a9:68:b7:e0:26:8e:71:79:19:2e:48:72:bd:6f:
                    d7:99:26:64:82:30:3e:42:28:cc:a8:e8:a5:fc:59:
                    e2:b4:20:c0:82:5d:b6:29:82:ae:9b:28:5e:1c:55:
                    0d:c3:e1:ab:8e:f0:7a:f7:b3:cf:96:eb:aa:d1:34:
                    6e:e6:b8:bf:b8:8e:dd:3c:2f:5e:93:c3:32:00:5e:
                    62:5a:cc:ef:3a:4c:fe:b7:b3:69:d8:49:43:2e:9c:
                    c2:b8:13:8d:46:34:e5:cb:60:63:97:af:db:b4:ad:
                    69:ce:de:3b:33:59:8f:3f:5b:f0:cc:cf:33:cc:67:
                    46:45:b7:e8:8e:3d:90:8a:6d:1c:31:ec:1c:7c:23:
                    53:b5:80:4f:03:4f:85:25:ff:8e:8f:63:08:80:6a:
                    91:c6:86:c3:9d:c9:38:25:d6:87:54:a3:d9:49:c9:
                    6a:65
                Exponent: 65537 (0x10001)
        X509v3 extensions:
            X509v3 Basic Constraints: 
                CA:FALSE
            Netscape Comment: 
                OpenSSL Generated Certificate
            X509v3 Subject Key Identifier: 
                89:49:6A:9A:53:CE:66:3F:C1:F0:35:F8:9A:CB:4E:B9:56:C1:74:28
            X509v3 Authority Key Identifier: 
                keyid:3C:8B:9F:F4:F1:CE:FC:A4:77:03:8E:AB:F7:61:DB:C6:6D:1B:41:41

    Signature Algorithm: sha256WithRSAEncryption
         52:10:cf:ac:77:da:01:13:e9:76:16:71:0a:a9:b9:f2:40:3c:
         f3:ce:0e:8a:57:c3:9a:14:fb:4d:7f:87:f5:97:57:2f:f5:9e:
         5d:a6:fd:99:b8:9c:fb:42:a2:a9:72:9c:a2:c0:cf:4e:7c:1a:
         77:f8:fb:06:7d:8f:74:7e:82:bb:da:f2:88:40:90:4e:c2:11:
         6e:be:c7:58:93:2d:58:c3:19:c5:c4:9e:f4:28:9e:33:83:bd:
         83:dd:05:b7:3b:8d:38:2d:9f:b9:df:a7:9a:32:9a:10:5e:5b:
         7b:b9:d1:07:b1:01:b3:26:14:41:96:dd:69:b2:2c:f3:e8:ae:
         a9:53:39:5b:7c:03:1f:1d:e3:49:e0:d5:8e:9c:7d:32:68:da:
         f4:4b:2d:3e:85:e7:24:0d:9c:78:d4:3a:51:15:b1:59:0d:bf:
         16:c3:0c:21:1b:ae:85:90:38:b0:85:93:68:ea:76:95:4e:70:
         02:b3:b1:39:02:de:fb:7e:ec:77:44:c5:2b:69:fb:1e:87:0a:
         0f:42:94:ae:34:9b:69:af:ab:a1:44:37:77:71:0b:73:36:08:
         5e:5c:35:f4:64:77:95:a2:67:80:04:d9:da:36:7c:0a:b7:a1:
         60:c4:5d:45:5f:07:26:e5:ae:e6:d8:47:e6:92:0c:4d:83:af:
         b9:cc:74:9a
-----BEGIN CERTIFICATE-----
MIIDSjCCAjKgAwIBAgIEEAAAWTANBgkqhkiG9w0BAQsFADAnMSUwIwYDVQQDDBxT
UksyX3NoYTI1Nl8yMDQ4XzY1NTM3X3YzX2NhMB4XDTE4MDMwNzE1MTMzMVoXDTI4
MDMwNDE1MTMzMVowKjEoMCYGA1UEAwwfSU1HMl8xX3NoYTI1Nl8yMDQ4XzY1NTM3
X3YzX3VzcjCCASIwDQYJKoZIhvcNAQEBBQADggEPADCCAQoCggEBAMEMhuGa2CI4
8Ai9iILjNW5XfOB5YLqn+0lE66BL/J08xcfrMoTZD8kOuMQZpXVYjV9m++yqfdng
35weOmEQbLgtotgo1MtwkKovxAS2SCGPuAr0Ugjr+xjKt6lot+AmjnF5GS5Icr1v
15kmZIIwPkIozKjopfxZ4rQgwIJdtimCrpsoXhxVDcPhq47wevezz5brqtE0bua4
v7iO3TwvXpPDMgBeYlrM7zpM/rezadhJQy6cwrgTjUY05ctgY5ev27Stac7eOzNZ
jz9b8MzPM8xnRkW36I49kIptHDHsHHwjU7WATwNPhSX/jo9jCIBqkcaGw53JOCXW
h1Sj2UnJamUCAwEAAaN7MHkwCQYDVR0TBAIwADAsBglghkgBhvhCAQ0EHxYdT3Bl
blNTTCBHZW5lcmF0ZWQgQ2VydGlmaWNhdGUwHQYDVR0OBBYEFIlJappTzmY/wfA1
+JrLTrlWwXQoMB8GA1UdIwQYMBaAFDyLn/TxzvykdwOOq/dh28ZtG0FBMA0GCSqG
SIb3DQEBCwUAA4IBAQBSEM+sd9oBE+l2FnEKqbnyQDzzzg6KV8OaFPtNf4f1l1cv
9Z5dpv2ZuJz7QqKpcpyiwM9OfBp3+PsGfY90foK72vKIQJBOwhFuvsdYky1YwxnF
xJ70KJ4zg72D3QW3O404LZ+536eaMpoQXlt7udEHsQGzJhRBlt1psizz6K6pUzlb
fAMfHeNJ4NWOnH0yaNr0Sy0+heckDZx41DpRFbFZDb8WwwwhG66FkDiwhZNo6naV
TnACs7E5At77fux3RMUrafsehwoPQpSuNJtpr6uhRDd3cQtzNgheXDX0ZHeVomeA
BNnaNnwKt6FgxF1FXwcm5a7m2EfmkgxNg6+5zHSa
-----END CERTIFICATE-----
