Certificate:
    Data:
        Version: 3 (0x2)
        Serial Number: 268435536 (0x10000050)
    Signature Algorithm: sha256WithRSAEncryption
        Issuer: CN=SRK3_sha256_1024_65537_v3_ca
        Validity
            Not Before: Mar  7 15:13:30 2018 GMT
            Not After : Mar  4 15:13:30 2028 GMT
        Subject: CN=IMG3_1_sha256_1024_65537_v3_usr
        Subject Public Key Info:
            Public Key Algorithm: rsaEncryption
                Public-Key: (1024 bit)
                Modulus:
                    00:be:11:0c:68:9d:0c:cd:79:b0:48:77:4a:87:ef:
                    81:71:07:98:3c:74:fd:43:46:4f:2d:05:ba:da:b2:
                    7f:e3:0e:85:92:1f:2c:dc:54:a1:3e:d1:7a:71:64:
                    52:98:89:3d:4a:29:d7:61:43:db:02:66:33:8e:f6:
                    1e:e1:a1:fa:e8:58:23:a7:03:43:75:3b:7b:ac:e5:
                    e2:cc:54:9e:bc:6e:c4:fb:0a:0e:46:5a:11:8c:25:
                    81:82:ff:2e:da:96:ad:fa:5d:06:61:64:bb:e5:77:
                    ee:58:46:77:3e:ba:a2:32:ab:9b:41:98:2e:10:43:
                    35:14:99:6b:dd:7a:72:be:37
                Exponent: 65537 (0x10001)
        X509v3 extensions:
            X509v3 Basic Constraints: 
                CA:FALSE
            Netscape Comment: 
                OpenSSL Generated Certificate
            X509v3 Subject Key Identifier: 
                B1:72:9C:57:77:B5:56:D0:8E:53:63:0E:3C:5E:8F:22:33:3B:F6:93
            X509v3 Authority Key Identifier: 
                keyid:B8:15:E6:A8:94:4D:E7:90:37:45:D3:07:47:2B:A2:39:47:6C:2F:94

    Signature Algorithm: sha256WithRSAEncryption
         ae:91:32:b2:af:e7:9f:25:cf:76:9d:2e:7e:67:fa:d6:2b:48:
         47:86:91:20:bd:7a:da:26:c4:d9:21:49:cc:5d:04:bf:bf:fb:
         50:41:c1:a6:56:8b:30:f5:34:2a:b8:97:43:7f:cf:65:41:78:
         66:f9:ec:fa:d7:1c:7b:6c:98:9d:23:4a:94:21:87:8d:ac:9c:
         10:fe:eb:49:6a:91:24:b2:9a:b6:6e:12:4e:35:77:06:1b:46:
         ec:3e:f2:d8:53:52:b8:bd:88:fb:f5:2a:b7:22:1e:66:8c:74:
         e7:a4:74:24:31:96:7f:48:7b:47:3f:b8:8f:bd:98:f3:97:c9:
         e2:d9
-----BEGIN CERTIFICATE-----
MIICRTCCAa6gAwIBAgIEEAAAUDANBgkqhkiG9w0BAQsFADAnMSUwIwYDVQQDDBxT
UkszX3NoYTI1Nl8xMDI0XzY1NTM3X3YzX2NhMB4XDTE4MDMwNzE1MTMzMFoXDTI4
MDMwNDE1MTMzMFowKjEoMCYGA1UEAwwfSU1HM18xX3NoYTI1Nl8xMDI0XzY1NTM3
X3YzX3VzcjCBnzANBgkqhkiG9w0BAQEFAAOBjQAwgYkCgYEAvhEMaJ0MzXmwSHdK
h++BcQeYPHT9Q0ZPLQW62rJ/4w6Fkh8s3FShPtF6cWRSmIk9SinXYUPbAmYzjvYe
4aH66FgjpwNDdTt7rOXizFSevG7E+woORloRjCWBgv8u2pat+l0GYWS75XfuWEZ3
PrqiMqubQZguEEM1FJlr3XpyvjcCAwEAAaN7MHkwCQYDVR0TBAIwADAsBglghkgB
hvhCAQ0EHxYdT3BlblNTTCBHZW5lcmF0ZWQgQ2VydGlmaWNhdGUwHQYDVR0OBBYE
FLFynFd3tVbQjlNjDjxejyIzO/aTMB8GA1UdIwQYMBaAFLgV5qiUTeeQN0XTB0cr
ojlHbC+UMA0GCSqGSIb3DQEBCwUAA4GBAK6RMrKv558lz3adLn5n+tYrSEeGkSC9
etomxNkhScxdBL+/+1BBwaZWizD1NCq4l0N/z2VBeGb57PrXHHtsmJ0jSpQhh42s
nBD+60lqkSSymrZuEk41dwYbRuw+8thTUri9iPv1KrciHmaMdOekdCQxln9Ie0c/
uI+9mPOXyeLZ
-----END CERTIFICATE-----
