Certificate:
    Data:
        Version: 3 (0x2)
        Serial Number: 268435539 (0x10000053)
    Signature Algorithm: sha256WithRSAEncryption
        Issuer: CN=SRK4_sha256_1024_65537_v3_ca
        Validity
            Not Before: Mar  7 15:13:30 2018 GMT
            Not After : Mar  4 15:13:30 2028 GMT
        Subject: CN=IMG4_1_sha256_1024_65537_v3_usr
        Subject Public Key Info:
            Public Key Algorithm: rsaEncryption
                Public-Key: (1024 bit)
                Modulus:
                    00:c3:c3:f1:10:25:cd:5f:19:a2:1d:2b:df:29:dd:
                    b7:04:d4:ba:e7:b1:dc:cd:d3:16:22:f8:29:12:30:
                    52:74:6a:48:09:c1:97:c8:b2:4a:b0:6c:5e:da:65:
                    bf:db:e7:3c:dd:60:a8:c0:93:91:03:c3:83:05:c7:
                    0d:2c:89:12:33:d4:6d:c8:14:b3:9e:32:cc:3a:dd:
                    15:2b:53:c7:a3:21:06:f9:21:4a:f1:06:c4:f4:7b:
                    85:99:10:bd:8a:b4:22:88:94:ba:2a:c6:05:b0:dd:
                    5c:4e:86:c1:35:08:ec:a3:88:7f:fa:df:59:1c:18:
                    96:09:51:c7:5a:5f:7a:59:25
                Exponent: 65537 (0x10001)
        X509v3 extensions:
            X509v3 Basic Constraints: 
                CA:FALSE
            Netscape Comment: 
                OpenSSL Generated Certificate
            X509v3 Subject Key Identifier: 
                6C:DF:EB:3B:12:74:81:95:85:3E:41:75:11:C4:6C:9D:A0:23:ED:22
            X509v3 Authority Key Identifier: 
                keyid:CD:C7:7D:EE:CE:23:5A:6A:08:7A:8B:AC:42:0B:46:58:BA:62:F7:B8

    Signature Algorithm: sha256WithRSAEncryption
         9d:79:e2:61:f2:68:f1:d6:ff:a1:4d:36:7c:89:c2:18:50:4c:
         78:4d:46:eb:cc:0e:d5:84:eb:ec:6f:16:ad:81:ea:a7:a4:80:
         ae:98:c8:97:ac:81:67:b6:ed:67:51:8e:62:a2:75:76:c6:e6:
         2a:2a:ae:39:16:49:8b:f1:d7:1a:80:61:79:d9:a6:94:f7:ab:
         77:47:c7:da:86:4b:e3:fc:3f:a3:71:4d:40:a9:4a:66:c7:7e:
         d6:3e:3b:2b:b1:ca:df:a0:5c:13:8f:73:3d:b2:0e:bb:d7:91:
         d0:1a:24:24:b2:7a:5c:44:11:bc:c0:d0:33:32:cd:67:df:0a:
         ea:e4
-----BEGIN CERTIFICATE-----
MIICRTCCAa6gAwIBAgIEEAAAUzANBgkqhkiG9w0BAQsFADAnMSUwIwYDVQQDDBxT
Uks0X3NoYTI1Nl8xMDI0XzY1NTM3X3YzX2NhMB4XDTE4MDMwNzE1MTMzMFoXDTI4
MDMwNDE1MTMzMFowKjEoMCYGA1UEAwwfSU1HNF8xX3NoYTI1Nl8xMDI0XzY1NTM3
X3YzX3VzcjCBnzANBgkqhkiG9w0BAQEFAAOBjQAwgYkCgYEAw8PxECXNXxmiHSvf
Kd23BNS657HczdMWIvgpEjBSdGpICcGXyLJKsGxe2mW/2+c83WCowJORA8ODBccN
LIkSM9RtyBSznjLMOt0VK1PHoyEG+SFK8QbE9HuFmRC9irQiiJS6KsYFsN1cTobB
NQjso4h/+t9ZHBiWCVHHWl96WSUCAwEAAaN7MHkwCQYDVR0TBAIwADAsBglghkgB
hvhCAQ0EHxYdT3BlblNTTCBHZW5lcmF0ZWQgQ2VydGlmaWNhdGUwHQYDVR0OBBYE
FGzf6zsSdIGVhT5BdRHEbJ2gI+0iMB8GA1UdIwQYMBaAFM3Hfe7OI1pqCHqLrEIL
Rli6Yve4MA0GCSqGSIb3DQEBCwUAA4GBAJ154mHyaPHW/6FNNnyJwhhQTHhNRuvM
DtWE6+xvFq2B6qekgK6YyJesgWe27WdRjmKidXbG5ioqrjkWSYvx1xqAYXnZppT3
q3dHx9qGS+P8P6NxTUCpSmbHftY+Oyuxyt+gXBOPcz2yDrvXkdAaJCSyelxEEbzA
0DMyzWffCurk
-----END CERTIFICATE-----
