Certificate:
    Data:
        Version: 3 (0x2)
        Serial Number: 268435551 (0x1000005f)
    Signature Algorithm: sha256WithRSAEncryption
        Issuer: CN=SRK4_sha256_2048_65537_v3_ca
        Validity
            Not Before: Mar  7 15:13:32 2018 GMT
            Not After : Mar  4 15:13:32 2028 GMT
        Subject: CN=IMG4_1_sha256_2048_65537_v3_usr
        Subject Public Key Info:
            Public Key Algorithm: rsaEncryption
                Public-Key: (2048 bit)
                Modulus:
                    00:b2:00:ae:42:67:65:9a:bc:40:ba:b4:40:ed:00:
                    b9:b9:c2:26:77:bc:a0:50:6c:b1:4d:d7:66:1d:25:
                    f6:d7:55:25:fc:89:64:f3:7f:1e:81:97:d9:41:e4:
                    b7:a4:5e:bf:3d:f3:eb:c5:54:5c:69:01:2f:4b:dc:
                    ad:cb:32:b8:bd:cf:a3:09:e0:ca:c7:ee:7f:d6:37:
                    43:db:2d:bc:5d:2b:46:5a:4e:af:90:97:f1:3b:78:
                    cc:6c:c2:c9:d9:4e:c3:df:7a:0c:c4:22:af:13:30:
                    31:2f:0e:a9:c6:40:57:e8:73:74:a7:e5:e4:8c:9a:
                    bc:75:68:00:f8:cd:c8:13:07:42:06:e9:ee:b9:08:
                    01:44:1e:64:36:5f:2b:6e:fc:f9:3d:39:f0:53:1a:
                    ef:e5:f9:62:76:2d:52:d5:9f:77:29:91:e1:ae:9e:
                    64:46:17:99:a7:65:ce:53:4f:95:be:03:8f:2d:03:
                    f0:75:2e:38:cf:6c:e3:2b:18:bc:6c:ee:a3:06:e5:
                    54:9a:1e:95:f5:ed:04:5b:0d:23:56:8f:ac:c8:67:
                    41:a2:91:2c:ec:85:5c:4f:bf:32:9f:36:be:fb:f5:
                    c0:78:3c:25:dd:aa:bf:28:30:be:c6:5c:fd:da:6b:
                    6a:9b:21:31:99:dc:06:c4:66:a1:3d:41:77:04:cd:
                    76:db
                Exponent: 65537 (0x10001)
        X509v3 extensions:
            X509v3 Basic Constraints: 
                CA:FALSE
            Netscape Comment: 
                OpenSSL Generated Certificate
            X509v3 Subject Key Identifier: 
                FE:D1:C2:0C:F8:13:9E:18:C8:01:4E:8E:F1:E4:C5:43:4B:19:84:68
            X509v3 Authority Key Identifier: 
                keyid:3B:FE:5A:8E:74:C4:DB:6B:34:F1:C7:A4:CB:41:33:DC:86:D4:5F:B5

    Signature Algorithm: sha256WithRSAEncryption
         46:39:c5:9c:a5:98:f7:2e:a0:6e:8c:62:9e:7d:4f:bc:33:a7:
         11:b6:cb:c5:e3:3d:a9:d3:25:c7:06:2e:f0:b8:4f:3f:68:44:
         e1:5e:62:7c:c4:d9:b4:52:42:95:9b:2d:77:6c:15:2d:66:8c:
         e0:66:dd:4f:a6:d0:ea:69:1e:b4:f3:01:63:64:d9:dd:46:77:
         43:c9:11:80:2e:c0:42:80:ae:26:6e:c6:c7:1a:3f:2c:1b:cd:
         43:b3:38:7a:b3:c3:65:0a:cf:0d:a5:69:26:c8:29:f7:d2:95:
         ab:1c:13:63:28:5d:58:ab:ff:f9:2b:c4:46:dc:55:2e:4e:d6:
         1f:5e:41:7c:44:ae:b3:40:e4:7f:a1:41:95:90:f8:1f:57:e1:
         65:bf:5c:8d:b0:9f:9b:cd:a0:8e:34:89:d0:e0:bf:06:91:51:
         ab:73:a1:4e:a4:3b:5c:ec:ff:34:c1:a6:71:93:31:58:f3:e6:
         3e:f0:7a:26:65:71:0f:12:7b:da:ed:32:2d:37:92:8c:ed:c9:
         c7:fe:48:04:92:63:c0:4a:22:8d:ff:11:a6:87:e6:25:e6:0a:
         83:78:57:4a:76:cf:b9:90:b8:04:c1:f5:bc:0e:b2:f3:d1:11:
         92:0f:b3:ed:dc:b4:fd:34:0f:d2:88:f5:4b:7e:31:7f:3a:ef:
         10:09:11:b2
-----BEGIN CERTIFICATE-----
MIIDSjCCAjKgAwIBAgIEEAAAXzANBgkqhkiG9w0BAQsFADAnMSUwIwYDVQQDDBxT
Uks0X3NoYTI1Nl8yMDQ4XzY1NTM3X3YzX2NhMB4XDTE4MDMwNzE1MTMzMloXDTI4
MDMwNDE1MTMzMlowKjEoMCYGA1UEAwwfSU1HNF8xX3NoYTI1Nl8yMDQ4XzY1NTM3
X3YzX3VzcjCCASIwDQYJKoZIhvcNAQEBBQADggEPADCCAQoCggEBALIArkJnZZq8
QLq0QO0AubnCJne8oFBssU3XZh0l9tdVJfyJZPN/HoGX2UHkt6Revz3z68VUXGkB
L0vcrcsyuL3Powngysfuf9Y3Q9stvF0rRlpOr5CX8Tt4zGzCydlOw996DMQirxMw
MS8OqcZAV+hzdKfl5IyavHVoAPjNyBMHQgbp7rkIAUQeZDZfK278+T058FMa7+X5
YnYtUtWfdymR4a6eZEYXmadlzlNPlb4Djy0D8HUuOM9s4ysYvGzuowblVJoelfXt
BFsNI1aPrMhnQaKRLOyFXE+/Mp82vvv1wHg8Jd2qvygwvsZc/dprapshMZncBsRm
oT1BdwTNdtsCAwEAAaN7MHkwCQYDVR0TBAIwADAsBglghkgBhvhCAQ0EHxYdT3Bl
blNTTCBHZW5lcmF0ZWQgQ2VydGlmaWNhdGUwHQYDVR0OBBYEFP7Rwgz4E54YyAFO
jvHkxUNLGYRoMB8GA1UdIwQYMBaAFDv+Wo50xNtrNPHHpMtBM9yG1F+1MA0GCSqG
SIb3DQEBCwUAA4IBAQBGOcWcpZj3LqBujGKefU+8M6cRtsvF4z2p0yXHBi7wuE8/
aEThXmJ8xNm0UkKVmy13bBUtZozgZt1PptDqaR608wFjZNndRndDyRGALsBCgK4m
bsbHGj8sG81Dszh6s8NlCs8NpWkmyCn30pWrHBNjKF1Yq//5K8RG3FUuTtYfXkF8
RK6zQOR/oUGVkPgfV+Flv1yNsJ+bzaCONInQ4L8GkVGrc6FOpDtc7P80waZxkzFY
8+Y+8HomZXEPEnva7TItN5KM7cnH/kgEkmPASiKN/xGmh+Yl5gqDeFdKds+5kLgE
wfW8DrLz0RGSD7Pt3LT9NA/SiPVLfjF/Ou8QCRGy
-----END CERTIFICATE-----
