Certificate:
    Data:
        Version: 3 (0x2)
        Serial Number: 268435552 (0x10000060)
    Signature Algorithm: sha256WithRSAEncryption
        Issuer: CN=CA1_sha256_4096_65537_v3_ca
        Validity
            Not Before: Mar  7 15:13:33 2018 GMT
            Not After : Mar  4 15:13:33 2028 GMT
        Subject: CN=SRK1_sha256_4096_65537_v3_ca
        Subject Public Key Info:
            Public Key Algorithm: rsaEncryption
                Public-Key: (4096 bit)
                Modulus:
                    00:af:21:8d:5c:17:8a:a5:c3:30:34:c5:6e:c1:db:
                    79:4d:fc:f8:16:b5:70:e8:d9:2b:83:34:a9:ef:f7:
                    22:2a:e9:ec:1c:e5:98:c2:c7:1a:59:34:90:08:e7:
                    57:07:b6:4a:8e:42:ae:b1:1f:e3:a3:f2:65:c8:81:
                    76:8b:99:ec:ba:6c:71:8b:39:c3:80:ac:47:43:18:
                    74:a3:5a:d1:0d:bd:5d:7d:c9:d2:ea:94:fc:92:0a:
                    16:07:d0:ce:1a:b3:2b:1c:d4:6b:2f:6b:b5:36:3f:
                    7f:70:91:90:61:13:23:3c:bf:81:77:bf:d5:88:9b:
                    0b:f5:d5:e8:b5:34:45:d5:a2:69:ba:d8:78:51:be:
                    79:62:61:47:94:39:0d:42:e4:e3:fc:a9:eb:f4:17:
                    79:36:fb:ab:ca:19:38:2c:fe:36:0b:64:50:8d:6b:
                    fa:07:a3:45:0d:0f:4b:7d:0a:7a:47:4e:a7:72:dd:
                    d6:c2:ae:bd:c7:e4:c9:ae:bd:bb:95:56:27:34:3b:
                    52:72:1d:b3:1c:63:33:c4:3c:02:72:a5:ae:bd:4d:
                    c1:2d:2a:71:14:4d:15:25:04:e8:96:39:21:ee:64:
                    8b:71:4b:7a:d5:16:d1:d1:a9:82:6a:0b:9e:3d:a3:
                    79:b5:f0:b2:e6:13:5c:8b:43:21:7c:72:79:1d:33:
                    97:57:f6:04:4c:ca:fa:40:b7:b6:eb:3d:1e:4b:70:
                    a2:56:d7:99:44:47:47:60:ca:d2:40:b1:77:92:e2:
                    da:ec:e2:30:8e:9c:2b:b2:5e:e6:db:a9:70:c3:e1:
                    b2:51:b0:b0:63:c7:ea:b7:18:e4:fa:f6:57:1d:7f:
                    77:72:58:1d:d3:8d:39:26:d4:2f:8d:25:72:97:52:
                    23:f3:bf:0f:9f:5d:38:aa:03:95:f0:fb:39:95:4f:
                    8e:41:e3:2f:20:da:db:f0:25:6d:5f:b7:9b:df:b1:
                    b7:26:0c:61:8c:ac:e8:3c:8e:9a:14:e7:54:37:25:
                    c7:e3:85:43:3c:d9:ea:64:43:75:b5:b1:30:de:24:
                    d3:86:57:48:93:c6:24:5d:2c:3b:f8:b6:f3:37:6b:
                    02:42:11:65:64:f3:26:10:51:e1:2e:c2:fa:3b:c2:
                    6c:48:6c:83:59:0d:a1:dc:72:8c:a7:06:43:29:70:
                    6c:a0:f6:75:b7:ea:c9:58:79:d5:31:da:16:88:47:
                    29:55:f3:2b:05:7f:11:f5:3b:e9:b7:91:c7:f2:82:
                    74:70:a2:e4:8b:5b:df:39:b6:63:13:a2:68:ad:84:
                    74:6d:79:5c:4b:a2:de:fd:a5:1d:93:59:45:07:c2:
                    9c:4a:40:c9:42:da:03:cc:3b:5b:0a:45:59:0b:90:
                    79:bb:c3
                Exponent: 65537 (0x10001)
        X509v3 extensions:
            X509v3 Subject Key Identifier: 
                49:C4:19:6F:44:F8:97:D4:51:67:CB:70:A3:EF:20:64:18:BF:3B:15
            X509v3 Authority Key Identifier: 
                keyid:43:D0:07:69:93:CB:C5:A1:1E:A1:BA:C9:22:A2:52:D7:90:DC:1A:FA
                DirName:/CN=CA1_sha256_4096_65537_v3_ca
                serial:B4:5E:9A:EE:F9:9D:BD:70

            X509v3 Basic Constraints: critical
                CA:TRUE
            X509v3 Key Usage: 
                Certificate Sign
    Signature Algorithm: sha256WithRSAEncryption
         88:55:3d:17:10:66:4b:b5:8e:a0:67:d7:e4:c4:74:46:e6:3c:
         75:46:d8:d2:11:90:c7:f1:e1:f5:48:f8:3d:34:2f:3b:0d:1d:
         14:b7:5c:70:6f:a1:7a:e0:a8:9b:28:ee:53:46:45:54:e8:95:
         f8:3a:f4:67:0b:19:01:c6:04:d9:a1:9c:bd:5f:50:76:db:89:
         44:3f:01:76:21:0b:87:fd:94:69:3e:5b:32:57:72:16:85:21:
         45:e6:14:9b:67:67:3c:77:ef:0d:d8:c4:a6:f0:ca:8a:d9:80:
         5b:23:00:fc:75:86:35:18:b3:7f:f3:40:da:6b:24:ac:5f:ec:
         0b:ce:30:76:c4:02:aa:20:8a:b7:ed:c2:e7:6a:20:3d:d5:e1:
         aa:a9:f9:18:cc:2f:9f:fd:d9:dc:59:8e:01:34:2f:a8:f7:01:
         c4:cb:b7:bb:85:2a:9d:6a:24:08:6c:37:2f:d1:1d:8f:54:6b:
         9d:55:60:d8:06:f0:22:55:f8:77:e3:3e:40:ce:bb:13:d6:ba:
         5b:07:cf:8f:c8:f3:27:a8:ad:e7:a6:b0:80:5a:95:b6:3b:40:
         c4:1c:1d:10:66:28:96:1a:a9:4b:25:a5:e3:6b:d3:0a:3a:2d:
         d4:88:f0:b0:ab:32:c4:d7:50:46:a4:1c:6a:71:a4:cf:f9:34:
         70:80:74:39:5e:e3:32:4d:14:a4:86:9d:aa:d7:68:41:aa:92:
         31:5c:46:b2:16:ed:6d:c4:00:1f:55:89:4a:fa:f0:77:e9:3c:
         d3:49:73:7a:3c:95:a1:ce:da:88:6a:98:6a:4a:9e:bd:e6:3c:
         f5:4b:3d:28:75:e6:11:80:72:35:25:47:d5:cb:c4:85:82:8b:
         85:b2:be:d8:77:a2:42:e2:12:bc:59:51:aa:5d:96:fc:08:f5:
         80:a2:fb:34:0a:88:a8:71:9e:b6:b9:bf:51:f3:9e:93:41:32:
         05:cb:d8:0e:a0:74:c4:c2:7b:eb:80:6c:df:46:06:eb:ce:9a:
         3f:f3:34:1b:b7:ad:df:72:dd:d4:ce:57:e4:0b:ce:0a:e5:14:
         28:fe:49:2b:37:e4:87:ef:49:9a:9b:b2:02:1c:6c:83:e9:eb:
         59:7a:3c:7d:a1:40:31:da:f4:28:4b:40:9d:15:dd:55:f1:40:
         c1:11:83:30:a1:1b:7b:fe:89:b2:ec:21:e5:fa:8e:e5:06:1a:
         eb:61:1f:95:4a:2a:f8:b9:82:ea:9e:c5:75:28:f9:ee:f6:ce:
         eb:c7:28:9b:64:b4:82:3a:f4:14:fd:c0:fc:98:1d:54:85:46:
         25:bf:32:49:69:f7:f6:90:b1:49:f3:df:41:94:92:18:20:5f:
         91:c5:66:19:8c:31:bf:a8
-----BEGIN CERTIFICATE-----
MIIFZDCCA0ygAwIBAgIEEAAAYDANBgkqhkiG9w0BAQsFADAmMSQwIgYDVQQDFBtD
QTFfc2hhMjU2XzQwOTZfNjU1MzdfdjNfY2EwHhcNMTgwMzA3MTUxMzMzWhcNMjgw
MzA0MTUxMzMzWjAnMSUwIwYDVQQDDBxTUksxX3NoYTI1Nl80MDk2XzY1NTM3X3Yz
X2NhMIICIjANBgkqhkiG9w0BAQEFAAOCAg8AMIICCgKCAgEAryGNXBeKpcMwNMVu
wdt5Tfz4FrVw6NkrgzSp7/ciKunsHOWYwscaWTSQCOdXB7ZKjkKusR/jo/JlyIF2
i5nsumxxiznDgKxHQxh0o1rRDb1dfcnS6pT8kgoWB9DOGrMrHNRrL2u1Nj9/cJGQ
YRMjPL+Bd7/ViJsL9dXotTRF1aJputh4Ub55YmFHlDkNQuTj/Knr9Bd5Nvuryhk4
LP42C2RQjWv6B6NFDQ9LfQp6R06nct3Wwq69x+TJrr27lVYnNDtSch2zHGMzxDwC
cqWuvU3BLSpxFE0VJQToljkh7mSLcUt61RbR0amCaguePaN5tfCy5hNci0MhfHJ5
HTOXV/YETMr6QLe26z0eS3CiVteZREdHYMrSQLF3kuLa7OIwjpwrsl7m26lww+Gy
UbCwY8fqtxjk+vZXHX93clgd0405JtQvjSVyl1Ij878Pn104qgOV8Ps5lU+OQeMv
INrb8CVtX7eb37G3JgxhjKzoPI6aFOdUNyXH44VDPNnqZEN1tbEw3iTThldIk8Yk
XSw7+LbzN2sCQhFlZPMmEFHhLsL6O8JsSGyDWQ2h3HKMpwZDKXBsoPZ1t+rJWHnV
MdoWiEcpVfMrBX8R9Tvpt5HH8oJ0cKLki1vfObZjE6JorYR0bXlcS6Le/aUdk1lF
B8KcSkDJQtoDzDtbCkVZC5B5u8MCAwEAAaOBmDCBlTAdBgNVHQ4EFgQUScQZb0T4
l9RRZ8two+8gZBi/OxUwVgYDVR0jBE8wTYAUQ9AHaZPLxaEeobrJIqJS15DcGvqh
KqQoMCYxJDAiBgNVBAMUG0NBMV9zaGEyNTZfNDA5Nl82NTUzN192M19jYYIJALRe
mu75nb1wMA8GA1UdEwEB/wQFMAMBAf8wCwYDVR0PBAQDAgIEMA0GCSqGSIb3DQEB
CwUAA4ICAQCIVT0XEGZLtY6gZ9fkxHRG5jx1RtjSEZDH8eH1SPg9NC87DR0Ut1xw
b6F64KibKO5TRkVU6JX4OvRnCxkBxgTZoZy9X1B224lEPwF2IQuH/ZRpPlsyV3IW
hSFF5hSbZ2c8d+8N2MSm8MqK2YBbIwD8dYY1GLN/80DaaySsX+wLzjB2xAKqIIq3
7cLnaiA91eGqqfkYzC+f/dncWY4BNC+o9wHEy7e7hSqdaiQIbDcv0R2PVGudVWDY
BvAiVfh34z5AzrsT1rpbB8+PyPMnqK3nprCAWpW2O0DEHB0QZiiWGqlLJaXja9MK
Oi3UiPCwqzLE11BGpBxqcaTP+TRwgHQ5XuMyTRSkhp2q12hBqpIxXEayFu1txAAf
VYlK+vB36TzTSXN6PJWhztqIaphqSp695jz1Sz0odeYRgHI1JUfVy8SFgouFsr7Y
d6JC4hK8WVGqXZb8CPWAovs0CoiocZ62ub9R856TQTIFy9gOoHTEwnvrgGzfRgbr
zpo/8zQbt63fct3UzlfkC84K5RQo/kkrN+SH70mam7ICHGyD6etZejx9oUAx2vQo
S0CdFd1V8UDBEYMwoRt7/omy7CHl+o7lBhrrYR+VSir4uYLqnsV1KPnu9s7rxyib
ZLSCOvQU/cD8mB1UhUYlvzJJaff2kLFJ899BlJIYIF+RxWYZjDG/qA==
-----END CERTIFICATE-----
