Certificate:
    Data:
        Version: 3 (0x2)
        Serial Number: 268435540 (0x10000054)
    Signature Algorithm: sha256WithRSAEncryption
        Issuer: CN=CA1_sha256_2048_65537_v3_ca
        Validity
            Not Before: Mar  7 15:13:30 2018 GMT
            Not After : Mar  4 15:13:30 2028 GMT
        Subject: CN=SRK1_sha256_2048_65537_v3_ca
        Subject Public Key Info:
            Public Key Algorithm: rsaEncryption
                Public-Key: (2048 bit)
                Modulus:
                    00:b6:0c:ce:8f:44:22:9d:2e:6a:11:32:ac:74:97:
                    a0:47:5c:98:0a:a8:69:f5:95:02:1a:fd:78:52:c0:
                    42:21:8b:85:e8:45:f4:85:3b:0e:e4:d2:b4:9b:d0:
                    e0:98:b3:4f:c5:d2:34:2f:aa:06:e6:1d:05:cd:54:
                    dd:ff:84:08:08:1f:9a:68:db:df:d0:f8:63:3a:13:
                    34:ad:27:10:f2:d5:7f:36:96:27:b3:ef:5f:52:da:
                    1c:05:c9:9b:5d:5d:11:af:29:0a:a9:a7:23:21:99:
                    ad:b1:20:5b:35:d1:e0:37:c4:0c:1d:88:d5:cc:8a:
                    b9:64:d0:f7:50:51:45:91:74:f6:c6:d7:2a:94:b0:
                    78:ad:69:32:61:a1:ae:3d:52:88:47:b9:70:44:3f:
                    b3:60:36:4b:ba:1c:b7:ba:03:5d:2c:21:e5:20:a1:
                    b6:c5:ca:cf:4a:5a:3e:50:9b:23:95:0e:c8:2d:fe:
                    de:f0:4f:a4:2f:c9:bb:95:be:a2:59:16:de:b8:8a:
                    af:72:ca:13:98:e0:ab:e2:76:26:3e:ca:1c:f5:f4:
                    ba:ab:6c:bc:b1:58:11:f9:38:da:78:9c:9e:08:34:
                    5f:a5:4b:ca:51:41:24:9b:75:a2:72:93:2e:51:f4:
                    ad:fa:d8:83:96:d6:aa:67:fc:55:59:a5:e6:34:31:
                    ad:3b
                Exponent: 65537 (0x10001)
        X509v3 extensions:
            X509v3 Subject Key Identifier: 
                83:51:E2:3E:A6:86:D1:75:4A:F5:A3:BF:11:E7:36:71:03:8F:E2:85
            X509v3 Authority Key Identifier: 
                keyid:BC:E7:DF:9E:60:96:63:1A:5C:A6:2F:6C:C9:16:A6:2B:12:46:3B:F8
                DirName:/CN=CA1_sha256_2048_65537_v3_ca
                serial:C2:C5:67:E8:A7:A7:6C:F8

            X509v3 Basic Constraints: critical
                CA:TRUE
            X509v3 Key Usage: 
                Certificate Sign
    Signature Algorithm: sha256WithRSAEncryption
         4c:95:5f:1e:57:0b:b6:c4:60:41:79:9a:ed:9a:51:3b:e2:ce:
         6c:46:99:e9:70:72:05:0b:67:df:c2:df:dd:10:63:3e:8d:17:
         2b:2c:0c:c3:1c:4a:55:4b:e0:be:c5:3f:2d:75:a7:36:a3:c5:
         e9:0c:e6:3f:a3:d5:7a:ad:8a:9f:8a:6c:07:72:df:8c:6b:b5:
         f5:21:54:70:8b:27:1b:65:2d:f1:df:c8:4c:d2:27:d9:d9:89:
         68:59:3f:14:0f:d4:7c:24:2e:bc:e5:b9:ce:a0:75:85:38:1d:
         ff:3c:72:12:88:23:02:69:ee:60:a9:9f:83:f7:a6:22:a7:89:
         51:4a:62:6e:b8:3b:42:9a:67:58:d2:4b:68:96:1f:b1:de:3b:
         0a:6c:15:f7:65:9b:93:85:9f:c5:1e:82:d6:88:8c:37:80:c4:
         2b:e2:ea:ad:35:d5:1f:f2:dc:cb:08:2a:fc:ef:b5:0e:8b:85:
         3d:23:49:64:5f:3f:b3:e4:7e:47:ac:00:14:c6:8e:70:eb:97:
         3f:6b:56:bf:9e:28:5f:f9:dc:0c:e0:c6:bc:76:27:33:d2:40:
         58:81:74:d9:aa:11:da:6d:bd:3f:53:10:a2:50:32:79:90:85:
         97:40:17:25:8d:54:1c:1b:d2:01:ea:41:86:da:61:4a:68:f3:
         9c:33:c7:ff
-----BEGIN CERTIFICATE-----
MIIDZDCCAkygAwIBAgIEEAAAVDANBgkqhkiG9w0BAQsFADAmMSQwIgYDVQQDFBtD
QTFfc2hhMjU2XzIwNDhfNjU1MzdfdjNfY2EwHhcNMTgwMzA3MTUxMzMwWhcNMjgw
MzA0MTUxMzMwWjAnMSUwIwYDVQQDDBxTUksxX3NoYTI1Nl8yMDQ4XzY1NTM3X3Yz
X2NhMIIBIjANBgkqhkiG9w0BAQEFAAOCAQ8AMIIBCgKCAQEAtgzOj0QinS5qETKs
dJegR1yYCqhp9ZUCGv14UsBCIYuF6EX0hTsO5NK0m9DgmLNPxdI0L6oG5h0FzVTd
/4QICB+aaNvf0PhjOhM0rScQ8tV/NpYns+9fUtocBcmbXV0RrykKqacjIZmtsSBb
NdHgN8QMHYjVzIq5ZND3UFFFkXT2xtcqlLB4rWkyYaGuPVKIR7lwRD+zYDZLuhy3
ugNdLCHlIKG2xcrPSlo+UJsjlQ7ILf7e8E+kL8m7lb6iWRbeuIqvcsoTmOCr4nYm
Psoc9fS6q2y8sVgR+TjaeJyeCDRfpUvKUUEkm3WicpMuUfSt+tiDltaqZ/xVWaXm
NDGtOwIDAQABo4GYMIGVMB0GA1UdDgQWBBSDUeI+pobRdUr1o78R5zZxA4/ihTBW
BgNVHSMETzBNgBS859+eYJZjGlymL2zJFqYrEkY7+KEqpCgwJjEkMCIGA1UEAxQb
Q0ExX3NoYTI1Nl8yMDQ4XzY1NTM3X3YzX2NhggkAwsVn6KenbPgwDwYDVR0TAQH/
BAUwAwEB/zALBgNVHQ8EBAMCAgQwDQYJKoZIhvcNAQELBQADggEBAEyVXx5XC7bE
YEF5mu2aUTvizmxGmelwcgULZ9/C390QYz6NFyssDMMcSlVL4L7FPy11pzajxekM
5j+j1Xqtip+KbAdy34xrtfUhVHCLJxtlLfHfyEzSJ9nZiWhZPxQP1HwkLrzluc6g
dYU4Hf88chKIIwJp7mCpn4P3piKniVFKYm64O0KaZ1jSS2iWH7HeOwpsFfdlm5OF
n8UegtaIjDeAxCvi6q011R/y3MsIKvzvtQ6LhT0jSWRfP7PkfkesABTGjnDrlz9r
Vr+eKF/53Azgxrx2JzPSQFiBdNmqEdptvT9TEKJQMnmQhZdAFyWNVBwb0gHqQYba
YUpo85wzx/8=
-----END CERTIFICATE-----
