Certificate:
    Data:
        Version: 3 (0x2)
        Serial Number: 268435555 (0x10000063)
    Signature Algorithm: sha256WithRSAEncryption
        Issuer: CN=CA1_sha256_4096_65537_v3_ca
        Validity
            Not Before: Mar  7 15:13:34 2018 GMT
            Not After : Mar  4 15:13:34 2028 GMT
        Subject: CN=SRK2_sha256_4096_65537_v3_ca
        Subject Public Key Info:
            Public Key Algorithm: rsaEncryption
                Public-Key: (4096 bit)
                Modulus:
                    00:a3:99:e9:a3:5a:d8:03:4d:95:5c:c3:1e:1f:ff:
                    5f:51:e4:65:c6:a0:4d:0e:6c:46:9e:54:1f:2a:3a:
                    1e:e9:aa:15:10:1c:46:55:30:2c:57:59:ea:ac:6a:
                    01:a8:2d:fe:3d:65:21:8d:9c:e4:fe:49:0c:97:f3:
                    b6:7d:9c:a7:4a:f3:7b:41:d7:f6:d6:52:59:1e:bf:
                    4d:ef:96:7b:49:c8:ac:7b:63:26:27:97:3d:de:be:
                    09:f1:61:3f:c3:34:ec:f5:54:4e:8f:d7:8d:ec:fe:
                    0c:b1:bf:aa:b5:6e:bb:ee:de:61:95:81:28:c1:97:
                    69:88:94:56:44:58:ae:b7:d9:9e:0a:52:8d:e1:5a:
                    18:69:ba:dc:37:fa:d2:b7:e8:e4:57:41:63:a6:9c:
                    d5:38:07:3f:d6:05:4b:42:ed:ef:5d:73:74:60:95:
                    fd:4b:d1:9f:4d:8b:ec:54:d0:69:d3:54:db:49:b9:
                    52:53:0f:37:a4:db:3d:90:1d:84:e3:52:04:58:9b:
                    49:2d:ef:6d:a8:04:d4:d4:50:13:05:f1:71:fd:34:
                    1f:f6:6f:a1:c9:ee:de:b4:b4:85:eb:f2:62:d6:cf:
                    c4:63:c3:be:ed:61:b0:93:f2:60:58:b8:ba:f5:65:
                    c2:09:c1:17:74:d6:a7:65:33:6a:aa:db:3c:b8:22:
                    b3:7c:c4:67:e7:6e:a8:a2:8f:d7:0d:cb:f9:d6:37:
                    ef:03:01:a1:fe:1f:a1:d9:15:31:7c:75:a8:43:7d:
                    2e:fd:d2:94:75:30:79:d0:b8:d7:9e:b2:ed:0d:09:
                    bf:88:45:52:c6:e1:dd:79:61:36:19:0f:2b:03:a5:
                    4a:5e:c4:a2:94:64:a3:36:d1:3b:0c:db:bb:d2:e5:
                    b8:04:21:0d:31:21:e8:d8:8b:4e:8d:6e:a4:95:7d:
                    29:43:aa:13:c7:a6:66:17:46:c4:cf:72:39:28:5c:
                    4b:9c:8d:5f:5c:c7:96:74:7d:9d:a9:e8:79:11:70:
                    72:ea:87:a8:d1:d8:38:93:0a:cb:e2:2a:bf:f9:dd:
                    0f:07:c4:0c:38:ba:9d:26:4e:ab:0e:0d:dd:9b:54:
                    88:ab:67:e7:11:f9:a4:d6:c7:f4:fd:91:64:70:52:
                    ff:a3:1a:1b:f9:99:62:f7:af:ee:57:ec:5f:c3:a6:
                    a2:a2:62:78:23:9f:a9:30:23:36:48:ef:41:b8:ab:
                    3a:59:1b:65:20:24:00:57:32:c5:77:88:0b:7e:d9:
                    67:ab:c9:fe:95:c8:8a:38:7c:ea:79:04:9b:b8:18:
                    f2:11:fa:88:f6:5b:12:cf:8e:06:50:8c:b2:40:68:
                    43:c2:92:5a:a9:f5:c7:1d:c0:ad:da:43:c2:e6:d8:
                    e8:9d:db
                Exponent: 65537 (0x10001)
        X509v3 extensions:
            X509v3 Subject Key Identifier: 
                CD:95:8D:6D:65:DB:26:B4:13:CD:0B:B3:DA:77:87:25:77:07:FF:41
            X509v3 Authority Key Identifier: 
                keyid:43:D0:07:69:93:CB:C5:A1:1E:A1:BA:C9:22:A2:52:D7:90:DC:1A:FA
                DirName:/CN=CA1_sha256_4096_65537_v3_ca
                serial:B4:5E:9A:EE:F9:9D:BD:70

            X509v3 Basic Constraints: critical
                CA:TRUE
            X509v3 Key Usage: 
                Certificate Sign
    Signature Algorithm: sha256WithRSAEncryption
         0f:2b:16:1a:40:e7:8f:0b:f1:81:58:e8:f6:f2:ed:07:66:83:
         c7:2f:d2:49:41:64:d7:6f:95:75:cb:3e:71:a1:46:97:5d:93:
         2c:37:4b:a0:30:0c:c0:2b:5a:95:7c:fe:b4:86:bc:82:a6:d8:
         c0:30:d1:10:df:4b:03:c2:4c:a6:2c:7d:0f:e8:3a:91:20:33:
         49:59:a7:a8:09:25:ab:d5:69:17:d2:b6:b9:f5:28:69:52:e6:
         12:cd:34:fe:d2:70:06:da:c1:12:4c:80:2c:d0:7a:9f:8c:76:
         5e:fa:5d:16:38:0f:45:c0:7c:59:70:de:cb:c4:4f:a5:26:b5:
         b8:37:77:1f:bb:e6:28:88:c1:71:87:de:2e:dc:7e:ab:10:d7:
         16:59:9f:f7:24:69:11:13:06:8a:16:f0:34:db:83:ec:38:d1:
         e1:2b:71:16:5b:33:39:f1:71:f1:e9:e3:2b:5a:88:8c:8c:6b:
         f9:a7:f0:6c:27:bb:32:6a:3c:98:7c:5e:74:c2:14:47:19:06:
         71:8a:31:8f:68:59:76:4f:0f:60:72:72:6c:3c:a0:7d:1d:cf:
         dd:6c:a1:21:bc:8b:42:88:2c:fc:5d:42:cb:97:d3:c7:38:da:
         f4:cc:b8:03:a1:92:ef:46:f2:37:4c:b0:9f:d8:06:9e:05:3d:
         cd:15:41:2e:23:ba:b1:a0:14:7c:8f:6a:2e:8e:be:eb:3a:94:
         99:c3:79:a6:63:d1:d5:df:86:06:76:c9:7c:fc:ad:25:75:3c:
         03:91:4d:16:54:23:aa:56:72:4d:3e:bb:11:d7:be:9e:e0:8b:
         0d:89:7d:2e:db:e5:06:ae:ff:56:d7:5c:a3:8d:c4:65:86:83:
         ee:8b:9f:0a:b1:02:b7:45:63:ed:00:a4:32:e1:85:5a:f2:d8:
         dd:22:53:64:46:6f:ba:ed:a8:f9:d6:6b:2d:84:6f:a3:b2:26:
         2a:5d:04:05:35:fe:bd:1c:69:f3:d0:49:82:e6:c3:8e:ce:e0:
         b9:2f:38:a8:6c:4c:98:e2:8c:3f:45:5e:e0:6a:59:2c:6b:1f:
         64:b7:83:c5:03:cf:7a:bc:73:c4:36:36:39:0a:7d:d8:11:e3:
         b6:18:21:70:a8:0d:c7:81:a6:1f:75:04:a2:b4:5d:64:a7:6c:
         74:55:13:16:a7:75:e0:44:61:20:0f:3c:1e:5f:a6:bd:99:e6:
         29:de:a0:45:84:2f:3a:68:1f:2e:d0:f9:44:7e:9a:9e:e7:31:
         9e:05:5c:2d:e0:07:db:ff:5b:08:c5:60:27:32:ea:94:5d:37:
         38:da:70:5e:40:cf:e2:0a:1f:74:e2:00:22:56:ae:cf:73:da:
         b1:33:54:fc:03:64:99:3d
-----BEGIN CERTIFICATE-----
MIIFZDCCA0ygAwIBAgIEEAAAYzANBgkqhkiG9w0BAQsFADAmMSQwIgYDVQQDFBtD
QTFfc2hhMjU2XzQwOTZfNjU1MzdfdjNfY2EwHhcNMTgwMzA3MTUxMzM0WhcNMjgw
MzA0MTUxMzM0WjAnMSUwIwYDVQQDDBxTUksyX3NoYTI1Nl80MDk2XzY1NTM3X3Yz
X2NhMIICIjANBgkqhkiG9w0BAQEFAAOCAg8AMIICCgKCAgEAo5npo1rYA02VXMMe
H/9fUeRlxqBNDmxGnlQfKjoe6aoVEBxGVTAsV1nqrGoBqC3+PWUhjZzk/kkMl/O2
fZynSvN7Qdf21lJZHr9N75Z7Scise2MmJ5c93r4J8WE/wzTs9VROj9eN7P4Msb+q
tW677t5hlYEowZdpiJRWRFiut9meClKN4VoYabrcN/rSt+jkV0FjppzVOAc/1gVL
Qu3vXXN0YJX9S9GfTYvsVNBp01TbSblSUw83pNs9kB2E41IEWJtJLe9tqATU1FAT
BfFx/TQf9m+hye7etLSF6/Ji1s/EY8O+7WGwk/JgWLi69WXCCcEXdNanZTNqqts8
uCKzfMRn526ooo/XDcv51jfvAwGh/h+h2RUxfHWoQ30u/dKUdTB50LjXnrLtDQm/
iEVSxuHdeWE2GQ8rA6VKXsSilGSjNtE7DNu70uW4BCENMSHo2ItOjW6klX0pQ6oT
x6ZmF0bEz3I5KFxLnI1fXMeWdH2dqeh5EXBy6oeo0dg4kwrL4iq/+d0PB8QMOLqd
Jk6rDg3dm1SIq2fnEfmk1sf0/ZFkcFL/oxob+Zli96/uV+xfw6aiomJ4I5+pMCM2
SO9BuKs6WRtlICQAVzLFd4gLftlnq8n+lciKOHzqeQSbuBjyEfqI9lsSz44GUIyy
QGhDwpJaqfXHHcCt2kPC5tjondsCAwEAAaOBmDCBlTAdBgNVHQ4EFgQUzZWNbWXb
JrQTzQuz2neHJXcH/0EwVgYDVR0jBE8wTYAUQ9AHaZPLxaEeobrJIqJS15DcGvqh
KqQoMCYxJDAiBgNVBAMUG0NBMV9zaGEyNTZfNDA5Nl82NTUzN192M19jYYIJALRe
mu75nb1wMA8GA1UdEwEB/wQFMAMBAf8wCwYDVR0PBAQDAgIEMA0GCSqGSIb3DQEB
CwUAA4ICAQAPKxYaQOePC/GBWOj28u0HZoPHL9JJQWTXb5V1yz5xoUaXXZMsN0ug
MAzAK1qVfP60hryCptjAMNEQ30sDwkymLH0P6DqRIDNJWaeoCSWr1WkX0ra59Shp
UuYSzTT+0nAG2sESTIAs0HqfjHZe+l0WOA9FwHxZcN7LxE+lJrW4N3cfu+YoiMFx
h94u3H6rENcWWZ/3JGkREwaKFvA024PsONHhK3EWWzM58XHx6eMrWoiMjGv5p/Bs
J7syajyYfF50whRHGQZxijGPaFl2Tw9gcnJsPKB9Hc/dbKEhvItCiCz8XULLl9PH
ONr0zLgDoZLvRvI3TLCf2AaeBT3NFUEuI7qxoBR8j2oujr7rOpSZw3mmY9HV34YG
dsl8/K0ldTwDkU0WVCOqVnJNPrsR176e4IsNiX0u2+UGrv9W11yjjcRlhoPui58K
sQK3RWPtAKQy4YVa8tjdIlNkRm+67aj51msthG+jsiYqXQQFNf69HGnz0EmC5sOO
zuC5LziobEyY4ow/RV7galksax9kt4PFA896vHPENjY5Cn3YEeO2GCFwqA3HgaYf
dQSitF1kp2x0VRMWp3XgRGEgDzweX6a9meYp3qBFhC86aB8u0PlEfpqe5zGeBVwt
4Afb/1sIxWAnMuqUXTc42nBeQM/iCh904gAiVq7Pc9qxM1T8A2SZPQ==
-----END CERTIFICATE-----
