Certificate:
    Data:
        Version: 3 (0x2)
        Serial Number: 268435543 (0x10000057)
    Signature Algorithm: sha256WithRSAEncryption
        Issuer: CN=CA1_sha256_2048_65537_v3_ca
        Validity
            Not Before: Mar  7 15:13:31 2018 GMT
            Not After : Mar  4 15:13:31 2028 GMT
        Subject: CN=SRK2_sha256_2048_65537_v3_ca
        Subject Public Key Info:
            Public Key Algorithm: rsaEncryption
                Public-Key: (2048 bit)
                Modulus:
                    00:d1:2a:a7:1b:bb:6c:ce:d6:f2:08:2d:1d:13:93:
                    64:6a:f7:f6:f2:fa:db:3d:b1:f6:ff:9a:f0:ab:95:
                    da:70:6f:6e:2c:a8:54:d1:12:96:77:e8:6c:16:55:
                    2c:d6:0a:b1:08:fe:17:0b:44:61:67:47:9e:73:92:
                    55:e3:5a:b5:00:30:ac:2c:70:1b:fc:7c:25:b1:dd:
                    77:77:88:78:dd:b8:99:d8:8e:5e:66:0c:12:73:de:
                    ed:1a:8c:97:fe:92:03:3f:79:3b:e8:d9:9e:c0:97:
                    ab:b8:63:a1:23:34:90:97:58:22:93:0a:88:e1:74:
                    95:d1:73:66:82:8d:57:60:8b:35:ba:6f:e1:fb:da:
                    7d:fd:de:7b:c9:d0:a0:d8:39:64:52:98:39:01:94:
                    d2:1a:42:01:fc:da:e6:d2:84:00:c4:88:b6:f7:da:
                    0d:98:32:28:31:97:02:73:73:a6:ad:ba:50:93:26:
                    60:79:2f:04:f6:05:c3:f7:6a:48:61:d1:31:8a:38:
                    cd:ea:16:2e:e0:d3:b7:60:f9:fe:40:b8:29:37:df:
                    02:d3:ac:0d:95:e8:a6:9b:b7:ef:5f:64:be:df:af:
                    99:7e:f8:72:5a:6d:c2:5d:1b:7d:9c:f3:91:dc:54:
                    fa:ba:cd:55:4b:85:59:82:53:fa:2b:b7:13:9d:0b:
                    11:29
                Exponent: 65537 (0x10001)
        X509v3 extensions:
            X509v3 Subject Key Identifier: 
                3C:8B:9F:F4:F1:CE:FC:A4:77:03:8E:AB:F7:61:DB:C6:6D:1B:41:41
            X509v3 Authority Key Identifier: 
                keyid:BC:E7:DF:9E:60:96:63:1A:5C:A6:2F:6C:C9:16:A6:2B:12:46:3B:F8
                DirName:/CN=CA1_sha256_2048_65537_v3_ca
                serial:C2:C5:67:E8:A7:A7:6C:F8

            X509v3 Basic Constraints: critical
                CA:TRUE
            X509v3 Key Usage: 
                Certificate Sign
    Signature Algorithm: sha256WithRSAEncryption
         8f:19:6d:e4:54:7b:fc:56:00:58:24:bc:54:de:26:b2:a3:75:
         28:f9:d2:f2:bf:16:ec:44:10:c1:ec:62:b0:1b:8a:ac:2f:33:
         04:b8:46:82:19:4b:81:45:03:89:35:82:02:17:fa:c1:22:e2:
         de:0b:2d:12:34:c6:75:a5:db:21:cb:3f:b0:e1:7a:79:f1:2c:
         2c:53:ae:cf:47:20:cd:72:88:07:55:3b:e0:a0:ec:db:7d:09:
         66:14:be:5c:b6:8e:21:e8:68:53:94:d3:81:65:61:17:a1:0f:
         ec:28:0a:73:af:b2:c0:18:e0:14:e7:22:3e:43:ac:fa:41:a5:
         27:4d:67:2f:e3:5b:39:b8:39:38:c7:6b:35:6b:a5:1c:ee:be:
         6b:0e:82:85:7a:03:32:23:59:fb:bb:02:5d:1d:06:6c:e1:aa:
         32:0f:1c:62:3c:2c:9b:68:c6:de:da:1b:b6:65:9d:5f:a8:34:
         b5:23:7b:cc:65:52:46:db:f3:01:97:1a:ef:9a:d1:3a:b8:d9:
         a0:b5:73:b6:d7:b6:17:ed:4c:e3:4e:26:85:51:6f:54:d6:55:
         c5:9d:49:2e:09:41:b2:88:17:df:d0:ee:38:1f:4d:63:c9:34:
         03:8c:37:73:82:11:3e:44:b0:b6:5d:10:d7:5e:12:3d:78:24:
         af:19:c7:e2
-----BEGIN CERTIFICATE-----
MIIDZDCCAkygAwIBAgIEEAAAVzANBgkqhkiG9w0BAQsFADAmMSQwIgYDVQQDFBtD
QTFfc2hhMjU2XzIwNDhfNjU1MzdfdjNfY2EwHhcNMTgwMzA3MTUxMzMxWhcNMjgw
MzA0MTUxMzMxWjAnMSUwIwYDVQQDDBxTUksyX3NoYTI1Nl8yMDQ4XzY1NTM3X3Yz
X2NhMIIBIjANBgkqhkiG9w0BAQEFAAOCAQ8AMIIBCgKCAQEA0SqnG7tsztbyCC0d
E5Nkavf28vrbPbH2/5rwq5XacG9uLKhU0RKWd+hsFlUs1gqxCP4XC0RhZ0eec5JV
41q1ADCsLHAb/Hwlsd13d4h43biZ2I5eZgwSc97tGoyX/pIDP3k76NmewJeruGOh
IzSQl1gikwqI4XSV0XNmgo1XYIs1um/h+9p9/d57ydCg2DlkUpg5AZTSGkIB/Nrm
0oQAxIi299oNmDIoMZcCc3OmrbpQkyZgeS8E9gXD92pIYdExijjN6hYu4NO3YPn+
QLgpN98C06wNleimm7fvX2S+36+ZfvhyWm3CXRt9nPOR3FT6us1VS4VZglP6K7cT
nQsRKQIDAQABo4GYMIGVMB0GA1UdDgQWBBQ8i5/08c78pHcDjqv3YdvGbRtBQTBW
BgNVHSMETzBNgBS859+eYJZjGlymL2zJFqYrEkY7+KEqpCgwJjEkMCIGA1UEAxQb
Q0ExX3NoYTI1Nl8yMDQ4XzY1NTM3X3YzX2NhggkAwsVn6KenbPgwDwYDVR0TAQH/
BAUwAwEB/zALBgNVHQ8EBAMCAgQwDQYJKoZIhvcNAQELBQADggEBAI8ZbeRUe/xW
AFgkvFTeJrKjdSj50vK/FuxEEMHsYrAbiqwvMwS4RoIZS4FFA4k1ggIX+sEi4t4L
LRI0xnWl2yHLP7DhennxLCxTrs9HIM1yiAdVO+Cg7Nt9CWYUvly2jiHoaFOU04Fl
YRehD+woCnOvssAY4BTnIj5DrPpBpSdNZy/jWzm4OTjHazVrpRzuvmsOgoV6AzIj
Wfu7Al0dBmzhqjIPHGI8LJtoxt7aG7ZlnV+oNLUje8xlUkbb8wGXGu+a0Tq42aC1
c7bXthftTONOJoVRb1TWVcWdSS4JQbKIF9/Q7jgfTWPJNAOMN3OCET5EsLZdENde
Ej14JK8Zx+I=
-----END CERTIFICATE-----
