Certificate:
    Data:
        Version: 3 (0x2)
        Serial Number: 268435534 (0x1000004e)
    Signature Algorithm: sha256WithRSAEncryption
        Issuer: CN=CA1_sha256_1024_65537_v3_ca
        Validity
            Not Before: Mar  7 15:13:30 2018 GMT
            Not After : Mar  4 15:13:30 2028 GMT
        Subject: CN=SRK3_sha256_1024_65537_v3_ca
        Subject Public Key Info:
            Public Key Algorithm: rsaEncryption
                Public-Key: (1024 bit)
                Modulus:
                    00:bf:0a:fc:6d:34:dc:c8:39:65:74:09:20:d2:3d:
                    0b:67:cd:85:69:0e:5f:18:1d:e3:21:89:82:8c:32:
                    5b:9d:ea:76:44:ac:b4:fc:f7:fe:5b:ad:0a:71:50:
                    52:18:87:04:f3:5b:75:9d:cb:d2:7b:b5:5c:50:7a:
                    2e:78:17:73:44:5b:a4:29:61:3e:9a:75:8e:8a:9b:
                    57:b6:af:93:56:7c:45:93:bd:68:7d:ce:a1:8a:67:
                    ff:07:18:89:c3:61:c8:28:a8:c0:14:9e:4f:5d:50:
                    0a:61:2c:51:74:59:b6:d1:f1:b4:d9:b3:16:7e:51:
                    2f:d2:72:a3:ce:cb:6a:8c:99
                Exponent: 65537 (0x10001)
        X509v3 extensions:
            X509v3 Subject Key Identifier: 
                B8:15:E6:A8:94:4D:E7:90:37:45:D3:07:47:2B:A2:39:47:6C:2F:94
            X509v3 Authority Key Identifier: 
                keyid:74:64:6E:26:30:BE:E2:DF:27:41:E5:E5:E0:D1:55:1C:90:33:0D:4A
                DirName:/CN=CA1_sha256_1024_65537_v3_ca
                serial:B1:9D:E8:9F:1E:CC:7C:8C

            X509v3 Basic Constraints: critical
                CA:TRUE
            X509v3 Key Usage: 
                Certificate Sign
    Signature Algorithm: sha256WithRSAEncryption
         89:33:11:e9:9a:54:e4:e6:8f:da:f3:78:5a:fb:6e:8d:f5:fe:
         5c:c8:f4:bc:6f:9b:64:8f:9f:61:cd:2f:14:c4:a0:88:c3:fd:
         91:9d:42:38:31:90:24:44:1a:22:dd:47:35:03:34:92:f8:a7:
         ad:67:32:32:2d:da:56:2d:6d:27:02:be:9f:6f:51:87:11:c6:
         53:e6:e2:a8:1c:52:70:a4:44:c1:93:11:9a:b9:40:bd:68:73:
         ca:4f:c0:ec:39:dd:28:8a:7b:29:82:0f:7a:05:6a:c3:28:19:
         0d:f8:03:50:0b:4f:3c:ec:66:c7:c1:43:65:e2:e9:bd:6a:6b:
         89:2f
-----BEGIN CERTIFICATE-----
MIICXzCCAcigAwIBAgIEEAAATjANBgkqhkiG9w0BAQsFADAmMSQwIgYDVQQDFBtD
QTFfc2hhMjU2XzEwMjRfNjU1MzdfdjNfY2EwHhcNMTgwMzA3MTUxMzMwWhcNMjgw
MzA0MTUxMzMwWjAnMSUwIwYDVQQDDBxTUkszX3NoYTI1Nl8xMDI0XzY1NTM3X3Yz
X2NhMIGfMA0GCSqGSIb3DQEBAQUAA4GNADCBiQKBgQC/CvxtNNzIOWV0CSDSPQtn
zYVpDl8YHeMhiYKMMlud6nZErLT89/5brQpxUFIYhwTzW3Wdy9J7tVxQei54F3NE
W6QpYT6adY6Km1e2r5NWfEWTvWh9zqGKZ/8HGInDYcgoqMAUnk9dUAphLFF0WbbR
8bTZsxZ+US/ScqPOy2qMmQIDAQABo4GYMIGVMB0GA1UdDgQWBBS4FeaolE3nkDdF
0wdHK6I5R2wvlDBWBgNVHSMETzBNgBR0ZG4mML7i3ydB5eXg0VUckDMNSqEqpCgw
JjEkMCIGA1UEAxQbQ0ExX3NoYTI1Nl8xMDI0XzY1NTM3X3YzX2NhggkAsZ3onx7M
fIwwDwYDVR0TAQH/BAUwAwEB/zALBgNVHQ8EBAMCAgQwDQYJKoZIhvcNAQELBQAD
gYEAiTMR6ZpU5OaP2vN4WvtujfX+XMj0vG+bZI+fYc0vFMSgiMP9kZ1CODGQJEQa
It1HNQM0kvinrWcyMi3aVi1tJwK+n29RhxHGU+biqBxScKREwZMRmrlAvWhzyk/A
7DndKIp7KYIPegVqwygZDfgDUAtPPOxmx8FDZeLpvWpriS8=
-----END CERTIFICATE-----
