Certificate:
    Data:
        Version: 3 (0x2)
        Serial Number: 268435546 (0x1000005a)
    Signature Algorithm: sha256WithRSAEncryption
        Issuer: CN=CA1_sha256_2048_65537_v3_ca
        Validity
            Not Before: Mar  7 15:13:31 2018 GMT
            Not After : Mar  4 15:13:31 2028 GMT
        Subject: CN=SRK3_sha256_2048_65537_v3_ca
        Subject Public Key Info:
            Public Key Algorithm: rsaEncryption
                Public-Key: (2048 bit)
                Modulus:
                    00:c0:8a:4b:51:6f:79:16:15:25:a7:f7:d6:29:c1:
                    05:00:84:6e:07:72:96:6e:93:19:51:63:02:59:6f:
                    f9:5c:49:a1:b4:c0:6e:7b:cf:47:12:aa:ed:4c:8b:
                    54:51:b1:13:1c:07:e2:99:f5:f8:58:bc:df:a1:cf:
                    0f:e5:4e:de:f2:52:e9:1a:4b:e0:eb:05:63:36:46:
                    13:5c:f4:38:1e:0b:ba:71:ed:a3:3e:01:52:5f:ac:
                    c2:b3:fb:ea:74:d5:57:1b:40:4a:ef:63:e7:e0:e1:
                    e8:4d:3b:33:af:91:78:a3:bf:0a:a9:b3:29:4a:e1:
                    ef:1e:05:1f:16:21:23:3c:0a:4d:f8:ea:16:2f:2f:
                    0a:f0:4c:f5:73:be:a5:1f:c1:9e:81:d9:f1:13:76:
                    f7:53:b7:09:f6:b0:6c:7b:c4:e6:ba:f8:f1:c7:bd:
                    7d:5b:ce:a1:50:23:3d:7a:83:14:21:03:42:fe:75:
                    e1:a5:1e:eb:cf:19:ab:f0:e0:6b:71:60:81:c5:15:
                    ac:63:b8:9c:5c:ad:19:51:98:8e:3f:6f:f3:8a:da:
                    82:cb:13:8d:da:d8:2c:05:8d:4c:ba:96:b6:47:79:
                    fb:09:94:01:d6:d2:b7:89:6f:23:17:13:bf:20:9e:
                    97:1f:ee:1a:88:65:c4:44:df:5b:11:4d:a8:1d:89:
                    bc:d1
                Exponent: 65537 (0x10001)
        X509v3 extensions:
            X509v3 Subject Key Identifier: 
                B6:71:8A:C5:23:6F:6E:BE:93:55:7F:39:CE:B5:5C:33:FD:6E:D4:B8
            X509v3 Authority Key Identifier: 
                keyid:BC:E7:DF:9E:60:96:63:1A:5C:A6:2F:6C:C9:16:A6:2B:12:46:3B:F8
                DirName:/CN=CA1_sha256_2048_65537_v3_ca
                serial:C2:C5:67:E8:A7:A7:6C:F8

            X509v3 Basic Constraints: critical
                CA:TRUE
            X509v3 Key Usage: 
                Certificate Sign
    Signature Algorithm: sha256WithRSAEncryption
         03:9e:1c:cf:50:64:42:ef:e7:d4:8c:f7:60:29:27:d8:39:79:
         f8:25:57:04:35:94:51:6f:18:7d:80:99:6c:a6:96:ec:e5:38:
         cb:34:df:a3:4e:e1:9d:87:40:e5:09:6d:74:95:40:82:7e:b5:
         a7:be:9d:b2:a1:b8:7b:e6:30:b6:f0:63:7a:4f:0e:20:ea:14:
         5b:2f:48:04:08:87:7c:71:d0:26:cf:7d:b5:92:67:b7:08:f8:
         3d:6e:65:a8:93:c4:a0:94:c4:f1:2e:d9:79:bc:ce:f7:c5:84:
         7d:6d:27:bc:e2:44:0b:e7:6f:16:93:82:5b:8d:eb:1d:69:d4:
         d1:b3:db:af:c0:ed:1f:5e:e5:7b:1a:e1:4b:46:72:29:a0:51:
         9a:16:d6:3f:67:4f:bb:5f:cc:0d:e7:c1:cd:29:52:70:13:a2:
         07:58:98:4f:8f:b8:08:57:e5:64:33:5a:b7:96:37:57:b8:3a:
         d4:46:d9:52:41:05:2f:02:b2:8a:96:7c:79:5f:4e:5a:35:50:
         b9:d2:3a:e1:8d:f5:a2:a4:32:6a:b4:44:65:ad:e8:ef:92:a0:
         55:6e:84:64:4c:c8:6d:74:fd:0c:fd:23:79:0c:e5:e3:e5:5e:
         5c:4f:08:df:2c:0c:f9:7e:ab:7d:66:43:d5:61:2d:e5:7f:c4:
         29:96:3b:86
-----BEGIN CERTIFICATE-----
MIIDZDCCAkygAwIBAgIEEAAAWjANBgkqhkiG9w0BAQsFADAmMSQwIgYDVQQDFBtD
QTFfc2hhMjU2XzIwNDhfNjU1MzdfdjNfY2EwHhcNMTgwMzA3MTUxMzMxWhcNMjgw
MzA0MTUxMzMxWjAnMSUwIwYDVQQDDBxTUkszX3NoYTI1Nl8yMDQ4XzY1NTM3X3Yz
X2NhMIIBIjANBgkqhkiG9w0BAQEFAAOCAQ8AMIIBCgKCAQEAwIpLUW95FhUlp/fW
KcEFAIRuB3KWbpMZUWMCWW/5XEmhtMBue89HEqrtTItUUbETHAfimfX4WLzfoc8P
5U7e8lLpGkvg6wVjNkYTXPQ4Hgu6ce2jPgFSX6zCs/vqdNVXG0BK72Pn4OHoTTsz
r5F4o78KqbMpSuHvHgUfFiEjPApN+OoWLy8K8Ez1c76lH8GegdnxE3b3U7cJ9rBs
e8Tmuvjxx719W86hUCM9eoMUIQNC/nXhpR7rzxmr8OBrcWCBxRWsY7icXK0ZUZiO
P2/zitqCyxON2tgsBY1Mupa2R3n7CZQB1tK3iW8jFxO/IJ6XH+4aiGXERN9bEU2o
HYm80QIDAQABo4GYMIGVMB0GA1UdDgQWBBS2cYrFI29uvpNVfznOtVwz/W7UuDBW
BgNVHSMETzBNgBS859+eYJZjGlymL2zJFqYrEkY7+KEqpCgwJjEkMCIGA1UEAxQb
Q0ExX3NoYTI1Nl8yMDQ4XzY1NTM3X3YzX2NhggkAwsVn6KenbPgwDwYDVR0TAQH/
BAUwAwEB/zALBgNVHQ8EBAMCAgQwDQYJKoZIhvcNAQELBQADggEBAAOeHM9QZELv
59SM92ApJ9g5efglVwQ1lFFvGH2AmWymluzlOMs036NO4Z2HQOUJbXSVQIJ+tae+
nbKhuHvmMLbwY3pPDiDqFFsvSAQIh3xx0CbPfbWSZ7cI+D1uZaiTxKCUxPEu2Xm8
zvfFhH1tJ7ziRAvnbxaTgluN6x1p1NGz26/A7R9e5Xsa4UtGcimgUZoW1j9nT7tf
zA3nwc0pUnATogdYmE+PuAhX5WQzWreWN1e4OtRG2VJBBS8CsoqWfHlfTlo1ULnS
OuGN9aKkMmq0RGWt6O+SoFVuhGRMyG10/Qz9I3kM5ePlXlxPCN8sDPl+q31mQ9Vh
LeV/xCmWO4Y=
-----END CERTIFICATE-----
