Certificate:
    Data:
        Version: 3 (0x2)
        Serial Number: 268435549 (0x1000005d)
    Signature Algorithm: sha256WithRSAEncryption
        Issuer: CN=CA1_sha256_2048_65537_v3_ca
        Validity
            Not Before: Mar  7 15:13:32 2018 GMT
            Not After : Mar  4 15:13:32 2028 GMT
        Subject: CN=SRK4_sha256_2048_65537_v3_ca
        Subject Public Key Info:
            Public Key Algorithm: rsaEncryption
                Public-Key: (2048 bit)
                Modulus:
                    00:e8:de:9a:c2:ca:26:a9:84:e3:dd:f6:dd:b0:b8:
                    d9:f5:fc:86:8a:0e:d3:14:32:22:aa:0b:61:97:dd:
                    a1:60:8d:44:78:a0:d3:cf:c3:9f:0d:40:a1:ae:b6:
                    a1:3e:49:02:93:45:c9:bc:6a:52:dc:be:e7:bf:8a:
                    13:1f:25:f8:67:a9:c0:ff:09:0a:be:20:76:4d:b4:
                    08:28:d0:f4:10:04:cd:1f:dd:71:13:ca:f5:05:17:
                    8f:7c:31:54:d1:34:db:c7:27:23:83:ca:98:75:48:
                    2b:05:38:e2:5a:bf:cb:cf:44:43:2e:fa:eb:d6:0c:
                    47:c0:20:91:30:bd:d6:74:7e:60:da:c3:05:de:33:
                    ac:c8:af:13:88:e6:e7:61:68:e6:bf:0a:e9:0f:a9:
                    d0:f9:43:95:1a:ed:a7:09:19:32:9a:23:00:e4:d0:
                    84:e2:24:de:77:92:bf:53:60:78:35:a5:e7:c6:89:
                    45:99:e2:0d:7f:ad:6e:df:c1:5a:3e:3c:a4:03:0f:
                    1a:69:f9:27:9a:6e:6e:b2:85:6b:04:1e:27:a3:73:
                    c6:1d:df:4d:04:c5:8f:21:18:e9:7e:42:b8:03:62:
                    1a:00:97:28:c0:4a:13:69:b5:e2:b3:4f:7e:b9:f6:
                    f6:49:c4:7e:22:75:a1:da:dd:5d:f7:04:0b:90:94:
                    eb:d5
                Exponent: 65537 (0x10001)
        X509v3 extensions:
            X509v3 Subject Key Identifier: 
                3B:FE:5A:8E:74:C4:DB:6B:34:F1:C7:A4:CB:41:33:DC:86:D4:5F:B5
            X509v3 Authority Key Identifier: 
                keyid:BC:E7:DF:9E:60:96:63:1A:5C:A6:2F:6C:C9:16:A6:2B:12:46:3B:F8
                DirName:/CN=CA1_sha256_2048_65537_v3_ca
                serial:C2:C5:67:E8:A7:A7:6C:F8

            X509v3 Basic Constraints: critical
                CA:TRUE
            X509v3 Key Usage: 
                Certificate Sign
    Signature Algorithm: sha256WithRSAEncryption
         34:6b:11:1d:67:17:2b:c4:5b:69:fe:33:e5:1f:b7:97:ba:98:
         a4:3c:10:57:e4:d4:fa:ad:87:7f:7a:8f:00:a4:2e:cd:13:0f:
         79:2e:c8:43:0e:a9:f7:67:a5:64:48:f5:e2:36:89:bc:55:e5:
         8d:44:7e:e7:2b:b6:01:cb:03:0c:c5:69:d2:c4:04:dd:75:6e:
         6c:93:25:87:37:a4:5f:42:a1:66:ec:20:42:9e:d1:d2:cb:61:
         32:e4:54:72:07:4d:2f:7d:88:b2:03:8f:2f:9e:db:66:57:55:
         fa:39:78:2e:22:eb:a4:70:53:23:b5:9f:47:65:5d:87:df:84:
         b1:ff:d8:14:33:34:e2:ec:ae:af:07:7b:22:3b:94:dd:a0:c5:
         45:3a:4a:24:bc:e3:06:c5:e7:b9:23:30:3a:a3:e5:26:e5:25:
         4a:e2:92:e7:b4:ef:39:5f:78:73:c2:f2:f1:72:77:69:f1:3c:
         f1:a1:0d:e7:08:16:0d:ac:dc:dd:50:54:f2:6f:bb:4d:11:15:
         28:95:dd:8a:17:92:40:da:7a:da:cd:fd:af:ae:0e:07:ca:e1:
         ea:bd:00:2f:d1:75:fa:40:42:2d:25:e3:82:02:b2:13:cc:94:
         55:88:e4:ca:b2:83:35:3f:2c:e0:85:99:a7:f3:65:07:b5:8d:
         e1:37:42:b3
-----BEGIN CERTIFICATE-----
MIIDZDCCAkygAwIBAgIEEAAAXTANBgkqhkiG9w0BAQsFADAmMSQwIgYDVQQDFBtD
QTFfc2hhMjU2XzIwNDhfNjU1MzdfdjNfY2EwHhcNMTgwMzA3MTUxMzMyWhcNMjgw
MzA0MTUxMzMyWjAnMSUwIwYDVQQDDBxTUks0X3NoYTI1Nl8yMDQ4XzY1NTM3X3Yz
X2NhMIIBIjANBgkqhkiG9w0BAQEFAAOCAQ8AMIIBCgKCAQEA6N6awsomqYTj3fbd
sLjZ9fyGig7TFDIiqgthl92hYI1EeKDTz8OfDUChrrahPkkCk0XJvGpS3L7nv4oT
HyX4Z6nA/wkKviB2TbQIKND0EATNH91xE8r1BRePfDFU0TTbxycjg8qYdUgrBTji
Wr/Lz0RDLvrr1gxHwCCRML3WdH5g2sMF3jOsyK8TiObnYWjmvwrpD6nQ+UOVGu2n
CRkymiMA5NCE4iTed5K/U2B4NaXnxolFmeINf61u38FaPjykAw8aafknmm5usoVr
BB4no3PGHd9NBMWPIRjpfkK4A2IaAJcowEoTabXis09+ufb2ScR+InWh2t1d9wQL
kJTr1QIDAQABo4GYMIGVMB0GA1UdDgQWBBQ7/lqOdMTbazTxx6TLQTPchtRftTBW
BgNVHSMETzBNgBS859+eYJZjGlymL2zJFqYrEkY7+KEqpCgwJjEkMCIGA1UEAxQb
Q0ExX3NoYTI1Nl8yMDQ4XzY1NTM3X3YzX2NhggkAwsVn6KenbPgwDwYDVR0TAQH/
BAUwAwEB/zALBgNVHQ8EBAMCAgQwDQYJKoZIhvcNAQELBQADggEBADRrER1nFyvE
W2n+M+Uft5e6mKQ8EFfk1Pqth396jwCkLs0TD3kuyEMOqfdnpWRI9eI2ibxV5Y1E
fucrtgHLAwzFadLEBN11bmyTJYc3pF9CoWbsIEKe0dLLYTLkVHIHTS99iLIDjy+e
22ZXVfo5eC4i66RwUyO1n0dlXYffhLH/2BQzNOLsrq8HeyI7lN2gxUU6SiS84wbF
57kjMDqj5SblJUrikue07zlfeHPC8vFyd2nxPPGhDecIFg2s3N1QVPJvu00RFSiV
3YoXkkDaetrN/a+uDgfK4eq9AC/RdfpAQi0l44ICshPMlFWI5MqygzU/LOCFmafz
ZQe1jeE3QrM=
-----END CERTIFICATE-----
