Certificate:
    Data:
        Version: 3 (0x2)
        Serial Number: 268435464 (0x10000008)
    Signature Algorithm: sha256WithRSAEncryption
        Issuer: CN=SRK3_sha256_2048_65537_v3_ca
        Validity
            Not Before: Mar 13 09:15:53 2018 GMT
            Not After : Mar 10 09:15:53 2028 GMT
        Subject: CN=IMG3_1_sha256_2048_65537_v3_usr
        Subject Public Key Info:
            Public Key Algorithm: rsaEncryption
                Public-Key: (2048 bit)
                Modulus:
                    00:af:1f:26:80:b4:49:c6:df:c6:0b:84:32:c5:2e:
                    8a:e3:4d:8e:14:f7:ed:e4:4c:97:d0:95:a8:54:52:
                    54:2b:0a:93:ee:0b:1a:67:66:40:14:8f:2c:f3:dd:
                    96:67:ae:26:83:2e:ea:02:90:0c:21:7a:ca:66:89:
                    d4:e7:0c:08:a5:cf:4b:02:ef:20:67:c0:9b:fb:f3:
                    70:f0:04:8b:41:3f:ac:6a:00:02:88:6b:1e:ba:0b:
                    f8:22:6a:94:34:b6:69:b9:de:ed:6c:68:12:53:33:
                    dc:1d:84:7b:77:bd:34:da:bc:dd:b6:99:ca:e1:39:
                    a0:ff:fd:40:8d:32:ce:26:f9:f7:1e:9f:31:32:da:
                    6a:b0:ac:1f:95:7b:c9:84:e6:9f:37:7b:73:ec:e4:
                    3f:72:47:d7:83:dc:c9:fb:01:7e:cf:0d:98:8e:f3:
                    7f:c8:5e:a3:a9:7d:1d:4d:1e:57:d6:ef:68:59:c1:
                    1a:27:e4:40:6c:48:ba:9c:ca:e4:30:49:5f:6b:ca:
                    87:0b:98:ab:d1:18:41:33:e0:9a:c4:7b:e4:fb:78:
                    d7:ea:45:43:20:94:8e:d1:49:f2:35:cd:e5:86:8c:
                    cd:47:1c:bf:03:48:63:5d:57:db:8b:ab:55:db:0d:
                    80:fd:30:1d:85:1d:2f:cc:67:28:fd:aa:ee:bb:17:
                    24:65
                Exponent: 65537 (0x10001)
        X509v3 extensions:
            X509v3 Basic Constraints: 
                CA:FALSE
            Netscape Comment: 
                OpenSSL Generated Certificate
            X509v3 Subject Key Identifier: 
                3C:A6:5E:DE:A4:EC:4F:16:79:E0:3D:D5:40:CA:8E:3B:5E:59:D9:79
            X509v3 Authority Key Identifier: 
                keyid:14:26:93:22:EE:4A:DD:15:69:84:C4:B0:4A:BD:DB:0C:59:DF:CF:CD

    Signature Algorithm: sha256WithRSAEncryption
         2f:cd:2b:af:e9:24:4e:07:ef:0a:be:76:92:b7:41:24:11:ac:
         ba:9f:12:e9:f8:a5:d4:01:92:8a:cb:33:a1:84:32:e9:8f:e2:
         e5:5a:5f:2b:4b:63:cf:6a:d8:81:51:3c:fa:d7:79:59:f2:72:
         c5:6c:7d:30:9a:43:dc:d4:8e:d4:4a:6c:5c:9a:da:6a:3e:48:
         b8:a8:51:ed:e0:75:ae:a0:c0:1b:ed:9f:00:04:36:63:dc:6f:
         92:e6:c5:ad:b8:4e:27:54:5a:76:fa:d5:ad:14:52:0f:da:46:
         15:7f:28:5d:59:5b:99:96:de:22:cf:58:b0:2f:a0:11:c4:97:
         0c:20:8b:e3:88:32:9e:c2:7e:4c:77:39:60:93:81:c4:b2:fd:
         4c:00:0b:bc:14:97:72:91:f9:f9:56:c8:8c:ce:89:02:1c:b9:
         f7:4b:c9:f7:6b:59:b1:c9:ce:d1:28:cf:d7:9b:6c:a2:53:99:
         fe:82:7a:4c:d2:3b:c2:69:38:03:39:81:81:97:ba:70:e8:97:
         14:3c:48:50:57:6c:f5:55:cb:16:09:be:77:90:ad:e3:76:c2:
         90:4b:06:06:66:b5:0d:3e:7b:e5:1c:c4:d3:5d:ea:47:30:a0:
         ca:d5:94:a4:14:4b:33:40:ea:85:d9:a2:93:06:a3:c7:dc:79:
         99:a1:79:96
-----BEGIN CERTIFICATE-----
MIIDSjCCAjKgAwIBAgIEEAAACDANBgkqhkiG9w0BAQsFADAnMSUwIwYDVQQDDBxT
UkszX3NoYTI1Nl8yMDQ4XzY1NTM3X3YzX2NhMB4XDTE4MDMxMzA5MTU1M1oXDTI4
MDMxMDA5MTU1M1owKjEoMCYGA1UEAwwfSU1HM18xX3NoYTI1Nl8yMDQ4XzY1NTM3
X3YzX3VzcjCCASIwDQYJKoZIhvcNAQEBBQADggEPADCCAQoCggEBAK8fJoC0Scbf
xguEMsUuiuNNjhT37eRMl9CVqFRSVCsKk+4LGmdmQBSPLPPdlmeuJoMu6gKQDCF6
ymaJ1OcMCKXPSwLvIGfAm/vzcPAEi0E/rGoAAohrHroL+CJqlDS2abne7WxoElMz
3B2Ee3e9NNq83baZyuE5oP/9QI0yzib59x6fMTLaarCsH5V7yYTmnzd7c+zkP3JH
14PcyfsBfs8NmI7zf8heo6l9HU0eV9bvaFnBGifkQGxIupzK5DBJX2vKhwuYq9EY
QTPgmsR75Pt41+pFQyCUjtFJ8jXN5YaMzUccvwNIY11X24urVdsNgP0wHYUdL8xn
KP2q7rsXJGUCAwEAAaN7MHkwCQYDVR0TBAIwADAsBglghkgBhvhCAQ0EHxYdT3Bl
blNTTCBHZW5lcmF0ZWQgQ2VydGlmaWNhdGUwHQYDVR0OBBYEFDymXt6k7E8WeeA9
1UDKjjteWdl5MB8GA1UdIwQYMBaAFBQmkyLuSt0VaYTEsEq92wxZ38/NMA0GCSqG
SIb3DQEBCwUAA4IBAQAvzSuv6SROB+8KvnaSt0EkEay6nxLp+KXUAZKKyzOhhDLp
j+LlWl8rS2PPatiBUTz613lZ8nLFbH0wmkPc1I7USmxcmtpqPki4qFHt4HWuoMAb
7Z8ABDZj3G+S5sWtuE4nVFp2+tWtFFIP2kYVfyhdWVuZlt4iz1iwL6ARxJcMIIvj
iDKewn5Mdzlgk4HEsv1MAAu8FJdykfn5VsiMzokCHLn3S8n3a1mxyc7RKM/Xm2yi
U5n+gnpM0jvCaTgDOYGBl7pw6JcUPEhQV2z1VcsWCb53kK3jdsKQSwYGZrUNPnvl
HMTTXepHMKDK1ZSkFEszQOqF2aKTBqPH3HmZoXmW
-----END CERTIFICATE-----
