Certificate:
    Data:
        Version: 3 (0x2)
        Serial Number: 268435463 (0x10000007)
    Signature Algorithm: sha256WithRSAEncryption
        Issuer: CN=SRK3_sha256_2048_65537_v3_ca
        Validity
            Not Before: Mar 13 09:15:52 2018 GMT
            Not After : Mar 10 09:15:52 2028 GMT
        Subject: CN=CSF3_1_sha256_2048_65537_v3_usr
        Subject Public Key Info:
            Public Key Algorithm: rsaEncryption
                Public-Key: (2048 bit)
                Modulus:
                    00:c9:23:3b:3e:9b:e3:2f:90:1b:c7:59:fc:4b:ac:
                    dd:10:86:ee:26:0f:8f:1a:dc:84:60:6c:e1:ce:cd:
                    45:00:83:8d:e9:e8:bd:9d:90:6e:02:6f:33:6e:52:
                    ad:20:cb:4b:cc:36:c2:f3:35:69:65:0b:6e:d2:42:
                    bf:0c:03:e0:2c:09:d1:5f:04:a9:03:56:da:60:7a:
                    23:63:83:3d:58:55:e3:f6:20:6e:b1:bf:af:45:0f:
                    8b:60:a3:d5:1c:8c:58:c0:3d:49:f2:77:cf:b1:3a:
                    52:a6:ec:df:ab:1e:b6:54:ad:0e:e4:03:1c:1d:79:
                    06:ad:b3:f6:77:e6:27:17:3b:91:60:4c:84:e3:ea:
                    9b:2f:9e:59:fd:25:d4:c4:ca:11:63:98:6b:01:c1:
                    db:6d:a2:65:5a:2e:c5:1b:cb:bc:c5:41:d0:60:b7:
                    ec:8f:3e:3a:ae:ef:82:d9:8d:e6:ff:50:0b:86:5e:
                    b4:0d:9d:89:7b:aa:2f:94:d8:1f:a5:bf:28:02:41:
                    2d:2e:9b:7b:23:3b:f6:32:09:24:a8:97:2c:1c:42:
                    19:79:86:0c:8b:e6:6b:10:cf:4d:16:36:61:8c:a5:
                    4b:3d:8f:8b:d9:d3:cb:b2:fe:ab:6a:59:0e:5a:e1:
                    a6:c0:fd:39:68:e0:23:ba:f2:89:98:1c:05:c6:c4:
                    95:6b
                Exponent: 65537 (0x10001)
        X509v3 extensions:
            X509v3 Basic Constraints: 
                CA:FALSE
            Netscape Comment: 
                OpenSSL Generated Certificate
            X509v3 Subject Key Identifier: 
                84:9E:6A:AD:89:D7:FC:A7:A8:7A:38:0C:B4:F4:F2:85:79:BD:CF:CB
            X509v3 Authority Key Identifier: 
                keyid:14:26:93:22:EE:4A:DD:15:69:84:C4:B0:4A:BD:DB:0C:59:DF:CF:CD

    Signature Algorithm: sha256WithRSAEncryption
         92:80:04:86:55:89:4c:98:87:d5:1b:1f:b3:eb:8e:27:3d:32:
         55:cf:e1:e7:de:87:14:86:73:43:70:bf:45:cc:44:91:f3:8e:
         c6:b5:39:1b:cc:fd:1c:fd:53:fe:c1:a4:69:ec:8a:d0:1c:ec:
         82:37:87:b8:2d:c1:db:b7:fb:ef:30:c0:cc:39:2c:09:03:49:
         42:d9:b6:38:39:84:6f:45:40:e7:a5:03:c2:9b:eb:dd:3b:3f:
         29:01:9a:b7:bf:95:b0:d5:c9:f5:aa:55:f4:4d:47:fb:0c:32:
         23:77:44:9a:b8:5a:d9:34:5b:c0:68:bf:63:35:ee:b7:3b:c1:
         4d:d7:e3:f2:92:ce:3f:ec:49:c5:3a:d3:bf:80:82:a9:3f:6c:
         3c:82:ec:96:48:08:3f:6e:93:bf:13:b0:d9:38:0d:e6:61:29:
         99:3d:f7:9a:a2:6f:c8:b6:99:2c:c8:b7:fd:5e:4a:d9:88:2e:
         f5:50:ed:7a:62:71:58:9a:30:c2:81:42:c8:43:3c:ff:b9:90:
         21:c0:97:5a:cb:d3:09:d3:56:1f:f3:d3:45:bb:b5:df:c4:66:
         da:b9:d7:b4:bb:88:15:00:5d:8e:7d:df:6f:ff:e0:54:b5:8e:
         34:47:c9:0c:a4:f8:e4:16:a5:fc:a7:8f:c0:ae:be:d9:09:43:
         41:9b:42:10
-----BEGIN CERTIFICATE-----
MIIDSjCCAjKgAwIBAgIEEAAABzANBgkqhkiG9w0BAQsFADAnMSUwIwYDVQQDDBxT
UkszX3NoYTI1Nl8yMDQ4XzY1NTM3X3YzX2NhMB4XDTE4MDMxMzA5MTU1MloXDTI4
MDMxMDA5MTU1MlowKjEoMCYGA1UEAwwfQ1NGM18xX3NoYTI1Nl8yMDQ4XzY1NTM3
X3YzX3VzcjCCASIwDQYJKoZIhvcNAQEBBQADggEPADCCAQoCggEBAMkjOz6b4y+Q
G8dZ/Eus3RCG7iYPjxrchGBs4c7NRQCDjenovZ2QbgJvM25SrSDLS8w2wvM1aWUL
btJCvwwD4CwJ0V8EqQNW2mB6I2ODPVhV4/YgbrG/r0UPi2Cj1RyMWMA9SfJ3z7E6
Uqbs36setlStDuQDHB15Bq2z9nfmJxc7kWBMhOPqmy+eWf0l1MTKEWOYawHB222i
ZVouxRvLvMVB0GC37I8+Oq7vgtmN5v9QC4ZetA2diXuqL5TYH6W/KAJBLS6beyM7
9jIJJKiXLBxCGXmGDIvmaxDPTRY2YYylSz2Pi9nTy7L+q2pZDlrhpsD9OWjgI7ry
iZgcBcbElWsCAwEAAaN7MHkwCQYDVR0TBAIwADAsBglghkgBhvhCAQ0EHxYdT3Bl
blNTTCBHZW5lcmF0ZWQgQ2VydGlmaWNhdGUwHQYDVR0OBBYEFISeaq2J1/ynqHo4
DLT08oV5vc/LMB8GA1UdIwQYMBaAFBQmkyLuSt0VaYTEsEq92wxZ38/NMA0GCSqG
SIb3DQEBCwUAA4IBAQCSgASGVYlMmIfVGx+z644nPTJVz+Hn3ocUhnNDcL9FzESR
847GtTkbzP0c/VP+waRp7IrQHOyCN4e4LcHbt/vvMMDMOSwJA0lC2bY4OYRvRUDn
pQPCm+vdOz8pAZq3v5Ww1cn1qlX0TUf7DDIjd0SauFrZNFvAaL9jNe63O8FN1+Py
ks4/7EnFOtO/gIKpP2w8guyWSAg/bpO/E7DZOA3mYSmZPfeaom/ItpksyLf9XkrZ
iC71UO16YnFYmjDCgULIQzz/uZAhwJday9MJ01Yf89NFu7XfxGbaude0u4gVAF2O
fd9v/+BUtY40R8kMpPjkFqX8p4/Arr7ZCUNBm0IQ
-----END CERTIFICATE-----
