Certificate:
    Data:
        Version: 3 (0x2)
        Serial Number: 268435456 (0x10000000)
    Signature Algorithm: sha256WithRSAEncryption
        Issuer: CN=CA1_sha256_2048_65537_v3_ca
        Validity
            Not Before: Mar 13 09:15:51 2018 GMT
            Not After : Mar 10 09:15:51 2028 GMT
        Subject: CN=SRK1_sha256_2048_65537_v3_ca
        Subject Public Key Info:
            Public Key Algorithm: rsaEncryption
                Public-Key: (2048 bit)
                Modulus:
                    00:c7:7e:d7:9b:f2:5f:ae:50:99:e7:64:9a:7d:1a:
                    26:bc:7e:6f:43:3a:75:96:41:1a:a4:4e:74:a0:6b:
                    2d:74:0e:35:21:a4:bc:62:46:12:e8:e8:f1:b8:58:
                    17:b8:9e:6c:46:a9:84:bc:4f:57:22:b7:02:4b:75:
                    18:3e:a1:48:2b:e3:0c:a8:d1:85:bd:11:33:95:c2:
                    a8:36:af:a4:3c:67:f7:e9:ff:32:d4:cf:24:49:cc:
                    a6:48:86:ca:d4:a6:93:5d:4c:d8:60:aa:c2:f8:1d:
                    13:21:cc:58:0d:91:3d:6d:5f:6e:48:97:e3:6a:35:
                    0f:f1:77:db:b1:60:f5:45:02:be:c0:11:d6:23:19:
                    5a:30:9e:16:21:97:14:29:40:ae:3e:ec:db:a9:41:
                    da:0a:3d:a4:ae:2a:f2:ce:5f:e5:f2:12:51:71:f0:
                    1c:ff:80:48:fd:02:cb:1c:59:f6:f8:94:92:be:e7:
                    ab:27:b9:96:d9:0c:d0:be:e8:1f:d2:fb:6d:11:37:
                    0e:eb:69:77:a2:e3:76:aa:00:ad:b3:75:c5:20:ef:
                    4e:09:bd:57:b6:f3:6d:b6:8b:77:d6:81:c8:1a:53:
                    26:41:dd:51:2c:51:d7:1f:05:7c:cf:33:ab:58:59:
                    ea:e0:92:d7:bf:03:2a:ff:8c:f4:65:28:e0:cf:33:
                    c4:2d
                Exponent: 65537 (0x10001)
        X509v3 extensions:
            X509v3 Subject Key Identifier: 
                88:7E:37:4E:BC:26:73:C4:D1:C2:C4:D0:5F:0B:DE:A9:31:DB:E6:34
            X509v3 Authority Key Identifier: 
                keyid:4C:9D:A5:D2:33:96:4B:34:68:FC:79:7C:83:CE:8C:E2:5A:B3:CF:60
                DirName:/CN=CA1_sha256_2048_65537_v3_ca
                serial:96:FD:D9:54:EB:95:4E:EF

            X509v3 Basic Constraints: critical
                CA:TRUE
            X509v3 Key Usage: 
                Certificate Sign
    Signature Algorithm: sha256WithRSAEncryption
         49:66:dc:f5:08:b4:a5:12:9c:e9:9b:a6:a6:0e:86:c6:c6:e6:
         6d:47:b7:69:b1:1d:5a:82:86:89:ea:4b:fa:04:fc:5f:ac:39:
         95:60:8a:a7:ec:ea:04:23:a6:1e:f4:47:bf:c4:48:8a:c5:b8:
         94:69:da:81:14:b5:b5:86:9b:83:c5:fd:07:6e:50:4a:f0:af:
         93:19:50:bc:7b:5e:b2:66:c7:53:86:47:f3:6a:bd:59:3c:65:
         f9:ef:36:22:81:6c:4b:ed:8a:aa:7b:e9:ea:1e:fa:76:6a:17:
         08:bf:47:b3:61:18:62:b3:16:7f:7b:94:b2:88:b1:63:04:35:
         ca:6f:34:c9:46:d5:53:8c:b5:0f:9c:87:e6:e9:1d:7c:76:f4:
         62:8b:59:f4:68:1c:16:2e:32:5a:8a:45:99:a6:84:5f:88:dd:
         2f:a3:e9:61:9e:dd:20:a4:c2:c4:29:6d:d2:0f:d6:18:83:ea:
         d8:b6:3b:13:fe:4b:51:4a:87:a9:8a:2f:8e:6f:cd:bc:f9:3f:
         69:85:1d:6b:ab:fd:05:c9:e4:23:fb:75:16:23:db:72:8b:2d:
         95:ee:fd:cf:9a:8c:f6:80:96:46:01:0b:1b:c6:4c:34:b3:04:
         d5:d3:6b:e5:39:6f:31:73:7b:b6:48:15:bb:f1:42:de:34:45:
         ed:ed:b6:fe
-----BEGIN CERTIFICATE-----
MIIDZDCCAkygAwIBAgIEEAAAADANBgkqhkiG9w0BAQsFADAmMSQwIgYDVQQDFBtD
QTFfc2hhMjU2XzIwNDhfNjU1MzdfdjNfY2EwHhcNMTgwMzEzMDkxNTUxWhcNMjgw
MzEwMDkxNTUxWjAnMSUwIwYDVQQDDBxTUksxX3NoYTI1Nl8yMDQ4XzY1NTM3X3Yz
X2NhMIIBIjANBgkqhkiG9w0BAQEFAAOCAQ8AMIIBCgKCAQEAx37Xm/JfrlCZ52Sa
fRomvH5vQzp1lkEapE50oGstdA41IaS8YkYS6OjxuFgXuJ5sRqmEvE9XIrcCS3UY
PqFIK+MMqNGFvREzlcKoNq+kPGf36f8y1M8kScymSIbK1KaTXUzYYKrC+B0TIcxY
DZE9bV9uSJfjajUP8XfbsWD1RQK+wBHWIxlaMJ4WIZcUKUCuPuzbqUHaCj2kriry
zl/l8hJRcfAc/4BI/QLLHFn2+JSSvuerJ7mW2QzQvugf0vttETcO62l3ouN2qgCt
s3XFIO9OCb1XtvNttot31oHIGlMmQd1RLFHXHwV8zzOrWFnq4JLXvwMq/4z0ZSjg
zzPELQIDAQABo4GYMIGVMB0GA1UdDgQWBBSIfjdOvCZzxNHCxNBfC96pMdvmNDBW
BgNVHSMETzBNgBRMnaXSM5ZLNGj8eXyDzoziWrPPYKEqpCgwJjEkMCIGA1UEAxQb
Q0ExX3NoYTI1Nl8yMDQ4XzY1NTM3X3YzX2NhggkAlv3ZVOuVTu8wDwYDVR0TAQH/
BAUwAwEB/zALBgNVHQ8EBAMCAgQwDQYJKoZIhvcNAQELBQADggEBAElm3PUItKUS
nOmbpqYOhsbG5m1Ht2mxHVqChonqS/oE/F+sOZVgiqfs6gQjph70R7/ESIrFuJRp
2oEUtbWGm4PF/QduUErwr5MZULx7XrJmx1OGR/NqvVk8ZfnvNiKBbEvtiqp76eoe
+nZqFwi/R7NhGGKzFn97lLKIsWMENcpvNMlG1VOMtQ+ch+bpHXx29GKLWfRoHBYu
MlqKRZmmhF+I3S+j6WGe3SCkwsQpbdIP1hiD6ti2OxP+S1FKh6mKL45vzbz5P2mF
HWur/QXJ5CP7dRYj23KLLZXu/c+ajPaAlkYBCxvGTDSzBNXTa+U5bzFze7ZIFbvx
Qt40Re3ttv4=
-----END CERTIFICATE-----
