Certificate:
    Data:
        Version: 3 (0x2)
        Serial Number: 268435465 (0x10000009)
    Signature Algorithm: sha256WithRSAEncryption
        Issuer: CN=CA1_sha256_2048_65537_v3_ca
        Validity
            Not Before: Mar 13 09:15:53 2018 GMT
            Not After : Mar 10 09:15:53 2028 GMT
        Subject: CN=SRK4_sha256_2048_65537_v3_ca
        Subject Public Key Info:
            Public Key Algorithm: rsaEncryption
                Public-Key: (2048 bit)
                Modulus:
                    00:b6:fa:77:95:61:2b:83:dd:fa:11:a1:cd:8a:c6:
                    fc:c2:03:05:c1:10:fc:ee:66:63:70:31:3b:ce:5d:
                    02:7c:f5:a2:c6:9b:3b:3b:26:53:d4:28:c5:21:19:
                    dd:37:f0:74:f3:68:57:38:96:35:34:bd:3b:d0:cd:
                    de:e4:2f:02:e5:46:3e:78:75:8f:0a:d6:94:e0:1d:
                    5f:a9:6b:d9:ae:02:ff:a0:7a:06:e8:a0:89:66:76:
                    b3:44:28:1c:90:33:b3:d6:6b:80:cc:af:c2:c2:9f:
                    25:09:73:18:4b:86:b8:ab:45:45:6a:39:86:81:83:
                    fb:2c:90:44:25:6b:37:c1:ba:e5:a9:e0:99:f4:5e:
                    22:8c:1e:4f:e0:5f:a5:f7:b6:d3:44:bc:53:ff:f4:
                    f3:db:e2:39:cb:13:e4:1f:79:a7:e5:15:b5:ec:ff:
                    d5:c9:fe:51:e7:d4:fa:44:04:c8:ca:5a:ff:6f:24:
                    11:f0:e6:e3:9b:17:10:ef:fe:8b:fe:0e:47:16:23:
                    b8:bc:d2:a0:29:6c:6b:7a:13:11:79:d0:50:34:13:
                    45:e8:39:0b:f9:14:20:12:12:d2:39:c8:e2:cb:24:
                    03:43:43:6a:d5:46:b7:63:ea:f4:0a:65:8b:e8:1c:
                    b8:8b:1d:40:23:70:64:e4:24:ec:18:01:bb:90:d8:
                    06:65
                Exponent: 65537 (0x10001)
        X509v3 extensions:
            X509v3 Subject Key Identifier: 
                DE:F7:46:2E:20:85:0D:02:48:9C:F3:03:C8:81:08:5E:35:F9:1D:AB
            X509v3 Authority Key Identifier: 
                keyid:4C:9D:A5:D2:33:96:4B:34:68:FC:79:7C:83:CE:8C:E2:5A:B3:CF:60
                DirName:/CN=CA1_sha256_2048_65537_v3_ca
                serial:96:FD:D9:54:EB:95:4E:EF

            X509v3 Basic Constraints: critical
                CA:TRUE
            X509v3 Key Usage: 
                Certificate Sign
    Signature Algorithm: sha256WithRSAEncryption
         34:86:82:dd:26:82:32:d2:7a:ba:f2:be:bb:87:b0:ae:0e:3b:
         4b:70:fd:d3:5b:4d:b5:92:d4:81:70:eb:34:d6:f7:7f:75:b3:
         25:9c:1d:ce:06:db:73:15:bc:1f:3d:98:bb:bd:29:68:10:5f:
         5e:af:67:88:f0:1c:4d:49:75:a3:0f:9a:a3:42:40:94:19:28:
         ce:f2:2c:e0:55:99:68:69:04:f7:4d:d4:23:68:22:67:76:75:
         1c:18:4d:2f:3d:2c:a5:4c:eb:64:1b:00:24:a0:c2:e9:6f:20:
         91:a9:64:b6:23:72:7b:90:74:88:cd:f8:5b:d6:6b:b0:d6:0d:
         fc:13:ba:bf:f4:d8:4a:f3:f3:f5:71:dd:29:db:74:00:61:90:
         26:be:fe:1b:c0:d3:c2:20:6a:62:04:84:ae:cf:8b:08:24:8c:
         3f:86:4b:ae:b5:d6:fa:fa:4e:db:99:eb:ff:f2:34:98:23:71:
         8b:72:4d:6a:f8:64:43:47:63:6f:46:1c:fd:18:b8:aa:f1:72:
         af:7d:c8:05:17:b8:eb:39:ae:9e:bf:d5:f3:6d:ef:dd:71:b4:
         20:4c:10:e7:60:1c:98:5e:0f:22:37:27:ef:21:c3:98:62:4d:
         1e:df:a4:70:78:f9:62:03:bc:17:43:a7:b0:64:0a:36:07:10:
         b2:10:3e:28
-----BEGIN CERTIFICATE-----
MIIDZDCCAkygAwIBAgIEEAAACTANBgkqhkiG9w0BAQsFADAmMSQwIgYDVQQDFBtD
QTFfc2hhMjU2XzIwNDhfNjU1MzdfdjNfY2EwHhcNMTgwMzEzMDkxNTUzWhcNMjgw
MzEwMDkxNTUzWjAnMSUwIwYDVQQDDBxTUks0X3NoYTI1Nl8yMDQ4XzY1NTM3X3Yz
X2NhMIIBIjANBgkqhkiG9w0BAQEFAAOCAQ8AMIIBCgKCAQEAtvp3lWErg936EaHN
isb8wgMFwRD87mZjcDE7zl0CfPWixps7OyZT1CjFIRndN/B082hXOJY1NL070M3e
5C8C5UY+eHWPCtaU4B1fqWvZrgL/oHoG6KCJZnazRCgckDOz1muAzK/Cwp8lCXMY
S4a4q0VFajmGgYP7LJBEJWs3wbrlqeCZ9F4ijB5P4F+l97bTRLxT//Tz2+I5yxPk
H3mn5RW17P/Vyf5R59T6RATIylr/byQR8ObjmxcQ7/6L/g5HFiO4vNKgKWxrehMR
edBQNBNF6DkL+RQgEhLSOcjiyyQDQ0Nq1Ua3Y+r0CmWL6By4ix1AI3Bk5CTsGAG7
kNgGZQIDAQABo4GYMIGVMB0GA1UdDgQWBBTe90YuIIUNAkic8wPIgQheNfkdqzBW
BgNVHSMETzBNgBRMnaXSM5ZLNGj8eXyDzoziWrPPYKEqpCgwJjEkMCIGA1UEAxQb
Q0ExX3NoYTI1Nl8yMDQ4XzY1NTM3X3YzX2NhggkAlv3ZVOuVTu8wDwYDVR0TAQH/
BAUwAwEB/zALBgNVHQ8EBAMCAgQwDQYJKoZIhvcNAQELBQADggEBADSGgt0mgjLS
erryvruHsK4OO0tw/dNbTbWS1IFw6zTW9391syWcHc4G23MVvB89mLu9KWgQX16v
Z4jwHE1JdaMPmqNCQJQZKM7yLOBVmWhpBPdN1CNoImd2dRwYTS89LKVM62QbACSg
wulvIJGpZLYjcnuQdIjN+FvWa7DWDfwTur/02Erz8/Vx3SnbdABhkCa+/hvA08Ig
amIEhK7PiwgkjD+GS6611vr6TtuZ6//yNJgjcYtyTWr4ZENHY29GHP0YuKrxcq99
yAUXuOs5rp6/1fNt791xtCBMEOdgHJheDyI3J+8hw5hiTR7fpHB4+WIDvBdDp7Bk
CjYHELIQPig=
-----END CERTIFICATE-----
