Certificate:
    Data:
        Version: 3 (0x2)
        Serial Number: 268435462 (0x10000006)
    Signature Algorithm: sha256WithRSAEncryption
        Issuer: CN=CA1_sha256_2048_65537_v3_ca
        Validity
            Not Before: Mar 13 09:15:52 2018 GMT
            Not After : Mar 10 09:15:52 2028 GMT
        Subject: CN=SRK3_sha256_2048_65537_v3_ca
        Subject Public Key Info:
            Public Key Algorithm: rsaEncryption
                Public-Key: (2048 bit)
                Modulus:
                    00:d9:b8:96:22:9e:ea:c8:49:6b:52:35:c1:4a:e3:
                    20:4f:34:8a:7f:cd:19:0f:6f:be:16:42:e2:af:bf:
                    43:84:47:f3:46:a0:c6:47:76:f0:c2:5b:79:40:7b:
                    ad:9e:db:0c:7a:41:56:8d:8a:c8:ce:04:93:30:fb:
                    33:4c:91:86:4f:2c:32:c2:44:c7:34:7f:ee:1e:30:
                    a0:94:86:1c:64:56:14:53:4d:58:b7:50:89:d3:88:
                    b2:6f:e6:6b:2e:e0:70:82:88:05:8e:69:11:8b:bd:
                    de:bb:06:84:3f:91:df:bd:72:e0:05:3f:88:b9:16:
                    f5:b6:e8:9e:0a:41:79:26:5a:ea:df:ee:b4:98:8f:
                    1e:ab:16:32:e0:cc:37:23:13:5a:b8:54:7b:97:fa:
                    14:f7:6c:13:87:bf:0b:f0:ea:46:df:c5:20:ef:00:
                    64:aa:48:fa:a0:d4:1b:b1:56:9c:9a:83:28:7d:61:
                    57:0f:52:48:ec:50:42:e9:47:6b:07:fd:45:09:e6:
                    ac:6c:1a:65:6d:f3:24:07:74:92:a1:ea:5a:c9:4a:
                    21:c5:af:4f:b6:6c:85:f8:fb:5d:7a:ad:c0:4c:e5:
                    3c:42:57:c0:ce:63:ed:08:a6:93:51:7f:91:bf:8b:
                    3f:5f:92:f8:3c:4b:18:11:a0:a9:3f:01:44:66:bc:
                    5e:0b
                Exponent: 65537 (0x10001)
        X509v3 extensions:
            X509v3 Subject Key Identifier: 
                14:26:93:22:EE:4A:DD:15:69:84:C4:B0:4A:BD:DB:0C:59:DF:CF:CD
            X509v3 Authority Key Identifier: 
                keyid:4C:9D:A5:D2:33:96:4B:34:68:FC:79:7C:83:CE:8C:E2:5A:B3:CF:60
                DirName:/CN=CA1_sha256_2048_65537_v3_ca
                serial:96:FD:D9:54:EB:95:4E:EF

            X509v3 Basic Constraints: critical
                CA:TRUE
            X509v3 Key Usage: 
                Certificate Sign
    Signature Algorithm: sha256WithRSAEncryption
         5e:ba:1b:c1:e9:cd:64:da:94:ca:cb:9c:14:4b:f0:93:79:e4:
         cc:0f:d4:24:b2:49:81:40:66:c5:74:cf:75:0d:d5:5f:58:ea:
         3e:08:c6:49:ea:99:aa:9b:bf:6b:87:39:df:1c:11:ee:44:f8:
         4a:af:8e:e9:93:12:98:9c:85:1f:b1:3f:de:2c:9c:eb:60:2e:
         10:d3:df:08:0d:f4:32:70:99:14:74:82:11:71:e5:2d:4e:3d:
         2a:8a:20:0b:2a:f9:e1:91:26:0a:48:40:c8:ba:ef:42:5f:3d:
         31:cd:3c:cd:a9:7e:0c:b7:37:7c:eb:09:2e:23:2d:0e:50:42:
         4d:0a:e5:3a:02:b7:fa:6a:79:51:17:f3:41:0b:34:40:57:71:
         38:34:ee:b4:d6:dd:1a:c1:ef:de:63:05:7c:6f:3a:d0:3d:dc:
         5d:5c:49:84:3a:96:39:b7:bc:d7:4c:f5:5c:21:7e:85:77:3b:
         03:df:f5:a7:6c:03:58:57:03:49:83:95:2a:4e:7f:d8:b8:9f:
         f0:6e:34:84:60:9b:ac:57:4e:32:60:45:90:0d:d8:95:85:ec:
         0d:ea:ce:44:1f:69:61:34:be:2d:3e:0d:a9:cd:32:04:7b:54:
         40:7a:eb:15:f3:5b:aa:6e:81:35:91:b2:d2:4e:04:83:48:f6:
         22:45:21:7a
-----BEGIN CERTIFICATE-----
MIIDZDCCAkygAwIBAgIEEAAABjANBgkqhkiG9w0BAQsFADAmMSQwIgYDVQQDFBtD
QTFfc2hhMjU2XzIwNDhfNjU1MzdfdjNfY2EwHhcNMTgwMzEzMDkxNTUyWhcNMjgw
MzEwMDkxNTUyWjAnMSUwIwYDVQQDDBxTUkszX3NoYTI1Nl8yMDQ4XzY1NTM3X3Yz
X2NhMIIBIjANBgkqhkiG9w0BAQEFAAOCAQ8AMIIBCgKCAQEA2biWIp7qyElrUjXB
SuMgTzSKf80ZD2++FkLir79DhEfzRqDGR3bwwlt5QHutntsMekFWjYrIzgSTMPsz
TJGGTywywkTHNH/uHjCglIYcZFYUU01Yt1CJ04iyb+ZrLuBwgogFjmkRi73euwaE
P5HfvXLgBT+IuRb1tuieCkF5Jlrq3+60mI8eqxYy4Mw3IxNauFR7l/oU92wTh78L
8OpG38Ug7wBkqkj6oNQbsVacmoMofWFXD1JI7FBC6UdrB/1FCeasbBplbfMkB3SS
oepayUohxa9PtmyF+Ptdeq3ATOU8QlfAzmPtCKaTUX+Rv4s/X5L4PEsYEaCpPwFE
ZrxeCwIDAQABo4GYMIGVMB0GA1UdDgQWBBQUJpMi7krdFWmExLBKvdsMWd/PzTBW
BgNVHSMETzBNgBRMnaXSM5ZLNGj8eXyDzoziWrPPYKEqpCgwJjEkMCIGA1UEAxQb
Q0ExX3NoYTI1Nl8yMDQ4XzY1NTM3X3YzX2NhggkAlv3ZVOuVTu8wDwYDVR0TAQH/
BAUwAwEB/zALBgNVHQ8EBAMCAgQwDQYJKoZIhvcNAQELBQADggEBAF66G8HpzWTa
lMrLnBRL8JN55MwP1CSySYFAZsV0z3UN1V9Y6j4Ixknqmaqbv2uHOd8cEe5E+Eqv
jumTEpichR+xP94snOtgLhDT3wgN9DJwmRR0ghFx5S1OPSqKIAsq+eGRJgpIQMi6
70JfPTHNPM2pfgy3N3zrCS4jLQ5QQk0K5ToCt/pqeVEX80ELNEBXcTg07rTW3RrB
795jBXxvOtA93F1cSYQ6ljm3vNdM9VwhfoV3OwPf9adsA1hXA0mDlSpOf9i4n/Bu
NIRgm6xXTjJgRZAN2JWF7A3qzkQfaWE0vi0+DanNMgR7VEB66xXzW6pugTWRstJO
BINI9iJFIXo=
-----END CERTIFICATE-----
