Certificate:
    Data:
        Version: 3 (0x2)
        Serial Number: 268435601 (0x10000091)
    Signature Algorithm: sha256WithRSAEncryption
        Issuer: CN=SRK1_sha256_1024_65537_v3_ca
        Validity
            Not Before: Mar  7 15:17:38 2018 GMT
            Not After : Mar  4 15:17:38 2028 GMT
        Subject: CN=CSF1_1_sha256_1024_65537_v3_usr
        Subject Public Key Info:
            Public Key Algorithm: rsaEncryption
                Public-Key: (1024 bit)
                Modulus:
                    00:c1:93:a2:68:28:b4:d9:92:9e:1a:58:f3:c6:4e:
                    46:dd:ad:81:b6:fe:8f:3f:69:85:8e:ce:cf:4e:ae:
                    15:c0:c5:bb:0b:a3:14:d4:16:21:68:be:32:b5:7f:
                    82:3b:4a:7a:86:08:93:89:80:0f:81:36:72:04:35:
                    42:d5:cd:09:5b:b4:27:39:98:d3:c4:6c:31:11:5d:
                    1b:9a:c0:9a:00:ea:76:df:40:27:9c:19:0b:d4:63:
                    eb:2e:55:ed:88:ee:86:f8:10:a0:5b:dc:46:5e:3a:
                    4d:fb:65:41:77:43:6f:5c:d6:50:61:77:9d:df:bb:
                    6c:58:fe:8d:a7:20:61:5f:27
                Exponent: 65537 (0x10001)
        X509v3 extensions:
            X509v3 Basic Constraints: 
                CA:FALSE
            Netscape Comment: 
                OpenSSL Generated Certificate
            X509v3 Subject Key Identifier: 
                A0:AF:8A:59:55:E8:F2:FB:39:51:75:BB:BC:C8:6B:86:0F:24:10:D7
            X509v3 Authority Key Identifier: 
                keyid:9A:96:DA:7B:B9:11:27:0D:D4:75:45:51:83:26:C5:90:DD:08:40:43

    Signature Algorithm: sha256WithRSAEncryption
         9d:77:cb:89:14:b7:fb:96:cc:f6:d8:f0:96:d3:ef:fe:db:05:
         77:86:cb:b7:a5:58:2e:a2:a1:35:ad:89:87:56:0c:d8:33:05:
         37:27:25:46:37:d4:d6:09:33:46:ea:33:54:bb:18:48:5e:53:
         b6:6c:f5:85:43:45:8a:4d:36:e6:0a:e4:b6:77:0a:29:50:67:
         7a:7b:f6:16:f8:3d:73:b3:b5:86:6a:f3:c1:1d:75:55:46:91:
         c9:3b:ee:cf:1f:ae:26:4b:7c:ab:c0:bb:f7:77:22:84:68:50:
         51:1c:9e:58:5e:83:9f:aa:42:85:e4:ae:8e:16:17:20:e8:6b:
         4d:b4
-----BEGIN CERTIFICATE-----
MIICRTCCAa6gAwIBAgIEEAAAkTANBgkqhkiG9w0BAQsFADAnMSUwIwYDVQQDDBxT
UksxX3NoYTI1Nl8xMDI0XzY1NTM3X3YzX2NhMB4XDTE4MDMwNzE1MTczOFoXDTI4
MDMwNDE1MTczOFowKjEoMCYGA1UEAwwfQ1NGMV8xX3NoYTI1Nl8xMDI0XzY1NTM3
X3YzX3VzcjCBnzANBgkqhkiG9w0BAQEFAAOBjQAwgYkCgYEAwZOiaCi02ZKeGljz
xk5G3a2Btv6PP2mFjs7PTq4VwMW7C6MU1BYhaL4ytX+CO0p6hgiTiYAPgTZyBDVC
1c0JW7QnOZjTxGwxEV0bmsCaAOp230AnnBkL1GPrLlXtiO6G+BCgW9xGXjpN+2VB
d0NvXNZQYXed37tsWP6NpyBhXycCAwEAAaN7MHkwCQYDVR0TBAIwADAsBglghkgB
hvhCAQ0EHxYdT3BlblNTTCBHZW5lcmF0ZWQgQ2VydGlmaWNhdGUwHQYDVR0OBBYE
FKCvillV6PL7OVF1u7zIa4YPJBDXMB8GA1UdIwQYMBaAFJqW2nu5EScN1HVFUYMm
xZDdCEBDMA0GCSqGSIb3DQEBCwUAA4GBAJ13y4kUt/uWzPbY8JbT7/7bBXeGy7el
WC6ioTWtiYdWDNgzBTcnJUY31NYJM0bqM1S7GEheU7Zs9YVDRYpNNuYK5LZ3CilQ
Z3p79hb4PXOztYZq88EddVVGkck77s8friZLfKvAu/d3IoRoUFEcnlheg5+qQoXk
ro4WFyDoa020
-----END CERTIFICATE-----
