Certificate:
    Data:
        Version: 3 (0x2)
        Serial Number: 268435616 (0x100000a0)
    Signature Algorithm: sha256WithRSAEncryption
        Issuer: CN=SRK2_sha256_2048_65537_v3_ca
        Validity
            Not Before: Mar  7 15:17:40 2018 GMT
            Not After : Mar  4 15:17:40 2028 GMT
        Subject: CN=CSF2_1_sha256_2048_65537_v3_usr
        Subject Public Key Info:
            Public Key Algorithm: rsaEncryption
                Public-Key: (2048 bit)
                Modulus:
                    00:cd:d8:f3:e3:89:ad:64:db:2e:68:58:09:b8:ea:
                    ce:d2:3c:e1:30:ec:e2:98:ba:5a:15:17:31:45:93:
                    24:0a:e0:90:c4:27:36:49:5e:62:ca:d8:35:ab:bc:
                    3d:35:30:c9:c3:8d:19:92:35:f7:28:92:67:5c:9f:
                    d0:dd:db:fd:20:49:0a:2e:43:1e:16:7d:98:7e:f9:
                    0e:7f:6e:15:bc:9b:8c:8d:13:0d:8b:92:e3:13:f1:
                    a1:10:88:05:83:02:55:cd:80:ee:25:03:d8:b5:05:
                    2b:5d:44:05:5f:88:4a:10:7f:11:33:7b:34:d1:fc:
                    d2:66:09:0d:da:b9:26:5d:31:da:37:21:bc:86:a4:
                    86:ed:32:d2:43:ac:22:69:37:bd:a8:26:fc:b0:c8:
                    78:cc:c3:2c:60:22:8a:bf:cc:8b:61:7f:fe:a0:40:
                    48:21:c6:0e:f0:43:17:b7:d1:bc:e0:71:a6:a8:0f:
                    7b:23:31:fe:64:4f:ab:83:12:da:09:b5:36:38:48:
                    73:68:23:a4:1b:77:75:d6:5c:c2:36:86:2a:03:9d:
                    48:e2:28:b8:e2:2f:96:38:22:3b:2e:ba:85:43:69:
                    a4:b5:9c:0d:37:e7:00:db:68:c7:95:4f:3d:72:2f:
                    39:90:95:d6:a5:15:d9:69:bb:c3:e2:ad:56:2d:27:
                    f3:e9
                Exponent: 65537 (0x10001)
        X509v3 extensions:
            X509v3 Basic Constraints: 
                CA:FALSE
            Netscape Comment: 
                OpenSSL Generated Certificate
            X509v3 Subject Key Identifier: 
                91:32:C0:42:7F:45:27:38:31:6B:00:D6:0E:8E:B3:B2:D5:E9:BB:F7
            X509v3 Authority Key Identifier: 
                keyid:95:4B:5E:E6:84:4D:42:7D:3F:74:44:E6:03:3E:FA:03:12:11:2C:19

    Signature Algorithm: sha256WithRSAEncryption
         2e:57:4e:71:9a:09:f8:8e:d6:fe:5a:dc:96:af:18:07:64:24:
         d8:a2:05:0c:67:9f:ad:18:c2:c0:d3:64:5e:30:38:12:cb:92:
         d2:0c:18:4b:9d:16:eb:d6:b7:39:ef:86:94:05:1f:4d:9e:32:
         35:15:cc:03:d0:83:5a:04:17:51:ea:f4:72:35:48:cd:d2:10:
         18:c6:b6:0a:50:73:d0:40:e8:44:af:63:ff:ac:94:84:c3:90:
         25:2f:d5:bc:1d:3c:75:7f:0b:d1:96:f7:bb:ce:98:9d:8c:e4:
         f5:46:2b:07:05:cf:76:fa:52:ea:f9:fb:e5:f4:d6:15:24:8b:
         c9:b4:aa:48:99:c1:8f:18:3d:d7:03:ac:3d:a8:09:0d:b8:94:
         41:e6:56:e0:a0:31:49:95:00:78:16:d5:ec:4e:b0:a3:6b:d7:
         3e:17:91:48:06:f4:10:a3:09:bb:14:93:7a:ce:ff:b0:d8:26:
         75:d8:5d:33:d4:f7:b4:5a:3c:0d:ef:b4:4d:37:ae:35:aa:b3:
         ca:66:73:e1:95:ec:76:28:23:ce:8e:3d:6e:e0:48:ce:f2:ef:
         11:12:a8:ec:9c:ba:d7:75:79:63:de:26:18:1e:f0:11:53:0b:
         77:e8:75:6f:76:11:a7:0b:e8:44:ec:f8:29:d9:36:e0:f7:1c:
         29:6f:36:f9
-----BEGIN CERTIFICATE-----
MIIDSjCCAjKgAwIBAgIEEAAAoDANBgkqhkiG9w0BAQsFADAnMSUwIwYDVQQDDBxT
UksyX3NoYTI1Nl8yMDQ4XzY1NTM3X3YzX2NhMB4XDTE4MDMwNzE1MTc0MFoXDTI4
MDMwNDE1MTc0MFowKjEoMCYGA1UEAwwfQ1NGMl8xX3NoYTI1Nl8yMDQ4XzY1NTM3
X3YzX3VzcjCCASIwDQYJKoZIhvcNAQEBBQADggEPADCCAQoCggEBAM3Y8+OJrWTb
LmhYCbjqztI84TDs4pi6WhUXMUWTJArgkMQnNkleYsrYNau8PTUwycONGZI19yiS
Z1yf0N3b/SBJCi5DHhZ9mH75Dn9uFbybjI0TDYuS4xPxoRCIBYMCVc2A7iUD2LUF
K11EBV+IShB/ETN7NNH80mYJDdq5Jl0x2jchvIakhu0y0kOsImk3vagm/LDIeMzD
LGAiir/Mi2F//qBASCHGDvBDF7fRvOBxpqgPeyMx/mRPq4MS2gm1NjhIc2gjpBt3
ddZcwjaGKgOdSOIouOIvljgiOy66hUNppLWcDTfnANtox5VPPXIvOZCV1qUV2Wm7
w+KtVi0n8+kCAwEAAaN7MHkwCQYDVR0TBAIwADAsBglghkgBhvhCAQ0EHxYdT3Bl
blNTTCBHZW5lcmF0ZWQgQ2VydGlmaWNhdGUwHQYDVR0OBBYEFJEywEJ/RSc4MWsA
1g6Os7LV6bv3MB8GA1UdIwQYMBaAFJVLXuaETUJ9P3RE5gM++gMSESwZMA0GCSqG
SIb3DQEBCwUAA4IBAQAuV05xmgn4jtb+WtyWrxgHZCTYogUMZ5+tGMLA02ReMDgS
y5LSDBhLnRbr1rc574aUBR9NnjI1FcwD0INaBBdR6vRyNUjN0hAYxrYKUHPQQOhE
r2P/rJSEw5AlL9W8HTx1fwvRlve7zpidjOT1RisHBc92+lLq+fvl9NYVJIvJtKpI
mcGPGD3XA6w9qAkNuJRB5lbgoDFJlQB4FtXsTrCja9c+F5FIBvQQowm7FJN6zv+w
2CZ12F0z1Pe0WjwN77RNN641qrPKZnPhlex2KCPOjj1u4EjO8u8REqjsnLrXdXlj
3iYYHvARUwt36HVvdhGnC+hE7Pgp2Tbg9xwpbzb5
-----END CERTIFICATE-----
