Certificate:
    Data:
        Version: 3 (0x2)
        Serial Number: 268435628 (0x100000ac)
    Signature Algorithm: sha256WithRSAEncryption
        Issuer: CN=SRK2_sha256_4096_65537_v3_ca
        Validity
            Not Before: Mar  7 15:17:45 2018 GMT
            Not After : Mar  4 15:17:45 2028 GMT
        Subject: CN=CSF2_1_sha256_4096_65537_v3_usr
        Subject Public Key Info:
            Public Key Algorithm: rsaEncryption
                Public-Key: (4096 bit)
                Modulus:
                    00:d3:c7:d9:dd:dc:65:b3:3d:8d:85:05:8f:53:a0:
                    24:b4:0d:99:61:3e:8f:54:7a:60:2f:89:c4:b7:03:
                    f9:ae:2d:d0:b3:d6:12:81:ab:17:9c:6d:27:02:ae:
                    ea:78:21:98:6f:12:89:f3:9e:fa:01:87:e3:2c:53:
                    fa:06:78:b1:79:f3:f4:30:33:28:99:7a:70:a6:f6:
                    03:46:d9:6f:b2:b5:c3:2e:d4:24:91:3d:b2:27:33:
                    9b:05:fd:d6:8c:48:1b:12:11:32:a1:ce:74:e5:37:
                    07:b3:2f:2a:ec:46:6c:19:95:94:d0:9e:e2:5e:04:
                    f0:5f:9a:a0:42:1c:16:d3:54:0f:31:82:dc:d1:67:
                    f5:cd:74:6d:12:b3:0a:1a:c0:f7:64:64:e1:64:46:
                    0f:d7:de:fb:4f:8b:30:cb:74:a9:db:ee:46:c6:99:
                    9e:44:67:51:e6:53:89:e6:f5:05:0b:c6:6f:ed:24:
                    ea:07:69:92:5a:f8:34:8d:58:fa:27:f1:5c:c6:8e:
                    5c:53:18:df:2c:5c:52:3b:06:5c:6f:9f:5f:f2:a2:
                    67:3e:5a:92:f6:d7:c9:c0:3d:30:ae:55:38:a6:5c:
                    88:fd:5d:22:03:20:67:85:b9:a3:d2:9d:7a:2f:b7:
                    ee:61:85:b6:54:46:4f:9d:58:6b:29:99:2b:94:24:
                    a6:cc:31:af:a2:93:4b:f7:3f:80:bc:aa:1a:f9:a3:
                    c1:86:5e:c8:b3:02:87:09:03:44:56:89:77:a6:3d:
                    dd:fe:2e:9c:70:c8:b8:1a:dc:a3:c6:e6:5a:24:c3:
                    24:ba:8b:d1:fd:29:76:22:58:42:0c:00:a1:27:62:
                    f8:d5:50:c7:cf:24:03:9f:0b:c7:63:e7:c7:bd:26:
                    9c:a7:87:43:6d:e0:eb:95:95:96:ef:03:74:e1:d9:
                    fe:3f:8b:3d:a2:9e:0c:31:d7:72:f6:85:1c:b3:0e:
                    2b:1b:0c:d9:4e:0d:89:2a:b2:d3:a2:9c:88:d6:9c:
                    15:ad:66:0f:c8:f5:7b:a0:16:33:82:30:e9:8e:3f:
                    f9:48:61:ae:43:53:c6:79:1b:8a:f3:82:f9:a9:2a:
                    2f:25:b2:fb:05:f0:51:b4:a9:2b:f7:bf:fa:a0:ea:
                    08:43:16:05:08:29:84:d0:34:41:d6:ef:47:7f:61:
                    d5:9a:a0:7d:12:3d:11:94:48:08:11:9e:46:13:e1:
                    54:0a:93:b2:6c:cb:a8:92:c6:01:ab:a0:a6:1d:62:
                    36:8d:c6:48:57:03:3a:de:4e:f1:94:4b:e6:ba:a1:
                    6e:8d:ba:54:a9:2e:23:d8:53:c3:c9:91:e3:cb:42:
                    7d:5f:ed:fa:57:3c:5f:0e:74:f5:5f:6a:f7:e6:c5:
                    68:16:fd
                Exponent: 65537 (0x10001)
        X509v3 extensions:
            X509v3 Basic Constraints: 
                CA:FALSE
            Netscape Comment: 
                OpenSSL Generated Certificate
            X509v3 Subject Key Identifier: 
                E4:68:96:9E:01:2A:E7:EA:5C:DF:B2:23:B0:6D:CD:FF:3D:AE:2A:77
            X509v3 Authority Key Identifier: 
                keyid:9F:58:91:86:01:9B:57:8E:1B:50:9D:4B:62:C0:08:CB:2D:B3:16:38

    Signature Algorithm: sha256WithRSAEncryption
         65:2e:a5:f6:32:ea:de:e8:7e:80:28:fc:f8:de:ec:db:78:2d:
         c2:70:ea:80:be:5a:82:3d:82:23:44:00:10:eb:49:18:cf:9a:
         40:03:a3:48:45:54:09:54:ec:c3:a0:97:bb:29:51:87:48:02:
         d3:7d:e3:ba:ac:4d:5b:b5:ce:87:92:5c:af:3e:e9:d1:f0:ca:
         c5:6f:0d:c3:9e:1e:92:42:38:0c:2d:38:25:81:41:18:b8:9f:
         da:71:18:0a:75:91:ae:64:25:23:58:ae:8c:e7:14:75:c9:e6:
         f0:6f:33:ee:08:ea:57:03:89:63:1c:cf:ba:5f:46:e8:7c:7e:
         d7:c8:0b:ce:87:49:47:ad:f2:78:52:db:b5:93:f3:40:99:7f:
         e5:3e:bb:89:6e:ed:59:55:25:14:da:41:2c:28:79:d2:3b:a8:
         2f:33:fe:09:d5:b9:e3:a8:39:bd:ae:14:6f:55:7c:29:da:d9:
         08:a1:27:79:1e:86:32:03:e0:0d:da:03:64:19:6c:f4:8b:68:
         e1:17:77:1c:87:31:2d:b4:62:9c:87:9d:8d:36:48:4f:f6:64:
         b9:e5:01:cb:01:3b:21:da:42:b4:21:87:02:7c:70:78:9f:85:
         c5:67:21:b6:8a:5a:b4:8c:59:34:51:31:af:69:41:40:84:72:
         6a:58:e0:54:00:59:b3:25:35:d9:b4:82:64:28:27:59:1c:ec:
         53:01:53:3c:ec:50:98:af:6c:9c:24:d9:d3:23:46:d7:a1:6a:
         e1:7f:8f:e9:6d:8b:1a:ec:9e:b2:ac:76:6e:69:15:90:8a:e6:
         b5:45:aa:a9:49:39:d3:33:d7:13:65:32:ba:55:d2:6a:e9:c2:
         5a:e0:1e:bf:06:89:c0:e9:e2:78:cb:e3:76:5e:74:6e:6c:83:
         78:a5:2a:21:01:26:15:c8:83:8a:f7:af:e0:70:06:e1:25:8f:
         1a:06:75:ce:ab:53:68:b3:c7:ed:0d:bb:33:1c:3a:b0:0a:f0:
         98:47:84:8b:3b:06:cc:7a:10:f2:eb:d3:f0:7c:1d:72:8d:35:
         75:e1:cb:4b:00:5a:71:dc:97:4c:6f:d5:42:e2:e9:8d:b5:4f:
         86:89:15:85:55:80:27:38:77:84:cd:55:42:32:12:fc:c7:73:
         83:0b:6b:8b:9c:2e:34:a4:7a:e7:fd:b9:c4:79:69:4d:7c:a8:
         6c:81:26:ff:fb:3a:ec:75:1d:b8:46:c6:1b:86:76:1d:78:52:
         19:78:45:99:79:de:92:10:54:0e:cc:17:b0:67:66:a9:1e:bc:
         12:23:69:39:7d:99:70:3c:92:0f:2f:13:9c:ac:36:d8:47:63:
         0a:52:fd:13:42:2e:96:76
-----BEGIN CERTIFICATE-----
MIIFSjCCAzKgAwIBAgIEEAAArDANBgkqhkiG9w0BAQsFADAnMSUwIwYDVQQDDBxT
UksyX3NoYTI1Nl80MDk2XzY1NTM3X3YzX2NhMB4XDTE4MDMwNzE1MTc0NVoXDTI4
MDMwNDE1MTc0NVowKjEoMCYGA1UEAwwfQ1NGMl8xX3NoYTI1Nl80MDk2XzY1NTM3
X3YzX3VzcjCCAiIwDQYJKoZIhvcNAQEBBQADggIPADCCAgoCggIBANPH2d3cZbM9
jYUFj1OgJLQNmWE+j1R6YC+JxLcD+a4t0LPWEoGrF5xtJwKu6nghmG8SifOe+gGH
4yxT+gZ4sXnz9DAzKJl6cKb2A0bZb7K1wy7UJJE9siczmwX91oxIGxIRMqHOdOU3
B7MvKuxGbBmVlNCe4l4E8F+aoEIcFtNUDzGC3NFn9c10bRKzChrA92Rk4WRGD9fe
+0+LMMt0qdvuRsaZnkRnUeZTieb1BQvGb+0k6gdpklr4NI1Y+ifxXMaOXFMY3yxc
UjsGXG+fX/KiZz5akvbXycA9MK5VOKZciP1dIgMgZ4W5o9Kdei+37mGFtlRGT51Y
aymZK5Qkpswxr6KTS/c/gLyqGvmjwYZeyLMChwkDRFaJd6Y93f4unHDIuBrco8bm
WiTDJLqL0f0pdiJYQgwAoSdi+NVQx88kA58Lx2Pnx70mnKeHQ23g65WVlu8DdOHZ
/j+LPaKeDDHXcvaFHLMOKxsM2U4NiSqy06KciNacFa1mD8j1e6AWM4Iw6Y4/+Uhh
rkNTxnkbivOC+akqLyWy+wXwUbSpK/e/+qDqCEMWBQgphNA0QdbvR39h1ZqgfRI9
EZRICBGeRhPhVAqTsmzLqJLGAaugph1iNo3GSFcDOt5O8ZRL5rqhbo26VKkuI9hT
w8mR48tCfV/t+lc8Xw509V9q9+bFaBb9AgMBAAGjezB5MAkGA1UdEwQCMAAwLAYJ
YIZIAYb4QgENBB8WHU9wZW5TU0wgR2VuZXJhdGVkIENlcnRpZmljYXRlMB0GA1Ud
DgQWBBTkaJaeASrn6lzfsiOwbc3/Pa4qdzAfBgNVHSMEGDAWgBSfWJGGAZtXjhtQ
nUtiwAjLLbMWODANBgkqhkiG9w0BAQsFAAOCAgEAZS6l9jLq3uh+gCj8+N7s23gt
wnDqgL5agj2CI0QAEOtJGM+aQAOjSEVUCVTsw6CXuylRh0gC033juqxNW7XOh5Jc
rz7p0fDKxW8Nw54ekkI4DC04JYFBGLif2nEYCnWRrmQlI1iujOcUdcnm8G8z7gjq
VwOJYxzPul9G6Hx+18gLzodJR63yeFLbtZPzQJl/5T67iW7tWVUlFNpBLCh50juo
LzP+CdW546g5va4Ub1V8KdrZCKEneR6GMgPgDdoDZBls9Ito4Rd3HIcxLbRinIed
jTZIT/ZkueUBywE7IdpCtCGHAnxweJ+FxWchtopatIxZNFExr2lBQIRyaljgVABZ
syU12bSCZCgnWRzsUwFTPOxQmK9snCTZ0yNG16Fq4X+P6W2LGuyesqx2bmkVkIrm
tUWqqUk50zPXE2UyulXSaunCWuAevwaJwOnieMvjdl50bmyDeKUqIQEmFciDivev
4HAG4SWPGgZ1zqtTaLPH7Q27Mxw6sArwmEeEizsGzHoQ8uvT8Hwdco01deHLSwBa
cdyXTG/VQuLpjbVPhokVhVWAJzh3hM1VQjIS/Mdzgwtri5wuNKR65/25xHlpTXyo
bIEm//s67HUduEbGG4Z2HXhSGXhFmXnekhBUDswXsGdmqR68EiNpOX2ZcDySDy8T
nKw22EdjClL9E0IulnY=
-----END CERTIFICATE-----
