Certificate:
    Data:
        Version: 3 (0x2)
        Serial Number: 268435607 (0x10000097)
    Signature Algorithm: sha256WithRSAEncryption
        Issuer: CN=SRK3_sha256_1024_65537_v3_ca
        Validity
            Not Before: Mar  7 15:17:39 2018 GMT
            Not After : Mar  4 15:17:39 2028 GMT
        Subject: CN=CSF3_1_sha256_1024_65537_v3_usr
        Subject Public Key Info:
            Public Key Algorithm: rsaEncryption
                Public-Key: (1024 bit)
                Modulus:
                    00:a8:9b:ae:d0:e8:04:16:8f:5a:5f:25:fc:04:65:
                    6d:7f:15:7f:24:7b:5a:59:76:54:e3:24:a6:e1:24:
                    0d:4c:97:24:b3:21:7f:cf:c9:91:59:76:25:a4:68:
                    ea:93:ad:9c:d6:52:2a:58:1b:de:df:4a:a8:c8:ec:
                    66:3d:fc:53:3c:8a:f3:80:ba:9b:78:c3:2c:96:88:
                    03:00:71:69:08:51:6b:fa:ec:22:33:73:99:40:ee:
                    63:41:de:fe:5f:10:bf:19:2a:f6:d5:34:c5:54:36:
                    39:ef:8b:83:d3:ac:95:4b:ec:1e:58:48:31:97:42:
                    f8:f6:b1:92:b0:8c:40:f9:c3
                Exponent: 65537 (0x10001)
        X509v3 extensions:
            X509v3 Basic Constraints: 
                CA:FALSE
            Netscape Comment: 
                OpenSSL Generated Certificate
            X509v3 Subject Key Identifier: 
                3B:B6:4A:82:61:FA:9D:E7:9A:1E:DA:3A:26:C6:25:4C:22:98:AF:AD
            X509v3 Authority Key Identifier: 
                keyid:07:A7:80:EE:12:0E:9B:6E:F8:5A:EF:20:DF:B9:FC:A8:40:54:47:D7

    Signature Algorithm: sha256WithRSAEncryption
         2a:3f:de:58:29:d7:59:42:ee:db:a8:bb:cf:75:20:a4:60:44:
         19:df:aa:04:96:4d:bb:b0:0b:12:f0:de:93:6e:68:99:7d:7b:
         27:f5:d8:a3:37:cd:6a:43:8c:99:e3:71:52:80:78:29:25:e7:
         5e:da:e6:fc:79:53:d6:a9:8a:12:4d:c3:50:fa:83:43:38:c7:
         39:dd:a7:e7:74:51:f8:8b:3b:e4:73:08:87:d3:38:01:8f:9f:
         be:5a:68:50:ec:21:c2:72:59:02:fd:ba:bd:b6:29:2c:44:1d:
         61:64:af:10:59:99:b6:08:45:d5:ea:1f:4b:48:1e:b7:e4:29:
         d5:12
-----BEGIN CERTIFICATE-----
MIICRTCCAa6gAwIBAgIEEAAAlzANBgkqhkiG9w0BAQsFADAnMSUwIwYDVQQDDBxT
UkszX3NoYTI1Nl8xMDI0XzY1NTM3X3YzX2NhMB4XDTE4MDMwNzE1MTczOVoXDTI4
MDMwNDE1MTczOVowKjEoMCYGA1UEAwwfQ1NGM18xX3NoYTI1Nl8xMDI0XzY1NTM3
X3YzX3VzcjCBnzANBgkqhkiG9w0BAQEFAAOBjQAwgYkCgYEAqJuu0OgEFo9aXyX8
BGVtfxV/JHtaWXZU4ySm4SQNTJcksyF/z8mRWXYlpGjqk62c1lIqWBve30qoyOxm
PfxTPIrzgLqbeMMslogDAHFpCFFr+uwiM3OZQO5jQd7+XxC/GSr21TTFVDY574uD
06yVS+weWEgxl0L49rGSsIxA+cMCAwEAAaN7MHkwCQYDVR0TBAIwADAsBglghkgB
hvhCAQ0EHxYdT3BlblNTTCBHZW5lcmF0ZWQgQ2VydGlmaWNhdGUwHQYDVR0OBBYE
FDu2SoJh+p3nmh7aOibGJUwimK+tMB8GA1UdIwQYMBaAFAengO4SDptu+FrvIN+5
/KhAVEfXMA0GCSqGSIb3DQEBCwUAA4GBACo/3lgp11lC7tuou891IKRgRBnfqgSW
TbuwCxLw3pNuaJl9eyf12KM3zWpDjJnjcVKAeCkl517a5vx5U9apihJNw1D6g0M4
xzndp+d0UfiLO+RzCIfTOAGPn75aaFDsIcJyWQL9ur22KSxEHWFkrxBZmbYIRdXq
H0tIHrfkKdUS
-----END CERTIFICATE-----
