Certificate:
    Data:
        Version: 3 (0x2)
        Serial Number: 268435619 (0x100000a3)
    Signature Algorithm: sha256WithRSAEncryption
        Issuer: CN=SRK3_sha256_2048_65537_v3_ca
        Validity
            Not Before: Mar  7 15:17:40 2018 GMT
            Not After : Mar  4 15:17:40 2028 GMT
        Subject: CN=CSF3_1_sha256_2048_65537_v3_usr
        Subject Public Key Info:
            Public Key Algorithm: rsaEncryption
                Public-Key: (2048 bit)
                Modulus:
                    00:d5:67:df:dc:2c:ae:55:f1:21:da:69:9a:1c:b5:
                    d8:b2:5c:17:64:70:e7:de:dc:cc:46:e2:e9:ff:42:
                    9c:c5:c8:03:85:3e:02:4c:fd:6c:9a:32:4b:0d:fb:
                    7e:00:2a:02:13:0c:41:a9:38:46:93:e1:b9:a6:9a:
                    cc:b5:15:6d:46:9f:ad:08:3b:cc:11:1e:6d:5d:98:
                    2e:d6:71:3e:01:46:72:76:ec:76:13:2e:19:b3:54:
                    8e:a6:ed:59:82:94:73:e8:da:68:64:06:92:b0:dc:
                    4b:dd:17:93:2c:ce:7c:6d:67:e7:28:e9:19:27:ef:
                    7c:eb:95:85:8a:20:20:3b:67:9c:13:06:98:5f:ba:
                    3f:e5:79:81:d4:3c:f4:9f:23:7c:9c:41:cc:37:4f:
                    7b:da:48:45:83:2e:24:cd:0f:9b:e9:9b:e5:17:ca:
                    87:9b:53:86:a0:45:ec:8d:c4:84:be:7b:9f:45:bb:
                    e3:d0:86:9b:dd:51:05:24:31:b4:14:36:50:ba:d4:
                    43:83:84:41:12:8f:9f:30:a5:12:2b:86:ea:d9:45:
                    a0:0b:89:28:86:55:3e:fe:82:33:25:27:e8:c1:96:
                    ef:7a:d6:3e:8d:18:57:2b:32:c9:d9:a9:af:2e:21:
                    c4:e9:00:3b:98:09:aa:ed:b3:1a:bd:b3:5e:f4:a5:
                    0d:01
                Exponent: 65537 (0x10001)
        X509v3 extensions:
            X509v3 Basic Constraints: 
                CA:FALSE
            Netscape Comment: 
                OpenSSL Generated Certificate
            X509v3 Subject Key Identifier: 
                1B:55:EE:DC:CB:A2:18:66:A7:F4:97:44:5C:E9:34:A9:28:A3:E1:72
            X509v3 Authority Key Identifier: 
                keyid:EF:94:CF:46:05:20:E2:A2:49:0A:D8:C2:0D:23:40:00:C7:A9:50:54

    Signature Algorithm: sha256WithRSAEncryption
         55:f4:bd:2f:6b:4b:83:21:0f:0d:8c:11:4f:6c:5b:d5:85:78:
         e6:9f:00:08:bd:7e:fc:86:3f:72:9c:fc:14:cf:87:4c:66:ce:
         33:9c:e1:64:21:5e:ed:dc:e2:f3:c4:7b:2a:1c:1c:08:b0:49:
         25:67:0f:2d:2d:ba:77:68:ae:01:ca:dd:6a:f7:9f:b1:25:89:
         16:01:a4:41:3b:ad:90:58:58:ae:22:7c:3c:18:ab:1a:40:11:
         9d:df:a6:c0:18:2f:09:9f:80:1e:dd:8a:21:e3:3f:5b:ef:71:
         e8:72:07:7b:61:a2:f5:50:8b:8f:ae:17:a2:7f:f6:c1:33:99:
         dd:88:26:08:b4:ab:47:61:3f:3d:2d:b5:04:ba:7e:d1:6b:33:
         ae:74:6f:a5:35:88:f1:4e:8a:24:74:e4:df:3b:28:8c:41:17:
         df:43:e0:4a:6d:6d:0f:ca:aa:81:2d:bf:7c:08:0c:87:1e:61:
         07:ef:0b:96:90:9e:27:7a:7b:84:5b:e3:a1:7e:b5:ec:2d:9e:
         5c:14:9f:9d:58:b2:98:44:5d:a2:e9:a4:1e:c8:46:c5:b9:b3:
         15:22:37:3d:2c:4f:06:dc:93:28:6a:a4:50:20:4b:7e:79:22:
         7d:e5:43:13:c9:06:55:95:a0:ea:98:fb:46:2e:75:04:07:e1:
         0c:a8:73:4a
-----BEGIN CERTIFICATE-----
MIIDSjCCAjKgAwIBAgIEEAAAozANBgkqhkiG9w0BAQsFADAnMSUwIwYDVQQDDBxT
UkszX3NoYTI1Nl8yMDQ4XzY1NTM3X3YzX2NhMB4XDTE4MDMwNzE1MTc0MFoXDTI4
MDMwNDE1MTc0MFowKjEoMCYGA1UEAwwfQ1NGM18xX3NoYTI1Nl8yMDQ4XzY1NTM3
X3YzX3VzcjCCASIwDQYJKoZIhvcNAQEBBQADggEPADCCAQoCggEBANVn39wsrlXx
Idppmhy12LJcF2Rw597czEbi6f9CnMXIA4U+Akz9bJoySw37fgAqAhMMQak4RpPh
uaaazLUVbUafrQg7zBEebV2YLtZxPgFGcnbsdhMuGbNUjqbtWYKUc+jaaGQGkrDc
S90XkyzOfG1n5yjpGSfvfOuVhYogIDtnnBMGmF+6P+V5gdQ89J8jfJxBzDdPe9pI
RYMuJM0Pm+mb5RfKh5tThqBF7I3EhL57n0W749CGm91RBSQxtBQ2ULrUQ4OEQRKP
nzClEiuG6tlFoAuJKIZVPv6CMyUn6MGW73rWPo0YVysyydmpry4hxOkAO5gJqu2z
Gr2zXvSlDQECAwEAAaN7MHkwCQYDVR0TBAIwADAsBglghkgBhvhCAQ0EHxYdT3Bl
blNTTCBHZW5lcmF0ZWQgQ2VydGlmaWNhdGUwHQYDVR0OBBYEFBtV7tzLohhmp/SX
RFzpNKkoo+FyMB8GA1UdIwQYMBaAFO+Uz0YFIOKiSQrYwg0jQADHqVBUMA0GCSqG
SIb3DQEBCwUAA4IBAQBV9L0va0uDIQ8NjBFPbFvVhXjmnwAIvX78hj9ynPwUz4dM
Zs4znOFkIV7t3OLzxHsqHBwIsEklZw8tLbp3aK4Byt1q95+xJYkWAaRBO62QWFiu
Inw8GKsaQBGd36bAGC8Jn4Ae3Yoh4z9b73Hocgd7YaL1UIuPrheif/bBM5ndiCYI
tKtHYT89LbUEun7RazOudG+lNYjxTookdOTfOyiMQRffQ+BKbW0PyqqBLb98CAyH
HmEH7wuWkJ4nenuEW+OhfrXsLZ5cFJ+dWLKYRF2i6aQeyEbFubMVIjc9LE8G3JMo
aqRQIEt+eSJ95UMTyQZVlaDqmPtGLnUEB+EMqHNK
-----END CERTIFICATE-----
