Certificate:
    Data:
        Version: 3 (0x2)
        Serial Number: 268435634 (0x100000b2)
    Signature Algorithm: sha256WithRSAEncryption
        Issuer: CN=SRK4_sha256_4096_65537_v3_ca
        Validity
            Not Before: Mar  7 15:17:49 2018 GMT
            Not After : Mar  4 15:17:49 2028 GMT
        Subject: CN=CSF4_1_sha256_4096_65537_v3_usr
        Subject Public Key Info:
            Public Key Algorithm: rsaEncryption
                Public-Key: (4096 bit)
                Modulus:
                    00:e6:09:11:56:18:ee:2e:58:bd:aa:e7:c2:5e:45:
                    eb:37:26:92:1f:7e:4c:9c:11:3e:3e:51:5a:09:15:
                    f8:8e:d3:28:9d:3e:bb:7d:0f:c0:32:da:36:43:d3:
                    73:ef:2c:e3:9a:5b:25:26:64:c8:e7:28:65:fa:3c:
                    65:0e:31:53:4c:cc:b3:59:98:84:53:6b:7f:fe:3c:
                    36:95:a5:11:f9:10:6d:22:19:ca:84:b7:47:51:4d:
                    14:98:dd:95:47:32:02:c7:0d:db:fe:17:21:85:98:
                    96:73:c6:2b:c4:6b:c6:97:eb:44:2c:46:55:6f:cc:
                    c6:f7:6a:22:42:2b:3f:09:dc:59:a8:19:77:b2:b9:
                    1c:cb:1a:b0:6e:88:db:a6:94:a1:9a:20:e7:84:41:
                    d6:94:d7:1f:0d:35:27:4c:1a:c5:e1:8c:80:a6:5f:
                    74:c6:1f:7e:36:4d:33:77:6a:97:17:df:2d:9f:e3:
                    88:fc:c1:ad:3d:81:81:80:04:bd:ec:e1:08:c0:a4:
                    1f:b9:f9:2e:3f:5e:1f:82:be:37:a1:d7:39:7f:06:
                    00:01:32:23:e9:b2:13:6d:c2:29:96:69:0c:9b:c4:
                    69:e9:e0:a9:94:91:a1:eb:6c:61:be:80:c7:eb:b0:
                    62:0c:18:35:c4:34:4c:e7:2f:36:37:e8:97:d2:7b:
                    08:90:b2:1e:17:6e:9f:4c:32:97:36:4e:51:3a:e3:
                    2c:8e:b4:1f:6f:e2:20:28:89:1e:5e:24:b5:77:70:
                    9a:7c:09:54:1e:ec:a7:b1:fa:41:19:9a:81:bb:26:
                    92:30:10:97:72:31:2e:2d:ba:00:1a:10:22:c3:05:
                    46:85:41:4f:6e:4f:b6:20:39:d3:4c:88:ea:cd:bb:
                    d7:82:b3:1c:21:8c:a8:11:80:e4:81:c8:57:60:a4:
                    41:67:32:7d:be:4b:37:0f:18:d5:4f:ac:10:ca:fd:
                    2b:65:b1:37:4d:24:76:e7:a5:e3:a0:fd:62:87:65:
                    bd:57:6e:e4:2d:6a:59:20:44:64:87:37:5e:3c:ee:
                    9a:7e:0c:83:28:01:39:7d:43:e9:5e:52:4e:a1:25:
                    09:c2:3b:18:bc:fd:f5:21:2d:06:53:01:e7:66:87:
                    61:40:92:d6:64:8f:4c:94:70:8e:7e:7a:3a:c0:ba:
                    ed:01:51:2c:a6:64:ef:a9:1d:28:5a:81:56:ca:0f:
                    27:81:de:89:78:e5:6e:a2:63:a1:75:b5:91:8c:77:
                    93:f2:af:ea:14:8a:fc:42:3a:dc:e7:36:38:cd:ef:
                    e5:01:ca:72:4c:dc:95:e2:0f:43:cd:93:68:96:b8:
                    4e:64:bc:a0:d1:ff:ba:d9:34:4f:f0:4d:5e:3f:75:
                    89:30:07
                Exponent: 65537 (0x10001)
        X509v3 extensions:
            X509v3 Basic Constraints: 
                CA:FALSE
            Netscape Comment: 
                OpenSSL Generated Certificate
            X509v3 Subject Key Identifier: 
                26:2B:3E:12:0B:6A:A3:CD:06:E5:0F:2E:24:5D:C7:07:55:31:9B:EF
            X509v3 Authority Key Identifier: 
                keyid:74:CA:30:A1:C1:1D:F4:D3:A9:03:1F:AF:A7:97:D7:0F:6D:E2:52:F2

    Signature Algorithm: sha256WithRSAEncryption
         9f:cb:29:ab:50:b8:44:96:54:6a:29:02:f0:4a:c9:95:9b:75:
         0d:05:cb:cb:2c:78:df:38:34:db:df:ef:cb:e7:46:72:f1:d5:
         2a:3d:57:a6:ca:88:eb:6f:09:e1:b9:0d:7d:ea:96:4b:43:b6:
         fa:42:b9:66:c4:69:03:b5:7a:8b:dc:6c:20:35:78:fd:48:05:
         88:40:2d:6f:a8:de:3c:b2:ee:51:4e:e5:b7:c7:9f:d6:ef:8b:
         9b:4d:cb:79:f3:4c:c2:06:88:05:52:fa:97:c0:7e:eb:01:4f:
         3a:bf:30:2e:c3:be:a8:de:1e:25:b5:d3:38:86:9e:f5:5f:4b:
         2f:e8:00:35:18:d4:16:35:8c:21:e1:61:cb:ed:a1:ce:49:7a:
         c6:1c:23:28:86:fc:07:b0:58:a2:4a:dd:11:60:a9:cb:c8:92:
         16:1b:9b:e8:d6:80:22:2a:9f:bb:c7:bf:18:86:5d:c6:d6:bc:
         84:13:24:98:9c:90:b6:f4:5b:37:a3:2e:fe:ae:6c:8c:40:26:
         15:8c:6d:39:05:38:f7:7e:e9:df:79:b5:7c:f9:1a:80:ca:37:
         e1:7d:49:07:9c:50:58:ff:78:de:81:c2:bd:9d:e8:59:6b:55:
         83:09:27:fb:9f:0f:7f:8a:1c:8f:0d:c6:16:32:a8:96:56:79:
         51:2d:9d:0d:96:af:2e:d6:d1:12:26:f1:e7:ed:46:ea:d5:7c:
         ce:d2:e8:46:31:77:9f:1f:44:18:a7:31:68:75:2d:53:95:03:
         9a:2b:25:6d:e0:0a:a4:c1:ce:5c:4a:71:6d:e9:42:fd:db:87:
         9a:7a:b0:3a:43:1b:d1:db:c7:85:e8:96:dc:9e:1d:aa:75:40:
         28:b9:e5:fc:eb:41:c8:70:d2:52:67:a2:c4:0a:8b:70:72:62:
         d0:b3:2f:29:43:1f:f8:d8:56:a3:39:bf:32:cb:53:da:b4:65:
         45:68:82:03:61:19:e5:7e:c5:8e:bf:5b:f2:97:bd:9a:f9:89:
         8f:f3:6b:02:0d:df:93:73:36:5f:44:54:9f:d8:91:bd:1d:ce:
         51:12:55:b4:cf:6c:2a:3d:dc:69:00:8d:83:7d:97:4b:e7:69:
         c8:3e:0d:c3:ed:e1:dd:3c:8f:1f:07:35:ae:08:09:7f:b7:fe:
         29:08:07:e6:e5:79:98:fd:51:fb:85:66:ba:80:26:21:3e:5e:
         1a:02:06:72:8b:03:a2:35:9f:48:29:64:92:6e:0b:02:91:f9:
         37:25:ec:62:9f:e7:eb:93:63:47:de:ef:ce:8c:86:90:cf:3c:
         15:ff:bf:49:71:0a:0f:a1:71:f5:99:e4:26:65:53:a6:58:d1:
         82:75:3c:46:e7:ad:e7:4c
-----BEGIN CERTIFICATE-----
MIIFSjCCAzKgAwIBAgIEEAAAsjANBgkqhkiG9w0BAQsFADAnMSUwIwYDVQQDDBxT
Uks0X3NoYTI1Nl80MDk2XzY1NTM3X3YzX2NhMB4XDTE4MDMwNzE1MTc0OVoXDTI4
MDMwNDE1MTc0OVowKjEoMCYGA1UEAwwfQ1NGNF8xX3NoYTI1Nl80MDk2XzY1NTM3
X3YzX3VzcjCCAiIwDQYJKoZIhvcNAQEBBQADggIPADCCAgoCggIBAOYJEVYY7i5Y
varnwl5F6zcmkh9+TJwRPj5RWgkV+I7TKJ0+u30PwDLaNkPTc+8s45pbJSZkyOco
Zfo8ZQ4xU0zMs1mYhFNrf/48NpWlEfkQbSIZyoS3R1FNFJjdlUcyAscN2/4XIYWY
lnPGK8RrxpfrRCxGVW/MxvdqIkIrPwncWagZd7K5HMsasG6I26aUoZog54RB1pTX
Hw01J0waxeGMgKZfdMYffjZNM3dqlxffLZ/jiPzBrT2BgYAEvezhCMCkH7n5Lj9e
H4K+N6HXOX8GAAEyI+myE23CKZZpDJvEaengqZSRoetsYb6Ax+uwYgwYNcQ0TOcv
Njfol9J7CJCyHhdun0wylzZOUTrjLI60H2/iICiJHl4ktXdwmnwJVB7sp7H6QRma
gbsmkjAQl3IxLi26ABoQIsMFRoVBT25PtiA500yI6s2714KzHCGMqBGA5IHIV2Ck
QWcyfb5LNw8Y1U+sEMr9K2WxN00kduel46D9YodlvVdu5C1qWSBEZIc3Xjzumn4M
gygBOX1D6V5STqElCcI7GLz99SEtBlMB52aHYUCS1mSPTJRwjn56OsC67QFRLKZk
76kdKFqBVsoPJ4HeiXjlbqJjoXW1kYx3k/Kv6hSK/EI63Oc2OM3v5QHKckzcleIP
Q82TaJa4TmS8oNH/utk0T/BNXj91iTAHAgMBAAGjezB5MAkGA1UdEwQCMAAwLAYJ
YIZIAYb4QgENBB8WHU9wZW5TU0wgR2VuZXJhdGVkIENlcnRpZmljYXRlMB0GA1Ud
DgQWBBQmKz4SC2qjzQblDy4kXccHVTGb7zAfBgNVHSMEGDAWgBR0yjChwR3006kD
H6+nl9cPbeJS8jANBgkqhkiG9w0BAQsFAAOCAgEAn8spq1C4RJZUaikC8ErJlZt1
DQXLyyx43zg029/vy+dGcvHVKj1XpsqI628J4bkNfeqWS0O2+kK5ZsRpA7V6i9xs
IDV4/UgFiEAtb6jePLLuUU7lt8ef1u+Lm03LefNMwgaIBVL6l8B+6wFPOr8wLsO+
qN4eJbXTOIae9V9LL+gANRjUFjWMIeFhy+2hzkl6xhwjKIb8B7BYokrdEWCpy8iS
Fhub6NaAIiqfu8e/GIZdxta8hBMkmJyQtvRbN6Mu/q5sjEAmFYxtOQU4937p33m1
fPkagMo34X1JB5xQWP943oHCvZ3oWWtVgwkn+58Pf4ocjw3GFjKollZ5US2dDZav
LtbREibx5+1G6tV8ztLoRjF3nx9EGKcxaHUtU5UDmislbeAKpMHOXEpxbelC/duH
mnqwOkMb0dvHheiW3J4dqnVAKLnl/OtByHDSUmeixAqLcHJi0LMvKUMf+NhWozm/
MstT2rRlRWiCA2EZ5X7Fjr9b8pe9mvmJj/NrAg3fk3M2X0RUn9iRvR3OURJVtM9s
Kj3caQCNg32XS+dpyD4Nw+3h3TyPHwc1rggJf7f+KQgH5uV5mP1R+4VmuoAmIT5e
GgIGcosDojWfSClkkm4LApH5NyXsYp/n65NjR97vzoyGkM88Ff+/SXEKD6Fx9Znk
JmVTpljRgnU8Ruet50w=
-----END CERTIFICATE-----
