Certificate:
    Data:
        Version: 3 (0x2)
        Serial Number: 268435614 (0x1000009e)
    Signature Algorithm: sha256WithRSAEncryption
        Issuer: CN=SRK1_sha256_2048_65537_v3_ca
        Validity
            Not Before: Mar  7 15:17:39 2018 GMT
            Not After : Mar  4 15:17:39 2028 GMT
        Subject: CN=IMG1_1_sha256_2048_65537_v3_usr
        Subject Public Key Info:
            Public Key Algorithm: rsaEncryption
                Public-Key: (2048 bit)
                Modulus:
                    00:ab:5c:41:c1:4e:cd:3e:c7:a2:38:bf:5a:b3:87:
                    4e:35:a3:77:2b:d5:bd:4e:30:b7:cd:8c:54:48:ef:
                    bf:3f:ce:3c:36:2e:53:fb:a8:b9:1b:cf:50:09:0f:
                    c5:ad:e9:9f:07:8a:78:31:7c:b2:61:c4:63:76:e7:
                    ef:8d:f1:bb:83:55:3d:00:c9:1a:a8:24:a0:cf:9a:
                    2d:5b:4d:a1:c9:e9:d3:bc:6f:9f:eb:d6:16:17:4d:
                    99:5e:68:39:bd:00:13:75:20:93:58:eb:87:4b:9a:
                    a8:e1:4d:0e:de:69:41:5e:88:25:74:9f:5e:19:22:
                    16:eb:d9:0c:44:c6:19:76:c0:c2:ba:91:76:a3:95:
                    2a:b4:e6:24:dc:fd:6d:87:1c:87:f0:e0:19:7c:61:
                    fd:2e:e1:45:26:5b:ff:43:7b:5f:90:cf:8d:96:00:
                    73:6d:cc:aa:0e:24:d9:92:7a:ee:bf:43:62:15:37:
                    ec:d6:0c:26:5f:b1:26:51:9c:f1:90:2f:b2:4c:ba:
                    2d:5f:ab:6e:12:17:44:b3:4b:6f:da:cc:26:c7:c0:
                    a3:f4:3a:3f:06:b4:2f:30:fe:e4:b1:c3:b7:16:7b:
                    08:44:5e:e4:54:b6:5f:9a:b8:1b:a5:f0:da:3b:e3:
                    44:4b:2f:a0:43:4e:a8:c6:0b:c4:b8:53:fa:9f:a9:
                    31:59
                Exponent: 65537 (0x10001)
        X509v3 extensions:
            X509v3 Basic Constraints: 
                CA:FALSE
            Netscape Comment: 
                OpenSSL Generated Certificate
            X509v3 Subject Key Identifier: 
                0A:7C:7D:BE:40:8B:A3:BB:41:3E:3D:96:8F:C8:04:48:05:6A:83:10
            X509v3 Authority Key Identifier: 
                keyid:53:DB:B8:37:66:41:1C:D6:A1:A2:D3:7A:BA:0D:27:99:9C:7E:69:07

    Signature Algorithm: sha256WithRSAEncryption
         2f:3b:63:b1:37:60:70:a5:c9:0c:7a:6e:97:01:d5:15:e1:75:
         27:59:d7:12:d0:f3:4d:55:99:04:4c:48:c1:fa:9b:22:96:9b:
         d4:2b:f1:bf:4e:5a:01:25:e5:27:54:5e:b5:97:aa:b9:f1:b2:
         59:28:ce:09:bf:97:16:61:59:c9:79:13:d0:1d:c1:ca:df:bb:
         1c:14:45:21:49:d7:1b:04:61:86:2a:8c:2d:72:89:9a:4b:c3:
         c0:22:d5:98:c2:a7:5e:e4:15:17:e1:90:87:0e:ce:0f:a2:6d:
         a0:5a:19:7b:e9:c4:7e:ae:40:91:f2:57:9b:b2:8c:de:3d:fd:
         53:70:38:59:12:19:21:82:03:4e:54:69:5a:9d:69:83:66:09:
         c0:ae:af:b0:65:10:e1:56:79:b2:9e:ba:45:ca:97:5d:8d:15:
         7e:e2:41:ce:ee:92:a5:ab:a7:9c:c5:bb:d3:21:02:1b:d6:98:
         0e:71:f2:c5:1d:c9:c8:91:f0:4d:d5:63:4d:02:9d:b4:f3:0d:
         ed:54:81:6e:71:66:a9:3f:08:ba:e2:a4:2b:02:92:a9:af:d2:
         d4:49:dd:d0:da:05:99:de:f1:81:33:59:ca:5b:3b:0d:1c:db:
         2d:a4:14:11:2f:fc:30:f1:68:5c:23:b9:56:66:e2:1d:a1:38:
         ca:28:35:5a
-----BEGIN CERTIFICATE-----
MIIDSjCCAjKgAwIBAgIEEAAAnjANBgkqhkiG9w0BAQsFADAnMSUwIwYDVQQDDBxT
UksxX3NoYTI1Nl8yMDQ4XzY1NTM3X3YzX2NhMB4XDTE4MDMwNzE1MTczOVoXDTI4
MDMwNDE1MTczOVowKjEoMCYGA1UEAwwfSU1HMV8xX3NoYTI1Nl8yMDQ4XzY1NTM3
X3YzX3VzcjCCASIwDQYJKoZIhvcNAQEBBQADggEPADCCAQoCggEBAKtcQcFOzT7H
oji/WrOHTjWjdyvVvU4wt82MVEjvvz/OPDYuU/uouRvPUAkPxa3pnweKeDF8smHE
Y3bn743xu4NVPQDJGqgkoM+aLVtNocnp07xvn+vWFhdNmV5oOb0AE3Ugk1jrh0ua
qOFNDt5pQV6IJXSfXhkiFuvZDETGGXbAwrqRdqOVKrTmJNz9bYcch/DgGXxh/S7h
RSZb/0N7X5DPjZYAc23Mqg4k2ZJ67r9DYhU37NYMJl+xJlGc8ZAvsky6LV+rbhIX
RLNLb9rMJsfAo/Q6Pwa0LzD+5LHDtxZ7CERe5FS2X5q4G6Xw2jvjREsvoENOqMYL
xLhT+p+pMVkCAwEAAaN7MHkwCQYDVR0TBAIwADAsBglghkgBhvhCAQ0EHxYdT3Bl
blNTTCBHZW5lcmF0ZWQgQ2VydGlmaWNhdGUwHQYDVR0OBBYEFAp8fb5Ai6O7QT49
lo/IBEgFaoMQMB8GA1UdIwQYMBaAFFPbuDdmQRzWoaLTeroNJ5mcfmkHMA0GCSqG
SIb3DQEBCwUAA4IBAQAvO2OxN2BwpckMem6XAdUV4XUnWdcS0PNNVZkETEjB+psi
lpvUK/G/TloBJeUnVF61l6q58bJZKM4Jv5cWYVnJeRPQHcHK37scFEUhSdcbBGGG
KowtcomaS8PAItWYwqde5BUX4ZCHDs4Pom2gWhl76cR+rkCR8lebsozePf1TcDhZ
EhkhggNOVGlanWmDZgnArq+wZRDhVnmynrpFypddjRV+4kHO7pKlq6ecxbvTIQIb
1pgOcfLFHcnIkfBN1WNNAp208w3tVIFucWapPwi64qQrApKpr9LUSd3Q2gWZ3vGB
M1nKWzsNHNstpBQRL/ww8WhcI7lWZuIdoTjKKDVa
-----END CERTIFICATE-----
