Certificate:
    Data:
        Version: 3 (0x2)
        Serial Number: 268435629 (0x100000ad)
    Signature Algorithm: sha256WithRSAEncryption
        Issuer: CN=SRK2_sha256_4096_65537_v3_ca
        Validity
            Not Before: Mar  7 15:17:45 2018 GMT
            Not After : Mar  4 15:17:45 2028 GMT
        Subject: CN=IMG2_1_sha256_4096_65537_v3_usr
        Subject Public Key Info:
            Public Key Algorithm: rsaEncryption
                Public-Key: (4096 bit)
                Modulus:
                    00:f2:ba:eb:17:89:56:c5:95:b2:0e:25:8a:e7:72:
                    17:27:45:7f:d9:74:3d:0f:0e:e3:3e:c7:ba:c0:3d:
                    84:b9:d6:63:03:17:bd:c7:5d:08:01:94:db:c4:ab:
                    24:e5:90:e6:82:12:46:c5:b0:51:18:b8:e2:4e:8e:
                    66:6f:4e:61:9b:d9:f6:f0:c9:65:99:a5:42:7d:56:
                    c7:22:ab:a6:3c:d1:ac:b0:9f:2f:05:03:f9:fc:7a:
                    81:e5:8c:1d:b0:28:b7:41:3e:8a:3f:95:22:d1:ee:
                    21:de:76:4f:69:42:f9:c5:72:11:37:93:c8:51:0b:
                    c2:e9:86:a5:4e:e9:20:3c:71:e9:f9:02:e0:54:21:
                    fa:f0:50:d8:34:ad:62:aa:fe:b2:b1:fa:93:35:99:
                    27:e5:ad:52:6e:2b:52:27:e9:34:d7:3b:85:74:90:
                    64:a9:e6:0c:19:b1:86:42:20:e9:95:43:0c:81:70:
                    88:88:30:a3:0a:c4:40:c6:c0:fc:80:b9:61:32:f4:
                    96:9a:42:15:e3:9a:be:2a:83:89:ab:a4:0a:56:f0:
                    4c:8f:a6:ad:21:03:1b:14:63:41:a1:94:93:e5:25:
                    a8:0e:de:29:39:ab:f3:b9:ab:95:f3:cd:24:20:f1:
                    17:05:3a:34:d5:85:8c:23:f7:72:11:5e:66:eb:b8:
                    24:ce:38:4f:6d:25:d1:6e:90:aa:e3:1d:34:c1:da:
                    5c:27:da:39:f0:f2:04:fe:55:1e:f9:f6:36:32:06:
                    6b:74:fb:d3:31:39:2e:de:fa:d5:91:e7:b3:4d:a7:
                    c0:1e:54:fb:3c:65:37:b8:22:70:81:7c:c3:04:cf:
                    ef:01:f2:17:e1:29:d1:de:ca:bc:0c:20:bf:37:62:
                    8f:02:84:eb:29:92:34:cf:22:92:67:74:b3:f1:de:
                    90:50:aa:d4:93:bb:39:cd:0c:6c:05:6c:89:94:0c:
                    41:d4:c6:94:ad:6c:5d:1d:d1:13:44:02:6a:b6:d7:
                    e7:ac:dc:4a:04:15:1e:a8:67:3d:55:bf:96:09:84:
                    40:44:a1:9f:f0:5f:a8:29:fa:cd:3d:52:05:a6:f1:
                    95:1d:76:fb:b8:2a:ba:d6:51:46:ab:5c:a6:f2:b6:
                    61:01:5c:66:d7:2f:6c:51:34:cc:d4:c0:a6:45:12:
                    77:2f:87:97:60:ae:80:31:14:69:93:58:5e:20:59:
                    6d:a6:ec:57:4e:b0:a9:8e:3a:91:88:e5:e3:ef:87:
                    98:78:69:fc:d1:e7:12:b7:4e:dc:17:b2:59:66:d4:
                    0a:b2:5d:5b:4c:4c:f3:ac:21:c5:78:f8:f0:50:29:
                    f0:ff:a3:21:60:e3:ae:82:0f:67:b1:b1:f4:f8:b8:
                    e9:2e:0d
                Exponent: 65537 (0x10001)
        X509v3 extensions:
            X509v3 Basic Constraints: 
                CA:FALSE
            Netscape Comment: 
                OpenSSL Generated Certificate
            X509v3 Subject Key Identifier: 
                51:29:3B:3A:42:D8:E0:6F:A1:06:B5:DC:8C:44:3D:13:05:9D:2B:18
            X509v3 Authority Key Identifier: 
                keyid:9F:58:91:86:01:9B:57:8E:1B:50:9D:4B:62:C0:08:CB:2D:B3:16:38

    Signature Algorithm: sha256WithRSAEncryption
         a7:27:1f:17:3e:57:b4:66:7b:36:0d:8d:a6:7c:0b:ed:60:b0:
         b2:a8:56:c0:b7:ba:14:8b:09:8c:68:50:da:09:0f:b8:de:06:
         4d:9a:53:a9:e0:2b:36:53:33:c4:09:b9:a7:81:72:fe:e2:c4:
         40:47:4c:f9:65:fc:ad:24:39:ca:17:4e:5a:30:be:8e:55:f1:
         1e:db:82:a3:8f:5a:60:eb:de:65:40:a7:36:6a:dc:01:2c:d8:
         dd:77:66:09:68:ac:e0:1a:4a:b8:61:2f:53:d5:02:e2:77:92:
         8c:30:2c:a8:33:d8:9e:de:fe:9d:5a:da:4c:04:6e:d3:ea:36:
         fa:e2:7e:c1:0f:bb:b5:28:a4:66:d1:17:e0:7f:3f:81:c9:6d:
         40:f2:17:5c:68:97:c8:c1:b9:d3:55:35:2c:88:99:c6:f5:09:
         cd:2b:e2:c5:bb:36:a8:33:c4:02:62:b0:ba:fe:ec:28:17:83:
         b0:56:34:3d:0a:6b:84:f8:74:6f:14:23:9e:35:8c:ed:77:c7:
         ae:66:53:14:b8:4d:c7:b0:f5:ad:b7:1e:e2:de:5b:4f:b5:d5:
         a4:f2:23:01:27:1c:7a:ef:ef:02:1f:bd:01:c0:b6:d2:68:6c:
         79:ed:f5:18:9c:e6:b4:60:6e:71:3c:8c:69:a6:28:b9:1d:b8:
         64:47:f7:d2:e5:c4:73:dd:6f:d1:83:99:f1:12:51:4a:30:1f:
         2c:6c:24:71:6f:f3:6c:a7:9c:e2:74:9f:0a:55:09:db:b4:8e:
         84:de:06:a7:82:b8:09:61:8e:21:21:52:28:d4:ec:a6:c2:d6:
         1a:a6:da:d8:c2:a1:50:55:a4:13:30:f2:46:78:24:28:aa:1a:
         60:59:ac:a0:da:12:03:09:55:59:19:84:ab:67:ef:88:71:8b:
         bd:11:aa:d8:9e:a0:eb:72:4c:99:a7:39:3d:a3:60:c6:3d:72:
         12:69:87:94:49:14:62:b0:7a:76:34:59:7c:44:7c:b8:78:9f:
         23:74:1a:3c:9d:0c:74:ff:6b:c6:30:6a:c9:bc:08:4f:42:f2:
         d3:d8:28:78:4a:38:a6:1c:c3:14:72:87:f2:d7:5d:03:5c:06:
         fd:f6:73:fa:a5:22:b8:58:19:12:5f:4f:52:75:91:47:8c:9a:
         9e:a5:d6:b1:6d:12:9d:1a:4e:44:b3:23:95:d2:78:86:2e:99:
         33:6f:5e:22:57:1b:18:d1:cd:69:a6:28:64:27:ba:88:a3:31:
         43:af:10:21:e1:b1:d1:52:61:ac:3a:40:4d:f6:96:e3:a9:9e:
         11:08:ba:19:68:73:4b:76:02:77:d7:74:c6:2a:d8:06:db:1e:
         5e:05:ae:cd:5a:1d:85:89
-----BEGIN CERTIFICATE-----
MIIFSjCCAzKgAwIBAgIEEAAArTANBgkqhkiG9w0BAQsFADAnMSUwIwYDVQQDDBxT
UksyX3NoYTI1Nl80MDk2XzY1NTM3X3YzX2NhMB4XDTE4MDMwNzE1MTc0NVoXDTI4
MDMwNDE1MTc0NVowKjEoMCYGA1UEAwwfSU1HMl8xX3NoYTI1Nl80MDk2XzY1NTM3
X3YzX3VzcjCCAiIwDQYJKoZIhvcNAQEBBQADggIPADCCAgoCggIBAPK66xeJVsWV
sg4liudyFydFf9l0PQ8O4z7HusA9hLnWYwMXvcddCAGU28SrJOWQ5oISRsWwURi4
4k6OZm9OYZvZ9vDJZZmlQn1WxyKrpjzRrLCfLwUD+fx6geWMHbAot0E+ij+VItHu
Id52T2lC+cVyETeTyFELwumGpU7pIDxx6fkC4FQh+vBQ2DStYqr+srH6kzWZJ+Wt
Um4rUifpNNc7hXSQZKnmDBmxhkIg6ZVDDIFwiIgwowrEQMbA/IC5YTL0lppCFeOa
viqDiaukClbwTI+mrSEDGxRjQaGUk+UlqA7eKTmr87mrlfPNJCDxFwU6NNWFjCP3
chFeZuu4JM44T20l0W6QquMdNMHaXCfaOfDyBP5VHvn2NjIGa3T70zE5Lt761ZHn
s02nwB5U+zxlN7gicIF8wwTP7wHyF+Ep0d7KvAwgvzdijwKE6ymSNM8ikmd0s/He
kFCq1JO7Oc0MbAVsiZQMQdTGlK1sXR3RE0QCarbX56zcSgQVHqhnPVW/lgmEQESh
n/BfqCn6zT1SBabxlR12+7gqutZRRqtcpvK2YQFcZtcvbFE0zNTApkUSdy+Hl2Cu
gDEUaZNYXiBZbabsV06wqY46kYjl4++HmHhp/NHnErdO3BeyWWbUCrJdW0xM86wh
xXj48FAp8P+jIWDjroIPZ7Gx9Pi46S4NAgMBAAGjezB5MAkGA1UdEwQCMAAwLAYJ
YIZIAYb4QgENBB8WHU9wZW5TU0wgR2VuZXJhdGVkIENlcnRpZmljYXRlMB0GA1Ud
DgQWBBRRKTs6Qtjgb6EGtdyMRD0TBZ0rGDAfBgNVHSMEGDAWgBSfWJGGAZtXjhtQ
nUtiwAjLLbMWODANBgkqhkiG9w0BAQsFAAOCAgEApycfFz5XtGZ7Ng2NpnwL7WCw
sqhWwLe6FIsJjGhQ2gkPuN4GTZpTqeArNlMzxAm5p4Fy/uLEQEdM+WX8rSQ5yhdO
WjC+jlXxHtuCo49aYOveZUCnNmrcASzY3XdmCWis4BpKuGEvU9UC4neSjDAsqDPY
nt7+nVraTARu0+o2+uJ+wQ+7tSikZtEX4H8/gcltQPIXXGiXyMG501U1LIiZxvUJ
zSvixbs2qDPEAmKwuv7sKBeDsFY0PQprhPh0bxQjnjWM7XfHrmZTFLhNx7D1rbce
4t5bT7XVpPIjAScceu/vAh+9AcC20mhsee31GJzmtGBucTyMaaYouR24ZEf30uXE
c91v0YOZ8RJRSjAfLGwkcW/zbKec4nSfClUJ27SOhN4Gp4K4CWGOISFSKNTspsLW
Gqba2MKhUFWkEzDyRngkKKoaYFmsoNoSAwlVWRmEq2fviHGLvRGq2J6g63JMmac5
PaNgxj1yEmmHlEkUYrB6djRZfER8uHifI3QaPJ0MdP9rxjBqybwIT0Ly09goeEo4
phzDFHKH8tddA1wG/fZz+qUiuFgZEl9PUnWRR4yanqXWsW0SnRpORLMjldJ4hi6Z
M29eIlcbGNHNaaYoZCe6iKMxQ68QIeGx0VJhrDpATfaW46meEQi6GWhzS3YCd9d0
xirYBtseXgWuzVodhYk=
-----END CERTIFICATE-----
