Certificate:
    Data:
        Version: 3 (0x2)
        Serial Number: 268435617 (0x100000a1)
    Signature Algorithm: sha256WithRSAEncryption
        Issuer: CN=SRK2_sha256_2048_65537_v3_ca
        Validity
            Not Before: Mar  7 15:17:40 2018 GMT
            Not After : Mar  4 15:17:40 2028 GMT
        Subject: CN=IMG2_1_sha256_2048_65537_v3_usr
        Subject Public Key Info:
            Public Key Algorithm: rsaEncryption
                Public-Key: (2048 bit)
                Modulus:
                    00:df:f0:1d:da:2d:aa:47:6c:29:eb:10:72:1b:51:
                    61:57:7c:59:be:83:d0:00:a5:e9:ab:1f:9b:bf:05:
                    3c:39:e9:e3:2f:b8:96:b4:bd:fe:aa:5f:00:a5:bb:
                    c5:a4:51:7c:45:58:49:36:d2:8e:5c:82:f9:2c:df:
                    77:e2:18:9c:2b:4c:a7:a1:5c:50:12:72:66:9d:05:
                    dc:43:1a:16:ed:ca:c3:26:2f:fd:5b:79:1e:55:1a:
                    23:0a:58:b1:99:ed:92:e4:fd:ff:13:1b:fc:09:37:
                    4d:d7:82:d8:8c:42:a3:c2:ab:a6:4a:41:a3:4e:3d:
                    05:97:c0:d0:26:41:6c:94:eb:31:91:16:cb:e8:d3:
                    05:57:0c:7a:cd:bc:04:d6:70:ba:aa:6a:44:2a:b7:
                    a3:4b:72:74:95:49:fb:df:a0:04:4b:92:07:78:20:
                    c4:9a:db:be:10:47:9e:f3:6a:2a:bf:8e:d2:e7:88:
                    81:ee:1d:a2:99:90:17:50:dc:6f:8b:03:aa:cb:7a:
                    9d:82:4f:50:5e:c2:a0:3c:d7:fd:a6:1d:48:b7:58:
                    70:bd:92:50:56:88:9e:7c:6f:3e:55:01:6d:f8:48:
                    ab:2a:a0:7f:8e:81:92:c8:2c:7b:46:bf:b5:88:23:
                    4c:d2:51:3e:80:ac:6f:71:1c:27:c0:ba:bd:da:03:
                    6e:79
                Exponent: 65537 (0x10001)
        X509v3 extensions:
            X509v3 Basic Constraints: 
                CA:FALSE
            Netscape Comment: 
                OpenSSL Generated Certificate
            X509v3 Subject Key Identifier: 
                12:C6:96:B9:2F:15:17:87:C4:B9:B9:11:72:A3:FE:01:79:25:D3:EB
            X509v3 Authority Key Identifier: 
                keyid:95:4B:5E:E6:84:4D:42:7D:3F:74:44:E6:03:3E:FA:03:12:11:2C:19

    Signature Algorithm: sha256WithRSAEncryption
         83:b5:af:f8:f4:35:76:0f:ea:0a:60:ba:bc:3d:7c:17:04:41:
         1f:91:3f:d4:9a:ec:d2:93:51:47:64:5d:a7:80:c9:07:76:16:
         6d:55:d9:06:ec:5d:84:ca:d2:72:3d:59:65:76:0a:da:09:84:
         df:16:f2:9b:d7:c7:dc:81:3a:9e:52:34:3f:67:1e:f6:3b:44:
         96:a7:0f:1e:55:4f:ec:78:f6:86:eb:d2:30:ba:b2:94:b8:66:
         c7:cc:f8:b0:e5:8b:13:5a:e6:ab:52:39:8d:f2:16:60:08:16:
         01:ce:06:3e:aa:cc:9a:13:5f:30:a4:11:8e:a6:19:ec:dd:0d:
         c0:ff:46:a7:ea:f4:87:94:a7:d1:09:26:f1:76:87:c0:74:b7:
         4d:e0:ee:56:b0:1d:e4:b3:11:4a:b7:06:35:ac:5c:00:e0:b8:
         dc:20:98:59:62:0b:3e:44:7d:6d:6d:61:c5:1d:9e:f1:01:db:
         16:cd:7e:c3:70:74:08:cd:05:b9:84:d9:ec:14:73:7e:0e:f6:
         ef:c1:b8:5b:cd:fa:44:8f:02:06:d9:3e:00:eb:88:3c:b5:1c:
         ea:21:36:9e:14:cc:30:d2:bd:d1:61:20:a1:b5:d1:7e:4c:20:
         f8:39:8d:01:7e:57:6d:79:60:49:8d:5d:8b:68:5c:83:02:b0:
         49:0a:c0:63
-----BEGIN CERTIFICATE-----
MIIDSjCCAjKgAwIBAgIEEAAAoTANBgkqhkiG9w0BAQsFADAnMSUwIwYDVQQDDBxT
UksyX3NoYTI1Nl8yMDQ4XzY1NTM3X3YzX2NhMB4XDTE4MDMwNzE1MTc0MFoXDTI4
MDMwNDE1MTc0MFowKjEoMCYGA1UEAwwfSU1HMl8xX3NoYTI1Nl8yMDQ4XzY1NTM3
X3YzX3VzcjCCASIwDQYJKoZIhvcNAQEBBQADggEPADCCAQoCggEBAN/wHdotqkds
KesQchtRYVd8Wb6D0ACl6asfm78FPDnp4y+4lrS9/qpfAKW7xaRRfEVYSTbSjlyC
+Szfd+IYnCtMp6FcUBJyZp0F3EMaFu3KwyYv/Vt5HlUaIwpYsZntkuT9/xMb/Ak3
TdeC2IxCo8KrpkpBo049BZfA0CZBbJTrMZEWy+jTBVcMes28BNZwuqpqRCq3o0ty
dJVJ+9+gBEuSB3ggxJrbvhBHnvNqKr+O0ueIge4dopmQF1Dcb4sDqst6nYJPUF7C
oDzX/aYdSLdYcL2SUFaInnxvPlUBbfhIqyqgf46Bksgse0a/tYgjTNJRPoCsb3Ec
J8C6vdoDbnkCAwEAAaN7MHkwCQYDVR0TBAIwADAsBglghkgBhvhCAQ0EHxYdT3Bl
blNTTCBHZW5lcmF0ZWQgQ2VydGlmaWNhdGUwHQYDVR0OBBYEFBLGlrkvFReHxLm5
EXKj/gF5JdPrMB8GA1UdIwQYMBaAFJVLXuaETUJ9P3RE5gM++gMSESwZMA0GCSqG
SIb3DQEBCwUAA4IBAQCDta/49DV2D+oKYLq8PXwXBEEfkT/UmuzSk1FHZF2ngMkH
dhZtVdkG7F2EytJyPVlldgraCYTfFvKb18fcgTqeUjQ/Zx72O0SWpw8eVU/sePaG
69IwurKUuGbHzPiw5YsTWuarUjmN8hZgCBYBzgY+qsyaE18wpBGOphns3Q3A/0an
6vSHlKfRCSbxdofAdLdN4O5WsB3ksxFKtwY1rFwA4LjcIJhZYgs+RH1tbWHFHZ7x
AdsWzX7DcHQIzQW5hNnsFHN+DvbvwbhbzfpEjwIG2T4A64g8tRzqITaeFMww0r3R
YSChtdF+TCD4OY0BfldteWBJjV2LaFyDArBJCsBj
-----END CERTIFICATE-----
