Certificate:
    Data:
        Version: 3 (0x2)
        Serial Number: 268435620 (0x100000a4)
    Signature Algorithm: sha256WithRSAEncryption
        Issuer: CN=SRK3_sha256_2048_65537_v3_ca
        Validity
            Not Before: Mar  7 15:17:40 2018 GMT
            Not After : Mar  4 15:17:40 2028 GMT
        Subject: CN=IMG3_1_sha256_2048_65537_v3_usr
        Subject Public Key Info:
            Public Key Algorithm: rsaEncryption
                Public-Key: (2048 bit)
                Modulus:
                    00:b4:7d:33:56:e6:da:88:5f:03:b8:44:37:3d:99:
                    57:07:2c:d5:75:9c:a3:c6:e7:35:1c:25:ed:e2:bf:
                    de:7c:34:47:60:50:bd:4f:76:83:7f:4c:6d:82:42:
                    55:43:36:60:d0:98:f3:9b:5a:2b:b3:2d:1f:1a:13:
                    0a:b5:0b:7e:8c:ae:52:f3:51:d5:aa:e5:d1:bf:d9:
                    12:4c:ef:7e:e1:74:70:00:8c:31:02:f4:35:43:de:
                    d3:a7:d9:e2:93:84:e5:5b:0d:8b:18:a2:23:63:c7:
                    94:5b:27:be:29:fa:99:19:28:b6:2b:44:e8:5d:6e:
                    0d:9f:a9:2a:1d:8a:30:3d:4b:95:f4:78:a9:f0:b4:
                    a6:9d:54:fb:62:59:2f:19:2c:cf:1a:9f:43:79:6b:
                    d2:a3:ed:36:41:36:d5:3b:85:3e:ff:49:88:28:27:
                    53:03:25:e8:a4:58:2c:3a:e9:14:81:40:2b:87:d6:
                    25:a7:4a:73:db:37:e5:69:8b:db:3d:af:b8:cb:68:
                    32:e8:bf:b5:ea:7d:58:11:2e:70:d3:3e:d7:ae:31:
                    9e:49:24:c7:70:ea:7d:32:5c:fb:3d:d8:07:4b:e5:
                    26:72:4b:ac:32:c2:a9:e4:8b:6c:2a:34:69:15:53:
                    9a:35:86:c0:94:6e:63:ff:41:64:14:8f:95:ab:c9:
                    70:93
                Exponent: 65537 (0x10001)
        X509v3 extensions:
            X509v3 Basic Constraints: 
                CA:FALSE
            Netscape Comment: 
                OpenSSL Generated Certificate
            X509v3 Subject Key Identifier: 
                D0:3E:6C:7C:3F:7F:E5:22:24:EB:DD:26:C6:F1:D7:90:3C:C3:D3:4B
            X509v3 Authority Key Identifier: 
                keyid:EF:94:CF:46:05:20:E2:A2:49:0A:D8:C2:0D:23:40:00:C7:A9:50:54

    Signature Algorithm: sha256WithRSAEncryption
         9b:4c:3e:e3:fb:21:7a:3e:93:0e:8a:4e:33:f0:e9:eb:b3:bb:
         b5:06:48:2a:63:c4:66:26:a0:46:65:87:0c:b2:86:c5:7e:3e:
         2a:da:13:a6:21:fb:ed:e1:2b:06:38:93:b2:e1:8f:88:ee:f9:
         5d:c8:bf:e6:53:a5:13:e0:88:12:68:1e:5e:2d:f1:4e:6d:da:
         8a:c0:c3:8d:78:a0:c2:f3:a7:7d:ae:e5:2c:12:11:2f:6d:43:
         28:ca:d2:f4:8b:7e:76:5b:41:89:c6:cf:5b:45:14:07:cc:5b:
         84:e8:61:6e:14:49:9c:c5:a1:06:e1:a4:c1:79:4c:ef:ce:24:
         47:a5:32:38:34:10:d0:14:e7:78:3a:81:3f:f1:7a:fa:ed:f6:
         e0:91:f6:2f:f0:f2:fe:01:41:de:1e:40:3e:92:4c:d0:aa:57:
         58:69:56:e0:a5:87:c0:9b:e0:85:d8:90:3f:00:2c:1a:ba:f7:
         43:15:b7:41:0c:39:83:09:ea:aa:f2:7a:ff:c2:49:f0:05:98:
         cf:8b:bd:f1:54:b8:3f:79:1b:da:d1:15:d2:79:09:f3:5a:fb:
         83:f6:d3:36:87:06:d8:5f:1d:29:5b:c7:44:52:b5:c1:78:a8:
         1b:74:3a:6a:d1:48:d8:0b:d9:6f:2b:63:7f:28:28:c0:3a:77:
         81:09:a8:27
-----BEGIN CERTIFICATE-----
MIIDSjCCAjKgAwIBAgIEEAAApDANBgkqhkiG9w0BAQsFADAnMSUwIwYDVQQDDBxT
UkszX3NoYTI1Nl8yMDQ4XzY1NTM3X3YzX2NhMB4XDTE4MDMwNzE1MTc0MFoXDTI4
MDMwNDE1MTc0MFowKjEoMCYGA1UEAwwfSU1HM18xX3NoYTI1Nl8yMDQ4XzY1NTM3
X3YzX3VzcjCCASIwDQYJKoZIhvcNAQEBBQADggEPADCCAQoCggEBALR9M1bm2ohf
A7hENz2ZVwcs1XWco8bnNRwl7eK/3nw0R2BQvU92g39MbYJCVUM2YNCY85taK7Mt
HxoTCrULfoyuUvNR1arl0b/ZEkzvfuF0cACMMQL0NUPe06fZ4pOE5VsNixiiI2PH
lFsnvin6mRkotitE6F1uDZ+pKh2KMD1LlfR4qfC0pp1U+2JZLxkszxqfQ3lr0qPt
NkE21TuFPv9JiCgnUwMl6KRYLDrpFIFAK4fWJadKc9s35WmL2z2vuMtoMui/tep9
WBEucNM+164xnkkkx3DqfTJc+z3YB0vlJnJLrDLCqeSLbCo0aRVTmjWGwJRuY/9B
ZBSPlavJcJMCAwEAAaN7MHkwCQYDVR0TBAIwADAsBglghkgBhvhCAQ0EHxYdT3Bl
blNTTCBHZW5lcmF0ZWQgQ2VydGlmaWNhdGUwHQYDVR0OBBYEFNA+bHw/f+UiJOvd
Jsbx15A8w9NLMB8GA1UdIwQYMBaAFO+Uz0YFIOKiSQrYwg0jQADHqVBUMA0GCSqG
SIb3DQEBCwUAA4IBAQCbTD7j+yF6PpMOik4z8Onrs7u1BkgqY8RmJqBGZYcMsobF
fj4q2hOmIfvt4SsGOJOy4Y+I7vldyL/mU6UT4IgSaB5eLfFObdqKwMONeKDC86d9
ruUsEhEvbUMoytL0i352W0GJxs9bRRQHzFuE6GFuFEmcxaEG4aTBeUzvziRHpTI4
NBDQFOd4OoE/8Xr67fbgkfYv8PL+AUHeHkA+kkzQqldYaVbgpYfAm+CF2JA/ACwa
uvdDFbdBDDmDCeqq8nr/wknwBZjPi73xVLg/eRva0RXSeQnzWvuD9tM2hwbYXx0p
W8dEUrXBeKgbdDpq0UjYC9lvK2N/KCjAOneBCagn
-----END CERTIFICATE-----
