Certificate:
    Data:
        Version: 3 (0x2)
        Serial Number: 268435611 (0x1000009b)
    Signature Algorithm: sha256WithRSAEncryption
        Issuer: CN=SRK4_sha256_1024_65537_v3_ca
        Validity
            Not Before: Mar  7 15:17:39 2018 GMT
            Not After : Mar  4 15:17:39 2028 GMT
        Subject: CN=IMG4_1_sha256_1024_65537_v3_usr
        Subject Public Key Info:
            Public Key Algorithm: rsaEncryption
                Public-Key: (1024 bit)
                Modulus:
                    00:b1:f8:01:24:bb:b1:64:bb:4e:47:a9:40:24:10:
                    8c:b9:62:be:d5:7b:24:fa:50:63:f5:f1:92:d1:55:
                    c5:78:69:4e:7e:76:ee:1e:ac:b1:e7:f8:0a:3e:de:
                    b5:67:55:d3:7d:16:49:c4:e7:62:e8:10:de:81:49:
                    1a:42:19:af:10:59:7f:63:5b:dc:5f:ef:a4:0d:7a:
                    0e:95:84:8a:a6:50:dc:78:d5:c7:65:12:82:35:1d:
                    99:a4:0f:5a:fc:fd:d6:32:9c:bc:d1:18:fd:ff:31:
                    91:09:b0:57:39:38:d0:77:4b:8c:cb:6a:1e:e3:fb:
                    1e:ec:f5:66:4d:cf:26:cf:f5
                Exponent: 65537 (0x10001)
        X509v3 extensions:
            X509v3 Basic Constraints: 
                CA:FALSE
            Netscape Comment: 
                OpenSSL Generated Certificate
            X509v3 Subject Key Identifier: 
                00:B9:23:D9:B5:89:D4:6E:08:10:E4:37:0E:3E:1D:6E:16:C0:18:39
            X509v3 Authority Key Identifier: 
                keyid:27:78:77:BB:9F:57:CC:C0:39:ED:68:BF:AA:9A:BD:7D:48:BA:9F:E8

    Signature Algorithm: sha256WithRSAEncryption
         6b:c1:d9:80:4e:7f:35:25:23:b5:74:d5:4a:a5:d1:f7:72:29:
         36:96:55:7f:96:bd:a6:cb:87:86:b6:00:62:61:4f:aa:87:d0:
         ec:79:bd:3c:8c:e7:c2:20:d8:3c:59:be:83:4b:97:05:a7:1d:
         95:89:86:08:d1:69:ea:a8:a3:fb:2f:1c:c7:38:4f:4b:6c:96:
         ed:bd:f6:a1:c7:f5:38:69:c0:4e:ab:bd:8f:ac:e5:f0:1f:4c:
         84:e8:84:55:55:cd:fc:84:0a:d1:20:88:2c:98:be:89:d7:11:
         65:88:ad:7c:09:d8:45:04:d0:fb:c5:f4:57:ff:a5:61:cd:4c:
         75:03
-----BEGIN CERTIFICATE-----
MIICRTCCAa6gAwIBAgIEEAAAmzANBgkqhkiG9w0BAQsFADAnMSUwIwYDVQQDDBxT
Uks0X3NoYTI1Nl8xMDI0XzY1NTM3X3YzX2NhMB4XDTE4MDMwNzE1MTczOVoXDTI4
MDMwNDE1MTczOVowKjEoMCYGA1UEAwwfSU1HNF8xX3NoYTI1Nl8xMDI0XzY1NTM3
X3YzX3VzcjCBnzANBgkqhkiG9w0BAQEFAAOBjQAwgYkCgYEAsfgBJLuxZLtOR6lA
JBCMuWK+1Xsk+lBj9fGS0VXFeGlOfnbuHqyx5/gKPt61Z1XTfRZJxOdi6BDegUka
QhmvEFl/Y1vcX++kDXoOlYSKplDceNXHZRKCNR2ZpA9a/P3WMpy80Rj9/zGRCbBX
OTjQd0uMy2oe4/se7PVmTc8mz/UCAwEAAaN7MHkwCQYDVR0TBAIwADAsBglghkgB
hvhCAQ0EHxYdT3BlblNTTCBHZW5lcmF0ZWQgQ2VydGlmaWNhdGUwHQYDVR0OBBYE
FAC5I9m1idRuCBDkNw4+HW4WwBg5MB8GA1UdIwQYMBaAFCd4d7ufV8zAOe1ov6qa
vX1Iup/oMA0GCSqGSIb3DQEBCwUAA4GBAGvB2YBOfzUlI7V01Uql0fdyKTaWVX+W
vabLh4a2AGJhT6qH0Ox5vTyM58Ig2DxZvoNLlwWnHZWJhgjRaeqoo/svHMc4T0ts
lu299qHH9ThpwE6rvY+s5fAfTITohFVVzfyECtEgiCyYvonXEWWIrXwJ2EUE0PvF
9Ff/pWHNTHUD
-----END CERTIFICATE-----
