Certificate:
    Data:
        Version: 3 (0x2)
        Serial Number: 268435603 (0x10000093)
    Signature Algorithm: sha256WithRSAEncryption
        Issuer: CN=CA1_sha256_1024_65537_v3_ca
        Validity
            Not Before: Mar  7 15:17:38 2018 GMT
            Not After : Mar  4 15:17:38 2028 GMT
        Subject: CN=SRK2_sha256_1024_65537_v3_ca
        Subject Public Key Info:
            Public Key Algorithm: rsaEncryption
                Public-Key: (1024 bit)
                Modulus:
                    00:b0:a6:8c:04:93:09:a1:34:63:27:e4:26:b6:bb:
                    e8:1e:28:a8:07:4d:d3:cc:8f:3e:71:7a:75:d1:1e:
                    90:de:b6:d3:09:53:34:3f:96:d0:1c:e7:30:b0:e8:
                    bd:0d:15:bc:af:96:90:12:cd:aa:e9:32:1b:b8:f7:
                    a5:c5:09:ea:f5:c8:21:dd:93:78:22:cd:f0:e8:56:
                    31:8b:18:7f:77:78:7c:3b:90:0e:16:1f:ee:42:7a:
                    6f:fc:b1:12:92:73:9d:fe:35:77:17:66:7f:a6:16:
                    b1:b6:45:57:6b:fd:ef:b0:d2:36:8f:46:3b:df:75:
                    35:33:51:34:54:3f:58:3e:87
                Exponent: 65537 (0x10001)
        X509v3 extensions:
            X509v3 Subject Key Identifier: 
                90:23:CF:25:85:A8:73:41:41:32:0B:E1:35:2B:99:08:50:52:EE:74
            X509v3 Authority Key Identifier: 
                keyid:7F:53:52:60:D4:FB:9A:CB:5A:17:84:AB:D2:A5:1E:57:23:F4:F9:7E
                DirName:/CN=CA1_sha256_1024_65537_v3_ca
                serial:B4:18:7B:AF:A4:8F:68:D1

            X509v3 Basic Constraints: critical
                CA:TRUE
            X509v3 Key Usage: 
                Certificate Sign
    Signature Algorithm: sha256WithRSAEncryption
         94:13:0a:c9:a1:6d:b8:f6:8a:a9:7f:0a:b4:fd:80:2b:53:46:
         3e:8b:6c:91:19:50:e9:93:49:db:cc:65:28:37:ab:8c:77:ff:
         bf:c9:87:95:54:22:e6:13:f7:e8:21:84:69:dd:cb:c2:64:cf:
         7f:79:2f:df:ef:36:bd:e6:04:35:b5:49:88:5d:96:27:9a:8f:
         c6:60:ca:db:35:ac:44:2e:98:ee:ce:db:bc:de:9b:80:21:65:
         17:b0:b7:c6:67:3a:cc:d3:79:bf:4e:fa:0e:87:bd:e6:fe:7f:
         00:54:fd:11:70:d1:01:d5:00:a7:3e:74:0d:e4:83:ef:6c:46:
         ab:8a
-----BEGIN CERTIFICATE-----
MIICXzCCAcigAwIBAgIEEAAAkzANBgkqhkiG9w0BAQsFADAmMSQwIgYDVQQDFBtD
QTFfc2hhMjU2XzEwMjRfNjU1MzdfdjNfY2EwHhcNMTgwMzA3MTUxNzM4WhcNMjgw
MzA0MTUxNzM4WjAnMSUwIwYDVQQDDBxTUksyX3NoYTI1Nl8xMDI0XzY1NTM3X3Yz
X2NhMIGfMA0GCSqGSIb3DQEBAQUAA4GNADCBiQKBgQCwpowEkwmhNGMn5Ca2u+ge
KKgHTdPMjz5xenXRHpDettMJUzQ/ltAc5zCw6L0NFbyvlpASzarpMhu496XFCer1
yCHdk3gizfDoVjGLGH93eHw7kA4WH+5Cem/8sRKSc53+NXcXZn+mFrG2RVdr/e+w
0jaPRjvfdTUzUTRUP1g+hwIDAQABo4GYMIGVMB0GA1UdDgQWBBSQI88lhahzQUEy
C+E1K5kIUFLudDBWBgNVHSMETzBNgBR/U1Jg1Puay1oXhKvSpR5XI/T5fqEqpCgw
JjEkMCIGA1UEAxQbQ0ExX3NoYTI1Nl8xMDI0XzY1NTM3X3YzX2NhggkAtBh7r6SP
aNEwDwYDVR0TAQH/BAUwAwEB/zALBgNVHQ8EBAMCAgQwDQYJKoZIhvcNAQELBQAD
gYEAlBMKyaFtuPaKqX8KtP2AK1NGPotskRlQ6ZNJ28xlKDerjHf/v8mHlVQi5hP3
6CGEad3LwmTPf3kv3+82veYENbVJiF2WJ5qPxmDK2zWsRC6Y7s7bvN6bgCFlF7C3
xmc6zNN5v076Doe95v5/AFT9EXDRAdUApz50DeSD72xGq4o=
-----END CERTIFICATE-----
