Certificate:
    Data:
        Version: 3 (0x2)
        Serial Number: 268435627 (0x100000ab)
    Signature Algorithm: sha256WithRSAEncryption
        Issuer: CN=CA1_sha256_4096_65537_v3_ca
        Validity
            Not Before: Mar  7 15:17:44 2018 GMT
            Not After : Mar  4 15:17:44 2028 GMT
        Subject: CN=SRK2_sha256_4096_65537_v3_ca
        Subject Public Key Info:
            Public Key Algorithm: rsaEncryption
                Public-Key: (4096 bit)
                Modulus:
                    00:c0:0a:49:63:16:69:3a:79:0f:fc:60:6e:5f:f9:
                    90:ef:dd:4e:b3:9f:ec:ac:fb:23:6c:09:8c:e6:9e:
                    71:39:46:bf:5e:c1:75:7e:56:82:8f:33:ba:3d:0c:
                    34:c3:04:96:0c:af:95:53:0b:f1:6a:52:c2:01:fa:
                    71:69:ca:54:e5:f6:93:d5:ff:68:f6:7a:62:40:84:
                    48:1b:39:c2:e1:29:49:ce:49:a8:05:d0:ae:1f:09:
                    a9:87:53:58:ae:27:73:cb:a7:f0:2f:c6:12:dc:47:
                    60:fe:e5:92:5e:57:1c:8e:c8:83:d2:e2:85:d2:1c:
                    71:bd:e9:d9:2e:e1:83:f6:9f:d4:57:97:3e:80:ba:
                    f5:97:42:bf:d0:15:a7:f1:ae:00:04:7e:3a:e6:47:
                    d1:c0:3f:0a:c4:1d:9b:4d:39:7d:aa:1c:61:37:34:
                    07:3a:17:62:82:67:f1:bf:4e:1b:26:61:98:f0:4e:
                    47:df:07:e9:b5:35:f8:92:ef:ad:08:9a:c5:3e:ec:
                    34:2c:27:b3:db:40:7b:cf:11:09:24:0a:7c:ab:8d:
                    6c:27:ad:f5:43:94:87:17:8c:2b:d5:81:54:11:e0:
                    76:66:a9:07:31:11:c9:16:aa:61:10:6c:9f:33:95:
                    83:37:50:33:28:ca:bc:e7:77:98:35:d2:48:b4:43:
                    a7:82:9a:6c:43:33:4c:f6:ff:67:ec:ca:56:1b:bb:
                    81:46:e0:21:1e:83:65:fb:8a:a9:0f:35:b3:5b:5d:
                    12:f5:4a:13:31:6c:69:ff:de:7d:1d:42:27:c1:24:
                    2b:af:75:1b:4f:28:e9:e7:38:32:36:39:84:e8:71:
                    c5:37:d5:13:3a:92:97:c1:4e:8b:b7:07:44:68:8a:
                    02:b4:a4:9a:fc:75:48:11:86:ec:7b:22:5d:b6:9c:
                    84:5f:64:1a:03:fe:5c:2e:f1:ac:ed:bb:7a:38:3c:
                    55:82:e2:ae:05:57:4d:f8:c5:1d:5a:67:c5:43:a7:
                    2a:65:b9:27:84:6b:f6:2c:2f:f3:b4:87:cc:87:3e:
                    a6:6f:a8:23:df:66:d5:51:3b:14:c5:b3:be:59:e2:
                    44:84:02:c2:93:e2:4a:7a:bf:d3:cd:01:77:7f:77:
                    a1:d8:1b:d2:66:52:fe:7c:fe:6b:2d:36:26:85:4d:
                    1a:05:01:af:d7:20:af:41:5f:c4:83:6f:ce:82:fc:
                    3f:a9:f6:f3:58:97:28:79:56:db:8a:7c:59:3b:ea:
                    11:4b:f2:a8:da:e8:19:55:9f:e2:69:9c:3b:25:d8:
                    88:61:6a:49:79:6b:65:15:75:66:61:88:f3:95:9d:
                    49:0a:38:b7:18:96:fd:c6:ce:2a:7e:8f:04:57:49:
                    18:26:f7
                Exponent: 65537 (0x10001)
        X509v3 extensions:
            X509v3 Subject Key Identifier: 
                9F:58:91:86:01:9B:57:8E:1B:50:9D:4B:62:C0:08:CB:2D:B3:16:38
            X509v3 Authority Key Identifier: 
                keyid:15:FC:12:D5:34:E0:8B:3B:EE:68:7C:33:4F:B1:64:71:1A:1A:34:BB
                DirName:/CN=CA1_sha256_4096_65537_v3_ca
                serial:DA:6F:CF:A4:45:78:E7:82

            X509v3 Basic Constraints: critical
                CA:TRUE
            X509v3 Key Usage: 
                Certificate Sign
    Signature Algorithm: sha256WithRSAEncryption
         53:cf:3c:37:5d:32:96:31:95:2a:3f:cd:76:d9:57:7c:94:ba:
         21:4f:4a:1c:ee:4e:99:0e:b3:1c:fb:55:3f:9b:61:05:2e:c5:
         ab:12:e8:7f:82:23:fb:61:12:5c:5b:40:33:49:7c:ff:31:55:
         cc:20:ff:78:cb:52:b1:2e:70:d5:cc:78:9b:f2:26:da:ec:53:
         33:1e:98:2c:2e:00:c5:5a:22:7d:5f:4f:fc:86:86:86:a2:98:
         e0:e4:38:3f:a2:6f:8e:49:f7:98:72:ae:32:bc:bd:39:be:91:
         11:e7:98:82:76:1e:db:d2:63:ff:a6:3b:18:0c:e9:e4:53:b3:
         d9:bc:06:6d:62:1f:bd:6e:07:5d:87:36:8b:e8:27:b8:78:27:
         2a:50:fa:9f:9c:e1:e4:30:6a:d2:62:90:79:5f:3b:00:23:1a:
         97:e9:70:cf:22:da:91:8c:48:58:60:c9:4d:90:ed:b6:20:7c:
         de:ab:8f:88:6b:17:66:0b:05:e5:e6:84:ed:ab:ef:ed:c9:3a:
         db:70:c7:d5:4c:b4:a8:a9:5b:af:b7:cf:e6:09:ee:9a:b0:86:
         30:67:cb:64:53:cc:e7:9b:8d:2e:90:e5:9a:97:98:fe:a3:cf:
         6d:1a:a5:6f:59:a2:f2:b0:3f:ac:70:25:0d:d5:2e:9e:52:45:
         ef:79:f2:5c:7e:cc:63:01:d6:b0:70:1b:54:6a:cc:fb:22:cd:
         13:f9:d2:46:5e:0a:f7:85:de:51:f7:be:5a:c7:88:03:91:99:
         20:85:e0:75:00:46:14:12:2e:ed:d1:87:15:30:28:58:79:61:
         ff:18:74:09:3b:06:a6:3f:09:b7:b1:88:bc:d0:47:26:d2:f6:
         fc:77:c6:88:8f:79:71:39:3f:3f:d7:1d:57:c1:3d:3d:5a:ac:
         66:49:15:ed:5b:e3:40:3b:d6:f6:d8:a6:b1:3f:33:5e:24:67:
         ca:7b:5e:9a:1e:de:55:22:90:71:d3:2b:ea:9b:11:d6:ae:6c:
         f1:11:38:90:91:b1:d5:c3:a0:bd:90:00:d7:5a:3b:dc:84:6c:
         68:02:95:9e:ce:4c:d7:e9:cd:b5:fe:6c:aa:e8:c1:1b:99:70:
         64:11:db:c0:0f:d7:fb:0c:aa:d0:25:4e:67:b2:6a:1f:28:62:
         ed:16:75:5c:87:c5:dc:2a:40:12:14:dd:2c:41:21:92:85:21:
         ed:02:af:73:70:27:cc:82:50:98:2d:36:68:45:69:85:07:af:
         82:4a:7e:41:69:4f:1b:58:23:c5:71:ca:fa:c4:27:cb:85:3c:
         4c:b8:74:d8:2e:b9:d7:f0:c9:66:eb:e9:f6:1d:be:b6:fb:b5:
         b7:f0:dc:70:35:32:94:3e
-----BEGIN CERTIFICATE-----
MIIFZDCCA0ygAwIBAgIEEAAAqzANBgkqhkiG9w0BAQsFADAmMSQwIgYDVQQDFBtD
QTFfc2hhMjU2XzQwOTZfNjU1MzdfdjNfY2EwHhcNMTgwMzA3MTUxNzQ0WhcNMjgw
MzA0MTUxNzQ0WjAnMSUwIwYDVQQDDBxTUksyX3NoYTI1Nl80MDk2XzY1NTM3X3Yz
X2NhMIICIjANBgkqhkiG9w0BAQEFAAOCAg8AMIICCgKCAgEAwApJYxZpOnkP/GBu
X/mQ791Os5/srPsjbAmM5p5xOUa/XsF1flaCjzO6PQw0wwSWDK+VUwvxalLCAfpx
acpU5faT1f9o9npiQIRIGznC4SlJzkmoBdCuHwmph1NYridzy6fwL8YS3Edg/uWS
XlccjsiD0uKF0hxxvenZLuGD9p/UV5c+gLr1l0K/0BWn8a4ABH465kfRwD8KxB2b
TTl9qhxhNzQHOhdigmfxv04bJmGY8E5H3wfptTX4ku+tCJrFPuw0LCez20B7zxEJ
JAp8q41sJ631Q5SHF4wr1YFUEeB2ZqkHMRHJFqphEGyfM5WDN1AzKMq853eYNdJI
tEOngppsQzNM9v9n7MpWG7uBRuAhHoNl+4qpDzWzW10S9UoTMWxp/959HUInwSQr
r3UbTyjp5zgyNjmE6HHFN9UTOpKXwU6LtwdEaIoCtKSa/HVIEYbseyJdtpyEX2Qa
A/5cLvGs7bt6ODxVguKuBVdN+MUdWmfFQ6cqZbknhGv2LC/ztIfMhz6mb6gj32bV
UTsUxbO+WeJEhALCk+JKer/TzQF3f3eh2BvSZlL+fP5rLTYmhU0aBQGv1yCvQV/E
g2/Ogvw/qfbzWJcoeVbbinxZO+oRS/Ko2ugZVZ/iaZw7JdiIYWpJeWtlFXVmYYjz
lZ1JCji3GJb9xs4qfo8EV0kYJvcCAwEAAaOBmDCBlTAdBgNVHQ4EFgQUn1iRhgGb
V44bUJ1LYsAIyy2zFjgwVgYDVR0jBE8wTYAUFfwS1TTgizvuaHwzT7FkcRoaNLuh
KqQoMCYxJDAiBgNVBAMUG0NBMV9zaGEyNTZfNDA5Nl82NTUzN192M19jYYIJANpv
z6RFeOeCMA8GA1UdEwEB/wQFMAMBAf8wCwYDVR0PBAQDAgIEMA0GCSqGSIb3DQEB
CwUAA4ICAQBTzzw3XTKWMZUqP8122Vd8lLohT0oc7k6ZDrMc+1U/m2EFLsWrEuh/
giP7YRJcW0AzSXz/MVXMIP94y1KxLnDVzHib8iba7FMzHpgsLgDFWiJ9X0/8hoaG
opjg5Dg/om+OSfeYcq4yvL05vpER55iCdh7b0mP/pjsYDOnkU7PZvAZtYh+9bgdd
hzaL6Ce4eCcqUPqfnOHkMGrSYpB5XzsAIxqX6XDPItqRjEhYYMlNkO22IHzeq4+I
axdmCwXl5oTtq+/tyTrbcMfVTLSoqVuvt8/mCe6asIYwZ8tkU8znm40ukOWal5j+
o89tGqVvWaLysD+scCUN1S6eUkXvefJcfsxjAdawcBtUasz7Is0T+dJGXgr3hd5R
975ax4gDkZkgheB1AEYUEi7t0YcVMChYeWH/GHQJOwamPwm3sYi80Ecm0vb8d8aI
j3lxOT8/1x1XwT09WqxmSRXtW+NAO9b22KaxPzNeJGfKe16aHt5VIpBx0yvqmxHW
rmzxETiQkbHVw6C9kADXWjvchGxoApWezkzX6c21/myq6MEbmXBkEdvAD9f7DKrQ
JU5nsmofKGLtFnVch8XcKkASFN0sQSGShSHtAq9zcCfMglCYLTZoRWmFB6+CSn5B
aU8bWCPFccr6xCfLhTxMuHTYLrnX8Mlm6+n2Hb62+7W38NxwNTKUPg==
-----END CERTIFICATE-----
