Certificate:
    Data:
        Version: 3 (0x2)
        Serial Number: 268435630 (0x100000ae)
    Signature Algorithm: sha256WithRSAEncryption
        Issuer: CN=CA1_sha256_4096_65537_v3_ca
        Validity
            Not Before: Mar  7 15:17:46 2018 GMT
            Not After : Mar  4 15:17:46 2028 GMT
        Subject: CN=SRK3_sha256_4096_65537_v3_ca
        Subject Public Key Info:
            Public Key Algorithm: rsaEncryption
                Public-Key: (4096 bit)
                Modulus:
                    00:b9:df:f9:c3:5e:4a:bf:48:15:02:e1:e3:ad:ec:
                    de:61:95:b2:c3:08:b5:27:f3:60:dc:6e:8d:d3:a1:
                    15:96:a2:ed:07:93:d7:27:df:03:af:a2:4a:6a:c5:
                    1d:f5:6d:59:06:e8:09:33:06:a1:1f:ce:3b:31:90:
                    e5:5b:ab:cc:85:53:03:5e:3b:0c:78:12:0f:c1:e7:
                    4c:ff:88:dc:c7:73:61:41:5b:54:ac:74:9c:5f:66:
                    3d:63:e9:5e:87:97:43:d3:88:dc:2a:04:c9:62:e3:
                    e0:78:07:6a:7b:cb:22:4c:00:b8:60:00:9d:74:f5:
                    95:3b:ed:a4:8c:6f:8e:78:ab:ec:56:e3:5d:0d:f1:
                    e9:73:39:e6:bc:c8:0f:af:8b:77:53:cf:0e:f1:1d:
                    ed:d5:99:4d:a6:d0:f8:62:a3:1c:09:53:81:a2:7e:
                    68:a9:8e:a6:93:e4:68:ab:08:dd:f2:d6:cf:a4:31:
                    9b:d9:26:dd:10:66:6f:b0:c6:2b:00:f1:38:46:cd:
                    df:f3:2d:fc:75:9a:e0:7a:5e:b7:15:15:1c:73:09:
                    d4:df:b0:58:f9:e7:db:ad:e6:8c:4b:ea:60:05:7e:
                    53:aa:de:4c:90:68:4b:10:a0:15:3c:e5:55:e9:c1:
                    b3:2d:27:b5:84:f9:a5:b0:62:07:3e:09:f3:07:d0:
                    ac:54:44:4b:df:42:7b:9c:f3:66:12:61:1c:4a:6d:
                    0e:ee:92:d2:db:21:a0:a2:f0:18:1c:35:35:b2:c2:
                    8a:cf:24:84:a7:33:81:96:d0:00:63:ca:83:70:7b:
                    be:e3:31:17:4e:25:5a:a6:fb:7b:ed:f6:bd:b4:35:
                    1d:0e:38:d5:29:4e:a6:29:72:7c:5f:b3:cd:dd:5a:
                    7b:c5:8c:a3:91:7b:41:f2:9d:86:d3:04:2d:88:1b:
                    12:e5:c2:74:f0:63:92:cd:b7:13:9d:58:c2:d7:e2:
                    a3:e9:ef:2f:60:13:da:a1:4e:9d:59:bc:d2:86:5e:
                    3f:25:30:cf:7f:9d:ab:68:44:b9:fb:8f:01:e8:77:
                    06:a0:6a:32:ad:3f:97:ba:24:4e:af:55:38:f9:3e:
                    a8:0c:b2:6b:4f:0e:55:6f:cc:b6:c2:6d:f7:80:dd:
                    57:86:9c:71:09:9d:a9:4c:59:16:1e:a6:1b:e9:ba:
                    4f:e9:d2:68:a7:00:f1:8b:2f:ab:ed:b6:83:14:3b:
                    83:22:01:37:c0:54:f9:4a:3c:f5:cc:20:5e:d1:3e:
                    3f:8e:0b:2b:c3:a8:29:c0:d6:d8:54:08:0f:ea:fe:
                    71:8a:aa:7a:8b:c5:01:7a:57:ec:c8:1c:41:28:7d:
                    63:47:2e:fb:fe:0a:d4:2a:4c:c6:c7:e6:6f:46:4e:
                    8f:1e:cd
                Exponent: 65537 (0x10001)
        X509v3 extensions:
            X509v3 Subject Key Identifier: 
                B9:68:16:4F:86:6E:BD:C2:FB:3A:3A:4C:8D:F2:0D:2F:1B:64:C6:C6
            X509v3 Authority Key Identifier: 
                keyid:15:FC:12:D5:34:E0:8B:3B:EE:68:7C:33:4F:B1:64:71:1A:1A:34:BB
                DirName:/CN=CA1_sha256_4096_65537_v3_ca
                serial:DA:6F:CF:A4:45:78:E7:82

            X509v3 Basic Constraints: critical
                CA:TRUE
            X509v3 Key Usage: 
                Certificate Sign
    Signature Algorithm: sha256WithRSAEncryption
         52:0c:b4:f8:d3:22:33:d1:9d:5c:c4:5e:ec:14:65:23:7c:51:
         41:29:b2:f2:63:8f:70:a9:2e:7c:fb:18:4e:0b:38:51:fa:83:
         bf:07:0a:c4:b7:17:f1:d1:12:6b:89:43:f4:a8:d8:25:14:9e:
         a2:2e:b9:88:23:3a:29:82:18:8d:84:57:3b:bf:3c:59:23:89:
         b7:62:be:3d:14:0b:4e:65:8d:3c:27:cc:3b:bd:9b:d4:c9:81:
         4a:ea:f9:55:58:7f:3d:60:a5:02:3c:e7:b2:9a:a8:32:51:40:
         48:27:d3:a5:d0:db:05:d9:b1:ad:06:c1:6b:cb:7c:9a:98:15:
         fe:53:4f:1b:53:af:30:8c:09:13:fa:6d:56:65:f8:77:66:75:
         de:f3:23:37:bb:08:34:2d:e2:15:28:03:49:4d:da:f6:a4:3e:
         4d:00:7c:4e:f1:0b:0a:c1:c0:54:74:74:79:50:95:e9:22:97:
         98:02:ef:5c:f3:4f:eb:5e:2e:b9:25:ae:6f:48:e3:ac:bf:20:
         bc:1c:26:30:d0:cb:29:7a:17:b9:1f:f5:b1:7d:60:f7:c3:b5:
         39:7b:3a:f3:85:05:cb:b8:fd:1b:9f:15:f2:9b:86:fd:70:79:
         c2:11:36:0c:3f:e8:10:10:80:45:81:4b:87:51:e4:ad:2d:ef:
         cf:10:4c:99:ff:ef:60:29:fc:24:8e:97:04:ca:86:46:7a:43:
         68:db:c8:00:7e:4f:dd:da:d6:67:f5:da:b3:89:75:df:52:7a:
         f1:0d:ce:58:06:d1:be:3f:65:29:a4:4b:16:88:64:20:b3:36:
         01:88:79:a4:c1:41:19:62:34:6e:7d:3f:a6:6b:7b:f7:2a:50:
         2f:b0:56:69:ca:ac:8c:f7:ac:4f:fc:f5:46:d4:8b:49:82:c0:
         c9:95:a5:a2:0e:68:8c:41:bf:8e:b3:2d:8f:74:58:65:b5:b6:
         e8:22:87:d9:1b:57:8d:b8:19:2a:e7:77:bc:e1:83:cb:ad:e3:
         a6:0a:d6:2b:04:32:2c:51:da:7d:f5:da:a2:be:64:ce:9a:3d:
         52:8a:8d:55:dc:3b:06:c3:df:46:1e:87:6f:69:69:ad:f7:64:
         5c:2d:bc:fa:e2:f8:03:8c:ef:83:61:a2:c8:5f:4e:e6:69:b6:
         71:9f:89:4e:da:74:c9:58:c4:73:2b:a9:fd:05:59:9c:d3:10:
         42:d4:e0:39:ca:94:b5:43:69:22:72:42:70:2c:fe:58:7c:c4:
         83:09:0e:2e:e5:50:ab:31:d1:ce:ec:ba:af:28:18:63:7a:37:
         16:d8:e4:20:45:da:47:56:ab:1a:c2:a3:8a:55:74:53:b1:f3:
         35:ed:6c:65:ca:ff:47:0e
-----BEGIN CERTIFICATE-----
MIIFZDCCA0ygAwIBAgIEEAAArjANBgkqhkiG9w0BAQsFADAmMSQwIgYDVQQDFBtD
QTFfc2hhMjU2XzQwOTZfNjU1MzdfdjNfY2EwHhcNMTgwMzA3MTUxNzQ2WhcNMjgw
MzA0MTUxNzQ2WjAnMSUwIwYDVQQDDBxTUkszX3NoYTI1Nl80MDk2XzY1NTM3X3Yz
X2NhMIICIjANBgkqhkiG9w0BAQEFAAOCAg8AMIICCgKCAgEAud/5w15Kv0gVAuHj
rezeYZWywwi1J/Ng3G6N06EVlqLtB5PXJ98Dr6JKasUd9W1ZBugJMwahH847MZDl
W6vMhVMDXjsMeBIPwedM/4jcx3NhQVtUrHScX2Y9Y+leh5dD04jcKgTJYuPgeAdq
e8siTAC4YACddPWVO+2kjG+OeKvsVuNdDfHpcznmvMgPr4t3U88O8R3t1ZlNptD4
YqMcCVOBon5oqY6mk+Roqwjd8tbPpDGb2SbdEGZvsMYrAPE4Rs3f8y38dZrgel63
FRUccwnU37BY+efbreaMS+pgBX5Tqt5MkGhLEKAVPOVV6cGzLSe1hPmlsGIHPgnz
B9CsVERL30J7nPNmEmEcSm0O7pLS2yGgovAYHDU1ssKKzySEpzOBltAAY8qDcHu+
4zEXTiVapvt77fa9tDUdDjjVKU6mKXJ8X7PN3Vp7xYyjkXtB8p2G0wQtiBsS5cJ0
8GOSzbcTnVjC1+Kj6e8vYBPaoU6dWbzShl4/JTDPf52raES5+48B6HcGoGoyrT+X
uiROr1U4+T6oDLJrTw5Vb8y2wm33gN1XhpxxCZ2pTFkWHqYb6bpP6dJopwDxiy+r
7baDFDuDIgE3wFT5Sjz1zCBe0T4/jgsrw6gpwNbYVAgP6v5xiqp6i8UBelfsyBxB
KH1jRy77/grUKkzGx+ZvRk6PHs0CAwEAAaOBmDCBlTAdBgNVHQ4EFgQUuWgWT4Zu
vcL7OjpMjfINLxtkxsYwVgYDVR0jBE8wTYAUFfwS1TTgizvuaHwzT7FkcRoaNLuh
KqQoMCYxJDAiBgNVBAMUG0NBMV9zaGEyNTZfNDA5Nl82NTUzN192M19jYYIJANpv
z6RFeOeCMA8GA1UdEwEB/wQFMAMBAf8wCwYDVR0PBAQDAgIEMA0GCSqGSIb3DQEB
CwUAA4ICAQBSDLT40yIz0Z1cxF7sFGUjfFFBKbLyY49wqS58+xhOCzhR+oO/BwrE
txfx0RJriUP0qNglFJ6iLrmIIzopghiNhFc7vzxZI4m3Yr49FAtOZY08J8w7vZvU
yYFK6vlVWH89YKUCPOeymqgyUUBIJ9Ol0NsF2bGtBsFry3yamBX+U08bU68wjAkT
+m1WZfh3ZnXe8yM3uwg0LeIVKANJTdr2pD5NAHxO8QsKwcBUdHR5UJXpIpeYAu9c
80/rXi65Ja5vSOOsvyC8HCYw0Mspehe5H/WxfWD3w7U5ezrzhQXLuP0bnxXym4b9
cHnCETYMP+gQEIBFgUuHUeStLe/PEEyZ/+9gKfwkjpcEyoZGekNo28gAfk/d2tZn
9dqziXXfUnrxDc5YBtG+P2UppEsWiGQgszYBiHmkwUEZYjRufT+ma3v3KlAvsFZp
yqyM96xP/PVG1ItJgsDJlaWiDmiMQb+Osy2PdFhltbboIofZG1eNuBkq53e84YPL
reOmCtYrBDIsUdp99dqivmTOmj1Sio1V3DsGw99GHodvaWmt92RcLbz64vgDjO+D
YaLIX07mabZxn4lO2nTJWMRzK6n9BVmc0xBC1OA5ypS1Q2kickJwLP5YfMSDCQ4u
5VCrMdHO7LqvKBhjejcW2OQgRdpHVqsawqOKVXRTsfM17Wxlyv9HDg==
-----END CERTIFICATE-----
