Certificate:
    Data:
        Version: 3 (0x2)
        Serial Number: 268435621 (0x100000a5)
    Signature Algorithm: sha256WithRSAEncryption
        Issuer: CN=CA1_sha256_2048_65537_v3_ca
        Validity
            Not Before: Mar  7 15:17:41 2018 GMT
            Not After : Mar  4 15:17:41 2028 GMT
        Subject: CN=SRK4_sha256_2048_65537_v3_ca
        Subject Public Key Info:
            Public Key Algorithm: rsaEncryption
                Public-Key: (2048 bit)
                Modulus:
                    00:db:09:02:d7:af:c4:e8:17:ea:c9:90:71:2e:5a:
                    70:69:63:2c:42:14:f4:2b:f7:bc:92:82:18:97:0b:
                    a0:d0:6b:8d:0d:d5:57:fb:3c:01:86:f9:1a:f2:07:
                    53:9d:1f:9d:5c:b1:56:f4:dc:e8:74:8d:53:9c:05:
                    ba:7c:1a:15:12:63:bc:d2:50:a2:24:03:ef:1f:d4:
                    01:6f:2b:dc:46:c3:0a:75:d5:df:04:6b:88:4a:72:
                    20:e4:8d:d9:93:af:27:ca:97:da:8a:9d:e0:91:72:
                    c4:f6:52:16:e7:1b:5a:68:a9:0b:09:da:53:07:c0:
                    f5:97:2e:69:b2:fb:ee:a0:6f:ff:33:01:8f:2d:a3:
                    93:0a:a9:6f:80:d1:b6:05:e1:59:13:dc:45:fc:80:
                    f9:4e:2b:ed:bf:e7:cd:7e:d7:98:10:23:f5:0e:27:
                    db:12:7b:a9:c4:b2:4d:8a:6a:57:0e:9d:ee:a6:75:
                    2c:a4:32:11:62:2f:81:eb:4c:ea:9c:52:7e:bf:93:
                    31:2b:04:54:32:56:4a:e9:bb:65:93:3f:4c:fe:cf:
                    cb:a5:b6:a0:3b:63:08:27:c0:35:fe:67:bd:76:78:
                    7c:b5:60:03:f2:48:68:33:e0:48:4c:ef:71:54:1c:
                    7e:14:72:c4:0a:fd:3c:d6:5c:14:a6:97:a3:7b:9c:
                    5b:65
                Exponent: 65537 (0x10001)
        X509v3 extensions:
            X509v3 Subject Key Identifier: 
                D8:78:C1:EF:70:78:22:55:A5:B7:FC:70:D0:69:D9:1E:74:58:E8:D2
            X509v3 Authority Key Identifier: 
                keyid:60:30:54:59:4B:86:39:A3:CA:CE:E5:B5:DC:D3:51:32:58:88:47:F3
                DirName:/CN=CA1_sha256_2048_65537_v3_ca
                serial:8D:E8:34:F6:CB:57:0C:B5

            X509v3 Basic Constraints: critical
                CA:TRUE
            X509v3 Key Usage: 
                Certificate Sign
    Signature Algorithm: sha256WithRSAEncryption
         1c:65:2e:05:44:31:a8:98:2a:f3:79:73:c7:f6:65:5b:8a:cb:
         e2:34:a8:94:81:e7:a0:bf:63:d0:59:85:8e:5e:1e:74:07:76:
         41:de:69:6a:26:f2:9b:ac:0d:b3:76:dc:35:3d:19:c2:8a:7d:
         0f:a4:6a:f4:ee:40:5c:84:7d:20:9d:23:c6:0c:b9:eb:aa:85:
         ca:d2:15:4a:22:fe:40:12:34:a8:5b:37:2d:ef:02:27:c1:35:
         d0:5f:d9:57:68:f2:bf:b4:f3:2e:ff:c3:18:6b:f7:fe:81:88:
         a2:47:56:67:f8:22:82:17:1b:a7:c3:2d:6a:77:4c:f7:2a:43:
         f4:5a:55:4b:07:34:88:31:ba:d8:32:49:f9:6c:2f:08:ef:c8:
         ea:31:4c:7c:e7:d8:ae:8e:38:62:f8:5a:97:51:74:aa:b2:32:
         2d:24:e6:b0:f0:ab:1d:b6:f0:96:8d:ca:17:18:58:0e:c3:3e:
         a8:e5:0e:b1:0b:bb:50:64:6e:d0:39:8d:5d:b4:c4:ab:88:54:
         50:5a:e5:e5:68:a5:d3:bc:20:16:c4:37:d5:b0:00:d8:71:82:
         b1:23:a0:3e:af:df:6f:13:d6:01:5d:68:e4:22:1d:9c:94:be:
         05:e7:d9:65:87:8f:97:82:7a:c9:93:e5:fa:2d:15:65:83:aa:
         d7:de:af:1f
-----BEGIN CERTIFICATE-----
MIIDZDCCAkygAwIBAgIEEAAApTANBgkqhkiG9w0BAQsFADAmMSQwIgYDVQQDFBtD
QTFfc2hhMjU2XzIwNDhfNjU1MzdfdjNfY2EwHhcNMTgwMzA3MTUxNzQxWhcNMjgw
MzA0MTUxNzQxWjAnMSUwIwYDVQQDDBxTUks0X3NoYTI1Nl8yMDQ4XzY1NTM3X3Yz
X2NhMIIBIjANBgkqhkiG9w0BAQEFAAOCAQ8AMIIBCgKCAQEA2wkC16/E6BfqyZBx
LlpwaWMsQhT0K/e8koIYlwug0GuNDdVX+zwBhvka8gdTnR+dXLFW9NzodI1TnAW6
fBoVEmO80lCiJAPvH9QBbyvcRsMKddXfBGuISnIg5I3Zk68nypfaip3gkXLE9lIW
5xtaaKkLCdpTB8D1ly5psvvuoG//MwGPLaOTCqlvgNG2BeFZE9xF/ID5Tivtv+fN
fteYECP1DifbEnupxLJNimpXDp3upnUspDIRYi+B60zqnFJ+v5MxKwRUMlZK6btl
kz9M/s/LpbagO2MIJ8A1/me9dnh8tWAD8khoM+BITO9xVBx+FHLECv081lwUppej
e5xbZQIDAQABo4GYMIGVMB0GA1UdDgQWBBTYeMHvcHgiVaW3/HDQadkedFjo0jBW
BgNVHSMETzBNgBRgMFRZS4Y5o8rO5bXc01EyWIhH86EqpCgwJjEkMCIGA1UEAxQb
Q0ExX3NoYTI1Nl8yMDQ4XzY1NTM3X3YzX2NhggkAjeg09stXDLUwDwYDVR0TAQH/
BAUwAwEB/zALBgNVHQ8EBAMCAgQwDQYJKoZIhvcNAQELBQADggEBABxlLgVEMaiY
KvN5c8f2ZVuKy+I0qJSB56C/Y9BZhY5eHnQHdkHeaWom8pusDbN23DU9GcKKfQ+k
avTuQFyEfSCdI8YMueuqhcrSFUoi/kASNKhbNy3vAifBNdBf2Vdo8r+08y7/wxhr
9/6BiKJHVmf4IoIXG6fDLWp3TPcqQ/RaVUsHNIgxutgySflsLwjvyOoxTHzn2K6O
OGL4WpdRdKqyMi0k5rDwqx228JaNyhcYWA7DPqjlDrELu1BkbtA5jV20xKuIVFBa
5eVopdO8IBbEN9WwANhxgrEjoD6v328T1gFdaOQiHZyUvgXn2WWHj5eCesmT5fot
FWWDqtferx8=
-----END CERTIFICATE-----
