Certificate:
    Data:
        Version: 3 (0x2)
        Serial Number: 268435493 (0x10000025)
    Signature Algorithm: sha256WithRSAEncryption
        Issuer: CN=SRK1_sha256_1024_65537_v3_ca
        Validity
            Not Before: Mar  7 15:06:24 2018 GMT
            Not After : Mar  4 15:06:24 2028 GMT
        Subject: CN=CSF1_1_sha256_1024_65537_v3_usr
        Subject Public Key Info:
            Public Key Algorithm: rsaEncryption
                Public-Key: (1024 bit)
                Modulus:
                    00:ca:a1:12:41:98:e4:c0:36:44:84:55:b2:49:19:
                    00:ba:e6:80:e8:15:95:01:4d:e5:0c:ea:d0:46:1a:
                    25:04:a2:32:02:7b:fd:a4:98:e7:6a:bd:f0:c7:28:
                    f4:aa:c3:3c:b8:01:47:ad:ad:11:31:c2:24:a3:fd:
                    82:df:52:0d:31:b8:68:34:91:99:b8:f1:d3:91:6d:
                    f1:08:41:e6:19:d6:52:fb:57:84:91:c7:38:fc:79:
                    26:b4:a9:b6:c1:3c:69:13:84:49:21:ac:82:8f:6a:
                    e6:57:84:5a:f8:b6:e2:7d:61:bd:a5:34:9f:6c:89:
                    9f:75:2a:1b:09:d0:f1:ac:87
                Exponent: 65537 (0x10001)
        X509v3 extensions:
            X509v3 Basic Constraints: 
                CA:FALSE
            Netscape Comment: 
                OpenSSL Generated Certificate
            X509v3 Subject Key Identifier: 
                C7:C2:AE:A8:25:3E:20:96:55:62:B5:D1:E2:BD:93:24:8F:22:B1:6F
            X509v3 Authority Key Identifier: 
                keyid:CF:57:50:EE:F2:FD:A2:D8:A3:C9:90:E1:77:B9:25:C8:2A:3A:0A:ED

    Signature Algorithm: sha256WithRSAEncryption
         72:e6:40:02:f5:19:3d:3b:8b:83:26:7f:d2:ea:43:13:96:c0:
         2f:27:52:a8:bf:dc:78:d8:ff:50:b0:82:e3:fc:20:b1:54:15:
         95:46:72:4d:54:bb:c8:d5:0d:96:0a:7c:4d:7f:c7:5e:4d:60:
         c3:1a:92:8a:93:17:7f:ac:05:93:dd:de:21:1b:5b:95:06:c8:
         15:fa:00:ce:55:c3:f2:1c:0b:ed:94:da:95:f4:10:2d:bd:33:
         33:65:be:03:82:a5:c4:94:2e:e4:ed:d0:a1:97:52:8e:b0:7e:
         43:48:ec:71:e0:f0:26:ac:27:fb:27:6e:55:c8:8b:51:d8:0f:
         f3:84
-----BEGIN CERTIFICATE-----
MIICRTCCAa6gAwIBAgIEEAAAJTANBgkqhkiG9w0BAQsFADAnMSUwIwYDVQQDDBxT
UksxX3NoYTI1Nl8xMDI0XzY1NTM3X3YzX2NhMB4XDTE4MDMwNzE1MDYyNFoXDTI4
MDMwNDE1MDYyNFowKjEoMCYGA1UEAwwfQ1NGMV8xX3NoYTI1Nl8xMDI0XzY1NTM3
X3YzX3VzcjCBnzANBgkqhkiG9w0BAQEFAAOBjQAwgYkCgYEAyqESQZjkwDZEhFWy
SRkAuuaA6BWVAU3lDOrQRholBKIyAnv9pJjnar3wxyj0qsM8uAFHra0RMcIko/2C
31INMbhoNJGZuPHTkW3xCEHmGdZS+1eEkcc4/HkmtKm2wTxpE4RJIayCj2rmV4Ra
+LbifWG9pTSfbImfdSobCdDxrIcCAwEAAaN7MHkwCQYDVR0TBAIwADAsBglghkgB
hvhCAQ0EHxYdT3BlblNTTCBHZW5lcmF0ZWQgQ2VydGlmaWNhdGUwHQYDVR0OBBYE
FMfCrqglPiCWVWK10eK9kySPIrFvMB8GA1UdIwQYMBaAFM9XUO7y/aLYo8mQ4Xe5
JcgqOgrtMA0GCSqGSIb3DQEBCwUAA4GBAHLmQAL1GT07i4Mmf9LqQxOWwC8nUqi/
3HjY/1CwguP8ILFUFZVGck1Uu8jVDZYKfE1/x15NYMMakoqTF3+sBZPd3iEbW5UG
yBX6AM5Vw/IcC+2U2pX0EC29MzNlvgOCpcSULuTt0KGXUo6wfkNI7HHg8CasJ/sn
blXIi1HYD/OE
-----END CERTIFICATE-----
