Certificate:
    Data:
        Version: 3 (0x2)
        Serial Number: 268435505 (0x10000031)
    Signature Algorithm: sha256WithRSAEncryption
        Issuer: CN=SRK1_sha256_2048_65537_v3_ca
        Validity
            Not Before: Mar  7 15:06:25 2018 GMT
            Not After : Mar  4 15:06:25 2028 GMT
        Subject: CN=CSF1_1_sha256_2048_65537_v3_usr
        Subject Public Key Info:
            Public Key Algorithm: rsaEncryption
                Public-Key: (2048 bit)
                Modulus:
                    00:ca:ec:bd:2f:41:eb:74:72:04:89:cb:84:ed:22:
                    23:0e:9b:18:da:59:68:99:9a:09:45:1b:7b:fa:46:
                    2a:ae:09:f0:6b:40:b5:a0:fa:53:42:7e:23:55:63:
                    13:7b:19:d0:91:dd:82:c1:8b:61:9e:2d:b1:72:ca:
                    85:ab:40:60:ca:fa:1e:7b:07:4e:b0:84:59:b7:fe:
                    a0:f7:d4:7b:fd:80:0b:09:b5:a6:6b:6e:95:38:2c:
                    7b:51:ae:83:74:05:e7:8f:b0:d0:bb:3d:a7:f8:cf:
                    a5:81:5a:6f:03:4d:89:83:6b:43:c4:71:c0:05:ae:
                    61:b8:fd:5c:17:5e:60:48:1d:32:c1:d4:3c:34:38:
                    15:bf:51:13:37:af:42:14:1c:fe:7f:a0:94:23:85:
                    b1:65:71:a0:c0:4f:c5:bb:bd:66:cf:db:7e:41:fa:
                    d3:3a:1a:cb:04:65:28:79:75:e4:21:32:29:68:cc:
                    87:8a:4c:75:de:a4:9c:d7:59:74:f4:b6:80:f6:64:
                    b8:c7:09:d8:58:69:06:d9:6a:39:cd:4f:ca:be:06:
                    15:d2:5e:cd:0f:d8:ad:ff:db:02:23:e9:2e:63:20:
                    42:fa:e2:77:9e:b4:9a:2d:5c:7e:5a:31:2d:bc:ae:
                    3c:7b:89:b0:73:a1:08:b2:49:f7:5a:b8:ac:b3:c3:
                    08:59
                Exponent: 65537 (0x10001)
        X509v3 extensions:
            X509v3 Basic Constraints: 
                CA:FALSE
            Netscape Comment: 
                OpenSSL Generated Certificate
            X509v3 Subject Key Identifier: 
                32:DA:54:92:81:A6:D3:D0:94:1F:C1:78:B8:6E:45:13:06:1E:C8:4C
            X509v3 Authority Key Identifier: 
                keyid:BC:6B:35:11:5B:AD:9B:8F:35:86:43:87:0E:4D:1F:F7:D8:6D:B4:68

    Signature Algorithm: sha256WithRSAEncryption
         1b:b8:06:7a:73:c3:b2:85:7e:d0:eb:c8:b6:5a:b1:9d:01:49:
         3c:53:67:c5:e1:e8:aa:e1:3b:e5:ce:e9:6d:14:79:99:80:66:
         e9:eb:1b:16:6b:8a:7e:62:71:28:ec:57:d4:4c:34:e0:d5:05:
         be:ca:f5:b7:a2:77:70:1f:e1:c8:e3:e7:d5:00:22:ba:a3:8d:
         15:5c:e2:3c:76:0a:bc:8e:bb:29:52:40:a8:ba:fa:30:09:cb:
         92:06:85:dd:67:5f:07:7c:cf:00:e7:be:92:aa:24:1b:31:b1:
         dc:72:43:61:98:d1:39:b3:c1:23:49:e5:ce:a8:da:1e:fe:e3:
         e9:0d:d0:20:48:ae:07:32:d9:ee:4e:81:1b:59:2d:20:87:3f:
         6e:c9:9b:67:63:ac:4f:79:e3:b9:75:ac:17:e0:10:18:b2:6b:
         80:0d:a6:1a:e3:9d:c8:a9:0f:8b:f5:79:01:58:e6:85:8a:27:
         c6:bb:de:9a:f1:e2:5f:89:c9:6c:17:2d:f5:1d:d8:63:bf:29:
         30:16:63:7b:73:c0:0a:18:e8:b1:cf:1b:87:9a:0a:81:83:82:
         a8:2f:3f:b3:d8:8c:32:a1:a0:5a:c1:60:49:bb:cb:89:c2:35:
         13:1c:3f:fa:80:9e:7b:eb:b8:93:a1:76:bd:6e:dc:5b:d7:ba:
         f6:cd:6f:4f
-----BEGIN CERTIFICATE-----
MIIDSjCCAjKgAwIBAgIEEAAAMTANBgkqhkiG9w0BAQsFADAnMSUwIwYDVQQDDBxT
UksxX3NoYTI1Nl8yMDQ4XzY1NTM3X3YzX2NhMB4XDTE4MDMwNzE1MDYyNVoXDTI4
MDMwNDE1MDYyNVowKjEoMCYGA1UEAwwfQ1NGMV8xX3NoYTI1Nl8yMDQ4XzY1NTM3
X3YzX3VzcjCCASIwDQYJKoZIhvcNAQEBBQADggEPADCCAQoCggEBAMrsvS9B63Ry
BInLhO0iIw6bGNpZaJmaCUUbe/pGKq4J8GtAtaD6U0J+I1VjE3sZ0JHdgsGLYZ4t
sXLKhatAYMr6HnsHTrCEWbf+oPfUe/2ACwm1pmtulTgse1Gug3QF54+w0Ls9p/jP
pYFabwNNiYNrQ8RxwAWuYbj9XBdeYEgdMsHUPDQ4Fb9REzevQhQc/n+glCOFsWVx
oMBPxbu9Zs/bfkH60zoaywRlKHl15CEyKWjMh4pMdd6knNdZdPS2gPZkuMcJ2Fhp
BtlqOc1Pyr4GFdJezQ/Yrf/bAiPpLmMgQvrid560mi1cfloxLbyuPHuJsHOhCLJJ
91q4rLPDCFkCAwEAAaN7MHkwCQYDVR0TBAIwADAsBglghkgBhvhCAQ0EHxYdT3Bl
blNTTCBHZW5lcmF0ZWQgQ2VydGlmaWNhdGUwHQYDVR0OBBYEFDLaVJKBptPQlB/B
eLhuRRMGHshMMB8GA1UdIwQYMBaAFLxrNRFbrZuPNYZDhw5NH/fYbbRoMA0GCSqG
SIb3DQEBCwUAA4IBAQAbuAZ6c8OyhX7Q68i2WrGdAUk8U2fF4eiq4TvlzultFHmZ
gGbp6xsWa4p+YnEo7FfUTDTg1QW+yvW3ondwH+HI4+fVACK6o40VXOI8dgq8jrsp
UkCouvowCcuSBoXdZ18HfM8A576SqiQbMbHcckNhmNE5s8EjSeXOqNoe/uPpDdAg
SK4HMtnuToEbWS0ghz9uyZtnY6xPeeO5dawX4BAYsmuADaYa453IqQ+L9XkBWOaF
iifGu96a8eJficlsFy31HdhjvykwFmN7c8AKGOixzxuHmgqBg4KoLz+z2IwyoaBa
wWBJu8uJwjUTHD/6gJ5767iToXa9btxb17r2zW9P
-----END CERTIFICATE-----
