Certificate:
    Data:
        Version: 3 (0x2)
        Serial Number: 268435508 (0x10000034)
    Signature Algorithm: sha256WithRSAEncryption
        Issuer: CN=SRK2_sha256_2048_65537_v3_ca
        Validity
            Not Before: Mar  7 15:06:25 2018 GMT
            Not After : Mar  4 15:06:25 2028 GMT
        Subject: CN=CSF2_1_sha256_2048_65537_v3_usr
        Subject Public Key Info:
            Public Key Algorithm: rsaEncryption
                Public-Key: (2048 bit)
                Modulus:
                    00:bc:71:98:00:dd:d6:07:6e:17:bd:62:4d:20:65:
                    9d:50:a9:f0:e0:48:2a:b3:db:bf:06:41:18:9f:8e:
                    03:bb:05:6c:7d:9c:d6:c3:05:7e:68:04:10:23:8a:
                    65:12:d4:02:4a:d9:d2:ee:3f:9a:63:4a:66:6f:bf:
                    5f:4c:3e:a2:83:83:ee:1c:1d:be:89:cc:e9:1f:1a:
                    af:16:c5:11:d3:f2:61:ad:94:43:9c:a6:99:4e:1c:
                    a5:48:27:d2:9e:e1:7c:38:5b:ab:e9:1c:c1:79:e2:
                    ed:26:b5:b1:70:15:ce:ef:c0:20:49:d8:ba:e1:c0:
                    4a:a2:bc:b0:20:b7:d2:0f:66:29:a8:4e:dd:c2:49:
                    88:6a:4a:22:a1:98:6f:f2:52:99:4a:3d:7b:18:af:
                    69:41:62:87:b9:a2:87:11:43:1d:6a:e6:f6:92:22:
                    38:81:35:91:05:9d:49:fe:c6:09:53:50:36:af:47:
                    fb:92:4d:08:20:d6:00:30:80:63:4a:ef:7e:e0:9e:
                    30:3b:72:41:7c:ec:da:d3:ef:64:31:4d:f5:7c:70:
                    b0:d1:7b:f5:e0:94:f5:22:c4:53:0f:b7:a4:d7:24:
                    df:10:66:70:01:c7:ef:06:33:1b:d0:bb:d2:de:43:
                    ef:d4:9b:f9:24:2d:f3:8a:02:31:8d:0b:ba:fd:47:
                    0e:d3
                Exponent: 65537 (0x10001)
        X509v3 extensions:
            X509v3 Basic Constraints: 
                CA:FALSE
            Netscape Comment: 
                OpenSSL Generated Certificate
            X509v3 Subject Key Identifier: 
                78:24:74:00:76:1A:7B:3B:0C:91:02:BA:6B:CC:07:87:6F:4F:C9:46
            X509v3 Authority Key Identifier: 
                keyid:17:C3:ED:57:4A:53:98:BD:E4:22:EB:20:7D:D1:D2:FA:B6:09:75:EC

    Signature Algorithm: sha256WithRSAEncryption
         66:60:3f:5c:25:0d:11:3d:aa:2d:b5:71:dd:91:9f:f9:fa:00:
         da:a7:8b:11:06:e8:0f:7c:18:bf:66:28:27:e1:27:78:b0:ca:
         1c:4c:79:0c:21:af:b2:0b:ea:e6:89:53:a4:4c:c7:88:49:d4:
         6e:0a:54:68:59:fe:5e:1c:83:50:78:34:39:3c:21:96:5b:9a:
         7b:9e:79:82:6f:53:5f:a0:12:1f:5d:60:83:5f:fa:2e:79:64:
         4c:26:78:cb:fb:00:14:1a:70:ca:7a:41:bd:72:2a:d6:49:c2:
         60:8f:94:d8:3d:e0:ae:0d:3f:95:4d:b0:d8:9b:d9:53:c4:83:
         c7:01:46:71:92:ef:55:92:21:09:26:4a:62:d4:4a:6a:2d:5b:
         13:24:ad:74:2e:76:1e:bf:50:1a:1d:f3:06:91:fe:c3:c8:75:
         c9:8e:87:23:bf:c4:0c:ca:c4:45:b2:81:63:5b:95:e8:5b:b5:
         41:82:a0:1e:93:f6:ae:6f:fe:a8:10:5e:fd:99:fd:4d:b4:bf:
         e4:76:1b:d0:2d:ca:cd:e8:93:b2:71:9b:4d:67:33:1b:50:83:
         1b:15:a4:29:b4:45:bd:46:7e:58:87:54:c4:e0:77:e2:57:05:
         92:5e:64:0a:6b:dd:d1:28:de:d8:8d:c4:15:28:79:4b:12:31:
         0a:9c:6f:24
-----BEGIN CERTIFICATE-----
MIIDSjCCAjKgAwIBAgIEEAAANDANBgkqhkiG9w0BAQsFADAnMSUwIwYDVQQDDBxT
UksyX3NoYTI1Nl8yMDQ4XzY1NTM3X3YzX2NhMB4XDTE4MDMwNzE1MDYyNVoXDTI4
MDMwNDE1MDYyNVowKjEoMCYGA1UEAwwfQ1NGMl8xX3NoYTI1Nl8yMDQ4XzY1NTM3
X3YzX3VzcjCCASIwDQYJKoZIhvcNAQEBBQADggEPADCCAQoCggEBALxxmADd1gdu
F71iTSBlnVCp8OBIKrPbvwZBGJ+OA7sFbH2c1sMFfmgEECOKZRLUAkrZ0u4/mmNK
Zm+/X0w+ooOD7hwdvonM6R8arxbFEdPyYa2UQ5ymmU4cpUgn0p7hfDhbq+kcwXni
7Sa1sXAVzu/AIEnYuuHASqK8sCC30g9mKahO3cJJiGpKIqGYb/JSmUo9exivaUFi
h7mihxFDHWrm9pIiOIE1kQWdSf7GCVNQNq9H+5JNCCDWADCAY0rvfuCeMDtyQXzs
2tPvZDFN9XxwsNF79eCU9SLEUw+3pNck3xBmcAHH7wYzG9C70t5D79Sb+SQt84oC
MY0Luv1HDtMCAwEAAaN7MHkwCQYDVR0TBAIwADAsBglghkgBhvhCAQ0EHxYdT3Bl
blNTTCBHZW5lcmF0ZWQgQ2VydGlmaWNhdGUwHQYDVR0OBBYEFHgkdAB2Gns7DJEC
umvMB4dvT8lGMB8GA1UdIwQYMBaAFBfD7VdKU5i95CLrIH3R0vq2CXXsMA0GCSqG
SIb3DQEBCwUAA4IBAQBmYD9cJQ0RPaottXHdkZ/5+gDap4sRBugPfBi/Zign4Sd4
sMocTHkMIa+yC+rmiVOkTMeISdRuClRoWf5eHINQeDQ5PCGWW5p7nnmCb1NfoBIf
XWCDX/oueWRMJnjL+wAUGnDKekG9cirWScJgj5TYPeCuDT+VTbDYm9lTxIPHAUZx
ku9VkiEJJkpi1EpqLVsTJK10LnYev1AaHfMGkf7DyHXJjocjv8QMysRFsoFjW5Xo
W7VBgqAek/aub/6oEF79mf1NtL/kdhvQLcrN6JOycZtNZzMbUIMbFaQptEW9Rn5Y
h1TE4HfiVwWSXmQKa93RKN7YjcQVKHlLEjEKnG8k
-----END CERTIFICATE-----
