Certificate:
    Data:
        Version: 3 (0x2)
        Serial Number: 268435523 (0x10000043)
    Signature Algorithm: sha256WithRSAEncryption
        Issuer: CN=SRK3_sha256_4096_65537_v3_ca
        Validity
            Not Before: Mar  7 15:06:31 2018 GMT
            Not After : Mar  4 15:06:31 2028 GMT
        Subject: CN=CSF3_1_sha256_4096_65537_v3_usr
        Subject Public Key Info:
            Public Key Algorithm: rsaEncryption
                Public-Key: (4096 bit)
                Modulus:
                    00:ba:8b:7b:a1:9a:9b:05:fa:94:5a:cd:03:c8:91:
                    33:c3:4c:41:d0:e2:e6:e4:e0:71:dd:a8:64:5f:ff:
                    12:b0:3f:ac:27:2d:ae:80:ca:30:45:62:97:bb:52:
                    07:9b:f5:07:bb:16:7b:81:13:69:c9:24:9a:a5:a3:
                    14:53:88:cc:40:96:75:16:87:13:f9:fc:b4:02:09:
                    c7:a8:d9:95:64:cc:ab:70:c5:7a:70:03:92:f4:fb:
                    de:4e:36:06:f2:db:91:65:bb:53:9b:bf:c2:6a:ff:
                    68:58:6b:9d:e0:0e:e6:99:19:4d:a7:67:c9:b9:fa:
                    d9:02:93:3b:0f:15:42:45:6d:6d:2d:f4:30:8e:92:
                    ed:f3:10:98:b6:57:8a:6b:f8:20:8f:fd:39:94:34:
                    3a:d8:21:97:86:6c:26:d5:89:08:c2:d7:8e:66:b3:
                    5c:ab:02:d7:b9:0b:e9:bd:81:52:d7:f4:6d:dc:a9:
                    7c:f0:6b:cf:a3:4e:bf:9c:71:be:c8:30:90:59:9d:
                    c4:04:a6:25:64:37:c6:2d:6c:86:03:b3:40:e6:ff:
                    f4:e4:57:87:c2:cc:0c:b7:7a:02:9f:dc:94:fe:8e:
                    f5:e9:44:0b:30:d7:4b:f3:4e:74:34:89:52:2d:bc:
                    d9:f7:78:88:48:7e:d7:b1:6b:18:b5:2a:da:22:00:
                    44:bc:74:18:a2:42:27:1d:ab:1c:0c:eb:f2:70:b7:
                    b5:38:85:91:63:b7:8e:1c:ea:8e:e5:29:01:36:18:
                    dd:8c:14:ab:f3:20:02:fc:7a:40:27:c3:23:ec:4a:
                    66:2a:b8:b5:21:35:4e:bf:16:38:d7:02:b0:44:a6:
                    3a:4a:c8:e1:9c:dd:33:b4:02:15:0f:2f:0e:a7:86:
                    28:26:cd:56:62:b8:41:6c:22:07:b6:f1:5d:05:1a:
                    0a:d6:2b:00:59:92:82:07:a5:38:74:e8:e5:6c:b3:
                    a6:d6:b5:05:d7:60:37:86:3b:e1:30:6c:75:27:b2:
                    15:14:54:23:c8:23:bd:09:c0:b0:67:d5:3f:23:24:
                    2e:67:b4:ad:25:1e:eb:6b:28:cb:44:b2:8a:79:f4:
                    3f:3a:0b:19:a6:16:d6:56:82:6c:97:aa:0a:54:42:
                    95:e5:ab:b4:98:38:be:a1:16:7c:66:1c:8d:da:14:
                    c3:25:c9:26:aa:59:f0:6b:7a:a9:81:95:85:c5:6e:
                    24:3a:10:d5:67:16:14:62:6d:91:58:a8:47:9a:72:
                    0b:52:55:b4:c2:da:a5:30:c7:b6:6c:27:b0:ab:0c:
                    16:f6:0b:b2:47:a0:14:de:c2:1d:d2:3e:83:15:ec:
                    a3:90:b6:9e:98:24:6f:c8:37:3c:09:c2:3f:2e:a0:
                    ce:5c:bd
                Exponent: 65537 (0x10001)
        X509v3 extensions:
            X509v3 Basic Constraints: 
                CA:FALSE
            Netscape Comment: 
                OpenSSL Generated Certificate
            X509v3 Subject Key Identifier: 
                A3:AB:B7:C2:C6:61:2E:70:86:E0:40:9A:F3:51:59:CE:76:F7:89:D7
            X509v3 Authority Key Identifier: 
                keyid:60:B4:F1:D8:95:3F:DF:B1:F3:27:E7:7E:00:9F:45:5D:14:83:67:EB

    Signature Algorithm: sha256WithRSAEncryption
         36:29:94:d1:c9:d0:92:d0:f4:44:ad:7d:1b:ff:3e:01:0a:e5:
         54:92:d7:51:ee:23:da:ee:47:09:d1:52:79:36:dc:d1:3d:4f:
         2d:91:81:44:23:15:23:0a:20:20:38:bc:e4:a5:48:70:85:62:
         cf:73:cb:4c:3a:ad:e3:7e:cc:49:af:0f:fe:64:0f:aa:54:9e:
         f7:6d:86:63:89:03:66:ae:ab:7b:eb:a4:cd:ce:25:9e:2a:5c:
         ea:00:58:09:1f:f8:f8:55:0f:3f:48:64:e7:de:a6:47:a6:be:
         df:80:8b:12:d9:a9:23:3a:d8:fa:d6:8c:15:d2:61:5f:69:81:
         78:0e:aa:ef:de:ea:e3:4a:07:d0:6a:4d:57:0a:bb:b7:2a:bc:
         da:f1:71:8c:7f:d3:a4:06:cd:d8:28:f1:83:7d:70:c6:a6:b1:
         60:81:34:5b:e6:be:b6:cf:89:65:be:41:82:aa:16:48:19:2f:
         2e:71:a0:cb:f8:9a:6b:19:3b:23:98:4e:43:13:c8:d1:f9:1d:
         cf:51:8a:1a:e3:b6:0b:88:f8:c4:35:ee:c8:dc:a2:1d:4a:4d:
         2f:30:92:82:c6:33:fc:81:cb:8f:c0:ab:2d:95:93:fa:cc:1b:
         74:09:d0:b6:89:e1:e9:57:86:5d:29:a6:5e:de:f0:89:6c:76:
         cf:ae:12:88:8d:62:53:9b:41:de:02:26:da:d9:a0:10:0d:f5:
         18:f4:e6:75:83:31:1a:69:77:fe:cc:d7:47:58:77:fd:0a:0d:
         ed:eb:52:de:22:75:93:5b:6a:5e:50:06:a4:ee:2f:71:fe:96:
         cf:b2:b9:ae:bc:81:99:38:22:50:97:21:7a:e5:ad:97:15:c2:
         02:f5:d5:90:10:b7:e4:dd:20:c0:4a:02:fc:94:bc:44:00:42:
         7f:74:2f:21:f4:da:4a:88:24:bc:1c:4f:cd:ad:7c:63:4f:50:
         83:2d:cf:c8:64:32:be:db:45:ac:7f:11:fd:65:71:97:10:c7:
         31:67:1a:5e:e8:b8:37:df:2d:a6:4b:11:d8:f6:4d:64:07:c2:
         8f:69:1c:7a:e7:0c:3a:90:df:7f:ac:89:00:bf:ac:03:98:2c:
         94:cb:04:84:60:f8:58:10:55:21:32:9b:06:68:5c:26:69:bb:
         0e:32:1e:88:61:6e:4b:01:de:5d:77:82:39:43:b6:5a:71:73:
         60:ec:13:de:37:b7:2b:bb:8b:17:da:ef:74:e1:1f:cc:dc:c2:
         85:e7:d2:cd:cf:de:66:40:ca:dd:24:83:c7:fa:1e:67:f5:d5:
         02:0a:82:82:4a:bc:bb:02:1d:73:bd:80:62:cd:f0:f9:4b:54:
         f6:0b:6a:42:24:f3:80:67
-----BEGIN CERTIFICATE-----
MIIFSjCCAzKgAwIBAgIEEAAAQzANBgkqhkiG9w0BAQsFADAnMSUwIwYDVQQDDBxT
UkszX3NoYTI1Nl80MDk2XzY1NTM3X3YzX2NhMB4XDTE4MDMwNzE1MDYzMVoXDTI4
MDMwNDE1MDYzMVowKjEoMCYGA1UEAwwfQ1NGM18xX3NoYTI1Nl80MDk2XzY1NTM3
X3YzX3VzcjCCAiIwDQYJKoZIhvcNAQEBBQADggIPADCCAgoCggIBALqLe6GamwX6
lFrNA8iRM8NMQdDi5uTgcd2oZF//ErA/rCctroDKMEVil7tSB5v1B7sWe4ETackk
mqWjFFOIzECWdRaHE/n8tAIJx6jZlWTMq3DFenADkvT73k42BvLbkWW7U5u/wmr/
aFhrneAO5pkZTadnybn62QKTOw8VQkVtbS30MI6S7fMQmLZXimv4II/9OZQ0Otgh
l4ZsJtWJCMLXjmazXKsC17kL6b2BUtf0bdypfPBrz6NOv5xxvsgwkFmdxASmJWQ3
xi1shgOzQOb/9ORXh8LMDLd6Ap/clP6O9elECzDXS/NOdDSJUi282fd4iEh+17Fr
GLUq2iIARLx0GKJCJx2rHAzr8nC3tTiFkWO3jhzqjuUpATYY3YwUq/MgAvx6QCfD
I+xKZiq4tSE1Tr8WONcCsESmOkrI4ZzdM7QCFQ8vDqeGKCbNVmK4QWwiB7bxXQUa
CtYrAFmSggelOHTo5Wyzpta1BddgN4Y74TBsdSeyFRRUI8gjvQnAsGfVPyMkLme0
rSUe62soy0Syinn0PzoLGaYW1laCbJeqClRCleWrtJg4vqEWfGYcjdoUwyXJJqpZ
8Gt6qYGVhcVuJDoQ1WcWFGJtkVioR5pyC1JVtMLapTDHtmwnsKsMFvYLskegFN7C
HdI+gxXso5C2npgkb8g3PAnCPy6gzly9AgMBAAGjezB5MAkGA1UdEwQCMAAwLAYJ
YIZIAYb4QgENBB8WHU9wZW5TU0wgR2VuZXJhdGVkIENlcnRpZmljYXRlMB0GA1Ud
DgQWBBSjq7fCxmEucIbgQJrzUVnOdveJ1zAfBgNVHSMEGDAWgBRgtPHYlT/fsfMn
534An0VdFINn6zANBgkqhkiG9w0BAQsFAAOCAgEANimU0cnQktD0RK19G/8+AQrl
VJLXUe4j2u5HCdFSeTbc0T1PLZGBRCMVIwogIDi85KVIcIViz3PLTDqt437MSa8P
/mQPqlSe922GY4kDZq6re+ukzc4lnipc6gBYCR/4+FUPP0hk596mR6a+34CLEtmp
IzrY+taMFdJhX2mBeA6q797q40oH0GpNVwq7tyq82vFxjH/TpAbN2Cjxg31wxqax
YIE0W+a+ts+JZb5BgqoWSBkvLnGgy/iaaxk7I5hOQxPI0fkdz1GKGuO2C4j4xDXu
yNyiHUpNLzCSgsYz/IHLj8CrLZWT+swbdAnQtonh6VeGXSmmXt7wiWx2z64SiI1i
U5tB3gIm2tmgEA31GPTmdYMxGml3/szXR1h3/QoN7etS3iJ1k1tqXlAGpO4vcf6W
z7K5rryBmTgiUJcheuWtlxXCAvXVkBC35N0gwEoC/JS8RABCf3QvIfTaSogkvBxP
za18Y09Qgy3PyGQyvttFrH8R/WVxlxDHMWcaXui4N98tpksR2PZNZAfCj2kceucM
OpDff6yJAL+sA5gslMsEhGD4WBBVITKbBmhcJmm7DjIeiGFuSwHeXXeCOUO2WnFz
YOwT3je3K7uLF9rvdOEfzNzChefSzc/eZkDK3SSDx/oeZ/XVAgqCgkq8uwIdc72A
Ys3w+UtU9gtqQiTzgGc=
-----END CERTIFICATE-----
