Certificate:
    Data:
        Version: 3 (0x2)
        Serial Number: 268435499 (0x1000002b)
    Signature Algorithm: sha256WithRSAEncryption
        Issuer: CN=SRK3_sha256_1024_65537_v3_ca
        Validity
            Not Before: Mar  7 15:06:24 2018 GMT
            Not After : Mar  4 15:06:24 2028 GMT
        Subject: CN=CSF3_1_sha256_1024_65537_v3_usr
        Subject Public Key Info:
            Public Key Algorithm: rsaEncryption
                Public-Key: (1024 bit)
                Modulus:
                    00:ae:a2:30:88:9c:6f:d2:24:e4:92:d3:96:cf:29:
                    ab:87:6b:17:68:24:8a:a9:78:f4:29:1c:a0:41:34:
                    c0:18:f1:8b:73:00:b4:23:7e:14:db:dc:74:d2:57:
                    a0:67:f3:11:61:94:6a:54:77:fe:83:4d:9e:7a:6d:
                    87:46:1a:c7:e6:cb:13:cc:e5:5d:a2:9d:00:9a:ee:
                    3b:81:c0:43:73:87:5b:c0:ea:ec:f0:f8:b4:80:8d:
                    65:c3:eb:36:29:0d:e5:6c:81:33:fe:05:03:18:18:
                    ad:ee:a7:0f:59:e0:19:72:55:0c:a0:19:4f:ef:8c:
                    5f:db:a7:7f:7d:56:89:b6:61
                Exponent: 65537 (0x10001)
        X509v3 extensions:
            X509v3 Basic Constraints: 
                CA:FALSE
            Netscape Comment: 
                OpenSSL Generated Certificate
            X509v3 Subject Key Identifier: 
                0E:39:49:8E:8F:CB:8A:36:F4:99:9B:5A:96:19:CF:0F:47:81:BC:55
            X509v3 Authority Key Identifier: 
                keyid:A4:D9:42:92:FA:38:26:DF:62:24:4C:32:9B:44:A7:9F:F3:13:6D:D2

    Signature Algorithm: sha256WithRSAEncryption
         88:dc:d3:25:e0:b7:8a:9e:11:b1:03:e7:48:32:b6:bd:42:c2:
         2b:27:7e:0b:de:d4:31:c2:a4:f9:65:62:97:db:d5:99:c0:e7:
         52:a0:f6:62:b4:9e:ed:85:96:fc:5d:c1:71:19:75:00:7f:c7:
         ad:f8:be:8a:78:38:a7:e8:02:01:e8:5c:06:24:9b:47:a1:52:
         8c:d5:af:88:27:24:da:57:f1:f7:cb:4a:16:59:12:da:00:a8:
         e5:26:e0:cc:e7:c7:0d:c0:f2:42:19:bd:84:ee:1c:55:2f:ed:
         c7:e8:3f:9e:da:6c:3a:f6:ea:d9:46:ac:8c:b4:4d:12:40:ac:
         37:5b
-----BEGIN CERTIFICATE-----
MIICRTCCAa6gAwIBAgIEEAAAKzANBgkqhkiG9w0BAQsFADAnMSUwIwYDVQQDDBxT
UkszX3NoYTI1Nl8xMDI0XzY1NTM3X3YzX2NhMB4XDTE4MDMwNzE1MDYyNFoXDTI4
MDMwNDE1MDYyNFowKjEoMCYGA1UEAwwfQ1NGM18xX3NoYTI1Nl8xMDI0XzY1NTM3
X3YzX3VzcjCBnzANBgkqhkiG9w0BAQEFAAOBjQAwgYkCgYEArqIwiJxv0iTkktOW
zymrh2sXaCSKqXj0KRygQTTAGPGLcwC0I34U29x00legZ/MRYZRqVHf+g02eem2H
RhrH5ssTzOVdop0Amu47gcBDc4dbwOrs8Pi0gI1lw+s2KQ3lbIEz/gUDGBit7qcP
WeAZclUMoBlP74xf26d/fVaJtmECAwEAAaN7MHkwCQYDVR0TBAIwADAsBglghkgB
hvhCAQ0EHxYdT3BlblNTTCBHZW5lcmF0ZWQgQ2VydGlmaWNhdGUwHQYDVR0OBBYE
FA45SY6Py4o29JmbWpYZzw9HgbxVMB8GA1UdIwQYMBaAFKTZQpL6OCbfYiRMMptE
p5/zE23SMA0GCSqGSIb3DQEBCwUAA4GBAIjc0yXgt4qeEbED50gytr1Cwisnfgve
1DHCpPllYpfb1ZnA51Kg9mK0nu2FlvxdwXEZdQB/x634vop4OKfoAgHoXAYkm0eh
UozVr4gnJNpX8ffLShZZEtoAqOUm4Mznxw3A8kIZvYTuHFUv7cfoP57abDr26tlG
rIy0TRJArDdb
-----END CERTIFICATE-----
