Certificate:
    Data:
        Version: 3 (0x2)
        Serial Number: 268435511 (0x10000037)
    Signature Algorithm: sha256WithRSAEncryption
        Issuer: CN=SRK3_sha256_2048_65537_v3_ca
        Validity
            Not Before: Mar  7 15:06:26 2018 GMT
            Not After : Mar  4 15:06:26 2028 GMT
        Subject: CN=CSF3_1_sha256_2048_65537_v3_usr
        Subject Public Key Info:
            Public Key Algorithm: rsaEncryption
                Public-Key: (2048 bit)
                Modulus:
                    00:ab:32:5a:6b:72:86:5f:69:fc:88:70:1b:1a:a5:
                    8c:fe:53:5c:b2:c7:27:a0:4c:1b:d8:34:c7:df:39:
                    73:b5:d4:67:17:85:5d:78:28:e0:fc:74:1d:44:79:
                    9b:29:68:2b:fe:81:89:29:54:cc:e6:08:18:1c:2c:
                    8e:b5:78:67:ab:64:4f:1c:04:63:ff:0b:32:8c:89:
                    ca:a9:30:ba:f6:d3:f0:a4:7d:52:83:73:27:17:7f:
                    83:83:a7:e3:c1:40:91:40:44:7d:34:2e:1b:16:90:
                    42:e6:96:60:92:f1:45:f7:41:cd:a0:38:95:e3:97:
                    2a:6d:6a:4a:3a:0a:f3:1c:da:e5:9c:b2:e2:28:46:
                    d6:9c:c9:57:b2:9b:4c:65:d4:47:0b:c5:ae:b4:cb:
                    64:c3:66:89:ea:56:4c:2b:ab:a0:17:29:4d:4a:b1:
                    d2:19:47:ca:1a:2f:7d:7c:7b:3c:d2:b8:a8:42:16:
                    eb:aa:28:81:bc:8f:8f:a8:a9:7e:8c:77:77:07:8f:
                    57:5e:31:40:35:41:24:67:ca:79:9d:a3:76:be:b1:
                    87:80:e9:7f:40:6a:75:0f:ba:38:ec:7d:67:02:34:
                    6a:64:d8:db:2c:f2:4f:9e:9e:dd:68:43:c3:35:d7:
                    65:b5:d9:0c:fa:65:fc:3d:4b:a4:39:cb:48:31:4b:
                    52:d7
                Exponent: 65537 (0x10001)
        X509v3 extensions:
            X509v3 Basic Constraints: 
                CA:FALSE
            Netscape Comment: 
                OpenSSL Generated Certificate
            X509v3 Subject Key Identifier: 
                7D:B7:63:95:E2:0B:D1:B1:13:4D:DF:F1:9E:59:53:5B:3E:6D:FE:57
            X509v3 Authority Key Identifier: 
                keyid:D9:27:80:11:F9:3E:11:7E:CA:B3:5F:72:46:15:4E:38:4E:2E:C4:02

    Signature Algorithm: sha256WithRSAEncryption
         88:b2:8f:6a:20:66:01:4a:68:b8:59:2a:a6:61:36:3b:fc:5a:
         c0:81:01:a4:17:87:1c:e4:84:44:62:3b:8c:40:2b:61:f5:ff:
         17:35:0c:a5:3b:fd:6c:a3:77:5e:73:f0:68:56:8a:14:cf:25:
         9f:28:29:0e:10:ac:7b:91:6c:5a:f2:a0:4b:16:72:39:14:21:
         25:24:73:78:0e:da:09:49:26:94:ae:b6:90:f8:0c:a6:35:3b:
         76:5e:5b:a7:4b:bd:96:c2:d9:46:de:4d:85:ac:b0:f7:ec:1e:
         3e:7f:a4:46:70:e2:92:14:e3:86:08:bd:1f:44:a4:59:db:52:
         a8:c6:b3:d6:6a:13:73:74:a7:25:9b:98:c2:58:3a:77:12:a8:
         e0:ed:e5:1f:ae:f9:5d:d3:10:bf:b2:e9:8d:94:d9:c5:a5:e3:
         a7:07:bd:fa:aa:2b:4f:ac:d9:3c:f8:ab:54:ca:8d:df:99:4e:
         57:20:a2:67:41:35:29:af:07:ee:a6:19:96:b4:f9:5c:aa:dd:
         59:41:cc:82:4e:51:67:44:85:4d:97:95:c1:27:3c:84:0c:4b:
         0c:f7:b1:b5:e4:fe:57:aa:15:07:f9:4b:23:cb:1a:c1:4b:28:
         c0:be:00:33:0f:2d:7d:e0:cf:8e:26:cb:94:37:ea:f7:e5:50:
         8a:d8:f1:ab
-----BEGIN CERTIFICATE-----
MIIDSjCCAjKgAwIBAgIEEAAANzANBgkqhkiG9w0BAQsFADAnMSUwIwYDVQQDDBxT
UkszX3NoYTI1Nl8yMDQ4XzY1NTM3X3YzX2NhMB4XDTE4MDMwNzE1MDYyNloXDTI4
MDMwNDE1MDYyNlowKjEoMCYGA1UEAwwfQ1NGM18xX3NoYTI1Nl8yMDQ4XzY1NTM3
X3YzX3VzcjCCASIwDQYJKoZIhvcNAQEBBQADggEPADCCAQoCggEBAKsyWmtyhl9p
/IhwGxqljP5TXLLHJ6BMG9g0x985c7XUZxeFXXgo4Px0HUR5myloK/6BiSlUzOYI
GBwsjrV4Z6tkTxwEY/8LMoyJyqkwuvbT8KR9UoNzJxd/g4On48FAkUBEfTQuGxaQ
QuaWYJLxRfdBzaA4leOXKm1qSjoK8xza5Zyy4ihG1pzJV7KbTGXURwvFrrTLZMNm
iepWTCuroBcpTUqx0hlHyhovfXx7PNK4qEIW66oogbyPj6ipfox3dwePV14xQDVB
JGfKeZ2jdr6xh4Dpf0BqdQ+6OOx9ZwI0amTY2yzyT56e3WhDwzXXZbXZDPpl/D1L
pDnLSDFLUtcCAwEAAaN7MHkwCQYDVR0TBAIwADAsBglghkgBhvhCAQ0EHxYdT3Bl
blNTTCBHZW5lcmF0ZWQgQ2VydGlmaWNhdGUwHQYDVR0OBBYEFH23Y5XiC9GxE03f
8Z5ZU1s+bf5XMB8GA1UdIwQYMBaAFNkngBH5PhF+yrNfckYVTjhOLsQCMA0GCSqG
SIb3DQEBCwUAA4IBAQCIso9qIGYBSmi4WSqmYTY7/FrAgQGkF4cc5IREYjuMQCth
9f8XNQylO/1so3dec/BoVooUzyWfKCkOEKx7kWxa8qBLFnI5FCElJHN4DtoJSSaU
rraQ+AymNTt2XlunS72WwtlG3k2FrLD37B4+f6RGcOKSFOOGCL0fRKRZ21KoxrPW
ahNzdKclm5jCWDp3Eqjg7eUfrvld0xC/sumNlNnFpeOnB736qitPrNk8+KtUyo3f
mU5XIKJnQTUprwfuphmWtPlcqt1ZQcyCTlFnRIVNl5XBJzyEDEsM97G15P5XqhUH
+UsjyxrBSyjAvgAzDy194M+OJsuUN+r35VCK2PGr
-----END CERTIFICATE-----
