Certificate:
    Data:
        Version: 3 (0x2)
        Serial Number: 268435526 (0x10000046)
    Signature Algorithm: sha256WithRSAEncryption
        Issuer: CN=SRK4_sha256_4096_65537_v3_ca
        Validity
            Not Before: Mar  7 15:06:33 2018 GMT
            Not After : Mar  4 15:06:33 2028 GMT
        Subject: CN=CSF4_1_sha256_4096_65537_v3_usr
        Subject Public Key Info:
            Public Key Algorithm: rsaEncryption
                Public-Key: (4096 bit)
                Modulus:
                    00:d2:4c:cf:44:a6:24:0b:9a:ff:f1:72:5b:36:93:
                    fd:65:cc:c5:62:f0:56:61:d0:4d:23:fd:78:79:c9:
                    6c:d4:e9:01:0a:a8:a1:b0:f8:fb:a9:da:cd:71:21:
                    44:dc:77:f3:99:5a:31:79:3b:70:78:8f:b3:f1:72:
                    08:63:e5:6b:16:92:0e:3f:e7:81:8e:06:49:15:26:
                    da:cf:db:5e:49:51:64:19:34:c7:f4:0f:63:98:d5:
                    c2:63:96:3e:10:70:18:04:22:ef:9e:4b:fa:54:24:
                    6e:19:93:9c:77:c2:06:17:77:02:2a:f7:52:3d:78:
                    b3:d4:6e:f3:4b:ee:5a:ef:8c:27:93:55:ff:78:3a:
                    1d:58:7e:00:48:97:5a:7e:4c:7a:4e:9e:c3:ed:8d:
                    ef:2f:d3:c8:4d:4a:8b:af:f5:ff:9a:f3:04:35:12:
                    87:c7:80:46:8a:1d:ef:58:4b:73:0b:4e:54:c7:1d:
                    24:8a:05:5e:cf:3f:21:79:b5:19:bf:14:d0:65:ea:
                    ec:d4:e5:17:c0:85:7f:0a:5e:4b:d2:b6:c3:f2:0e:
                    f0:2c:18:45:db:6f:70:af:4a:73:3c:18:a9:ef:28:
                    0c:ad:1a:24:ef:af:a3:57:ab:9a:28:6d:a7:f9:2b:
                    19:89:d6:cf:2a:7e:af:63:55:05:bc:75:be:92:72:
                    c3:d8:1e:8e:25:99:77:5f:ff:05:56:6b:5b:36:76:
                    be:54:13:16:db:60:d1:dc:8d:73:2c:a5:dd:c2:18:
                    b4:c1:81:e1:a3:94:14:b1:7e:6c:bc:52:39:32:a2:
                    21:ec:4a:e9:3b:14:89:3d:b0:97:af:52:37:5d:1f:
                    5a:d6:65:52:ff:fb:cc:97:ee:fa:ba:07:7d:57:15:
                    82:7b:73:75:cf:59:44:ee:df:c2:48:65:3b:b0:80:
                    0c:b7:24:8e:22:47:98:45:d8:de:38:dc:85:e4:e3:
                    e3:6c:b4:d9:dd:de:f1:47:39:85:92:b2:33:75:8a:
                    b0:27:96:8c:99:39:09:04:f9:e4:a5:02:7a:d7:98:
                    e3:8c:c1:4e:2b:6a:6f:eb:39:9f:3b:5e:77:e1:9a:
                    fe:87:0a:2c:85:50:36:7a:84:1b:40:2d:8c:39:6a:
                    74:be:b1:97:67:56:8c:7f:45:61:59:97:96:00:03:
                    15:84:ca:1e:08:9c:73:5f:82:e6:23:7a:34:8e:3a:
                    8e:ed:cf:b4:c7:1c:d5:a8:b4:78:e2:10:47:f0:3f:
                    e9:13:4c:71:24:28:cf:26:60:e3:37:ac:c3:a2:6d:
                    97:37:73:ce:27:36:31:ee:08:42:52:11:73:a8:2a:
                    84:7d:b3:6d:8b:a0:41:64:a7:e5:10:30:06:38:42:
                    3e:fa:85
                Exponent: 65537 (0x10001)
        X509v3 extensions:
            X509v3 Basic Constraints: 
                CA:FALSE
            Netscape Comment: 
                OpenSSL Generated Certificate
            X509v3 Subject Key Identifier: 
                E7:C8:09:6C:3B:78:DE:EF:AA:46:88:9C:33:7E:CC:22:23:25:37:C8
            X509v3 Authority Key Identifier: 
                keyid:0D:86:C2:5A:49:A2:83:FF:E0:E1:3C:00:F7:5E:5B:AB:69:AB:20:26

    Signature Algorithm: sha256WithRSAEncryption
         09:c7:1a:b2:da:cd:ab:83:81:1a:5d:1e:e2:6d:f6:51:7c:f6:
         96:63:2d:88:82:5c:85:6f:02:48:98:1b:05:38:4a:e1:b4:8f:
         3c:c1:8a:42:4e:7a:01:48:f7:d5:12:23:7b:0d:1b:e7:58:d0:
         2b:ee:ad:72:e5:8e:0f:2e:90:61:e7:3b:f2:44:43:10:c9:34:
         7e:6e:bc:8b:28:c2:e5:ae:58:59:ef:15:df:b4:b4:94:0c:e6:
         48:15:e0:15:2e:64:cc:3a:e5:d6:f1:42:12:5b:1a:37:ca:d3:
         5f:a9:31:b3:bd:d3:27:7a:40:ff:0b:ef:4c:32:06:27:30:42:
         91:25:f3:2b:98:6f:f5:66:73:9e:db:84:9e:48:b1:0c:9d:72:
         23:fb:da:29:6a:8c:3d:2e:4b:72:d4:63:16:13:86:1e:21:f1:
         f8:69:09:d2:71:2a:f5:d5:fc:8a:1a:15:cc:83:8c:74:63:8d:
         e5:81:bd:33:a0:37:e6:d1:18:c5:fd:7e:26:85:b3:76:53:cf:
         54:88:32:fd:c4:58:19:c8:f9:5c:38:2f:3b:4e:9b:77:f4:88:
         57:29:bb:35:f9:2d:4f:99:99:e1:8a:6a:c0:15:fd:0d:cd:c0:
         90:bf:9a:fe:1e:23:b2:a3:64:9f:ab:55:13:df:a6:59:27:c7:
         ee:fd:56:76:af:d4:33:e7:92:6f:e5:fd:9f:b0:de:d2:2c:85:
         e2:2b:9f:5b:16:31:10:d1:9f:69:ad:ed:4d:05:5e:db:8b:f1:
         ce:60:b8:c2:29:6a:48:87:af:c0:10:1d:68:80:97:f8:3c:ee:
         1b:fd:4f:dd:ba:4b:3b:a2:12:f0:06:12:29:d4:a5:63:7e:55:
         56:61:4c:59:d8:09:09:7a:bd:25:35:8f:a4:66:26:17:00:90:
         34:d3:13:28:2e:42:0c:b7:70:6d:42:60:9c:d1:40:f1:fc:2b:
         40:fa:9b:f6:5b:61:be:9d:27:42:be:fb:a5:2e:05:57:d0:36:
         21:8e:2f:98:b7:c5:1d:a0:8b:56:6b:c3:59:a5:89:63:e7:d7:
         dc:2e:b3:0c:ff:2c:5b:a9:6b:0c:4f:fb:41:a2:73:9b:24:b1:
         29:5d:ae:49:67:d0:f5:a2:7d:96:2d:d5:31:ad:f6:44:71:b0:
         55:6b:2b:75:ba:49:eb:3c:f4:8c:a0:07:7e:6d:b4:d6:58:5f:
         96:83:c9:a7:23:9c:d1:51:ac:94:7a:76:71:c9:5f:a0:a2:de:
         5d:0f:68:d2:31:71:39:1d:1a:bc:1a:bb:fc:9a:51:5a:f1:22:
         81:96:3c:61:1b:f2:f2:94:7d:9f:4b:12:d4:42:2f:a9:e7:19:
         63:04:40:1a:ac:eb:c3:14
-----BEGIN CERTIFICATE-----
MIIFSjCCAzKgAwIBAgIEEAAARjANBgkqhkiG9w0BAQsFADAnMSUwIwYDVQQDDBxT
Uks0X3NoYTI1Nl80MDk2XzY1NTM3X3YzX2NhMB4XDTE4MDMwNzE1MDYzM1oXDTI4
MDMwNDE1MDYzM1owKjEoMCYGA1UEAwwfQ1NGNF8xX3NoYTI1Nl80MDk2XzY1NTM3
X3YzX3VzcjCCAiIwDQYJKoZIhvcNAQEBBQADggIPADCCAgoCggIBANJMz0SmJAua
//FyWzaT/WXMxWLwVmHQTSP9eHnJbNTpAQqoobD4+6nazXEhRNx385laMXk7cHiP
s/FyCGPlaxaSDj/ngY4GSRUm2s/bXklRZBk0x/QPY5jVwmOWPhBwGAQi755L+lQk
bhmTnHfCBhd3Air3Uj14s9Ru80vuWu+MJ5NV/3g6HVh+AEiXWn5Mek6ew+2N7y/T
yE1Ki6/1/5rzBDUSh8eARood71hLcwtOVMcdJIoFXs8/IXm1Gb8U0GXq7NTlF8CF
fwpeS9K2w/IO8CwYRdtvcK9KczwYqe8oDK0aJO+vo1ermihtp/krGYnWzyp+r2NV
Bbx1vpJyw9gejiWZd1//BVZrWzZ2vlQTFttg0dyNcyyl3cIYtMGB4aOUFLF+bLxS
OTKiIexK6TsUiT2wl69SN10fWtZlUv/7zJfu+roHfVcVgntzdc9ZRO7fwkhlO7CA
DLckjiJHmEXY3jjcheTj42y02d3e8Uc5hZKyM3WKsCeWjJk5CQT55KUCeteY44zB
Titqb+s5nzted+Ga/ocKLIVQNnqEG0AtjDlqdL6xl2dWjH9FYVmXlgADFYTKHgic
c1+C5iN6NI46ju3PtMcc1ai0eOIQR/A/6RNMcSQozyZg4zesw6Jtlzdzzic2Me4I
QlIRc6gqhH2zbYugQWSn5RAwBjhCPvqFAgMBAAGjezB5MAkGA1UdEwQCMAAwLAYJ
YIZIAYb4QgENBB8WHU9wZW5TU0wgR2VuZXJhdGVkIENlcnRpZmljYXRlMB0GA1Ud
DgQWBBTnyAlsO3je76pGiJwzfswiIyU3yDAfBgNVHSMEGDAWgBQNhsJaSaKD/+Dh
PAD3XluraasgJjANBgkqhkiG9w0BAQsFAAOCAgEACccastrNq4OBGl0e4m32UXz2
lmMtiIJchW8CSJgbBThK4bSPPMGKQk56AUj31RIjew0b51jQK+6tcuWODy6QYec7
8kRDEMk0fm68iyjC5a5YWe8V37S0lAzmSBXgFS5kzDrl1vFCElsaN8rTX6kxs73T
J3pA/wvvTDIGJzBCkSXzK5hv9WZzntuEnkixDJ1yI/vaKWqMPS5LctRjFhOGHiHx
+GkJ0nEq9dX8ihoVzIOMdGON5YG9M6A35tEYxf1+JoWzdlPPVIgy/cRYGcj5XDgv
O06bd/SIVym7NfktT5mZ4YpqwBX9Dc3AkL+a/h4jsqNkn6tVE9+mWSfH7v1Wdq/U
M+eSb+X9n7De0iyF4iufWxYxENGfaa3tTQVe24vxzmC4wilqSIevwBAdaICX+Dzu
G/1P3bpLO6IS8AYSKdSlY35VVmFMWdgJCXq9JTWPpGYmFwCQNNMTKC5CDLdwbUJg
nNFA8fwrQPqb9lthvp0nQr77pS4FV9A2IY4vmLfFHaCLVmvDWaWJY+fX3C6zDP8s
W6lrDE/7QaJzmySxKV2uSWfQ9aJ9li3VMa32RHGwVWsrdbpJ6zz0jKAHfm201lhf
loPJpyOc0VGslHp2cclfoKLeXQ9o0jFxOR0avBq7/JpRWvEigZY8YRvy8pR9n0sS
1EIvqecZYwRAGqzrwxQ=
-----END CERTIFICATE-----
