Certificate:
    Data:
        Version: 3 (0x2)
        Serial Number: 268435514 (0x1000003a)
    Signature Algorithm: sha256WithRSAEncryption
        Issuer: CN=SRK4_sha256_2048_65537_v3_ca
        Validity
            Not Before: Mar  7 15:06:26 2018 GMT
            Not After : Mar  4 15:06:26 2028 GMT
        Subject: CN=CSF4_1_sha256_2048_65537_v3_usr
        Subject Public Key Info:
            Public Key Algorithm: rsaEncryption
                Public-Key: (2048 bit)
                Modulus:
                    00:a7:1f:88:d7:23:17:3a:11:55:cb:73:f7:d0:48:
                    11:a6:72:09:38:a4:de:7f:21:c2:a1:7e:5e:8b:7c:
                    2d:96:e0:12:be:86:7c:87:33:fb:e9:fe:c4:1d:1a:
                    34:3b:6b:69:ae:bd:39:41:07:30:bd:3e:b3:b3:22:
                    5e:b1:5f:4e:e9:e1:fb:33:86:48:3c:d3:4b:7f:93:
                    fb:39:33:f8:fd:c6:ec:58:ed:29:7b:49:78:30:28:
                    9f:e7:bd:64:75:78:cc:0e:5b:1d:e4:64:ac:0d:39:
                    bf:2e:4c:4c:f8:34:25:df:cb:ba:e6:82:75:6e:0f:
                    fa:e5:c7:80:cb:32:f7:38:41:74:e6:04:37:8b:3c:
                    ee:76:a3:e2:0b:a9:c2:8e:fd:6e:7e:4f:8e:86:a5:
                    81:fe:bf:1d:3f:aa:51:3f:2a:90:ed:ab:13:46:04:
                    a7:ef:b5:7b:21:80:33:d9:f1:ac:a7:82:93:29:8f:
                    d2:39:96:24:fb:b7:57:41:ef:2b:97:7f:ee:6a:81:
                    24:2c:a0:73:57:81:47:b1:a6:a2:82:e2:a1:32:d3:
                    59:59:65:3c:3e:d1:7c:2b:13:aa:19:45:14:79:44:
                    2e:aa:72:40:79:39:6e:54:70:52:75:97:3b:42:21:
                    87:bd:2a:70:10:8c:8b:98:c2:ec:a8:cc:4b:7b:3d:
                    ae:ef
                Exponent: 65537 (0x10001)
        X509v3 extensions:
            X509v3 Basic Constraints: 
                CA:FALSE
            Netscape Comment: 
                OpenSSL Generated Certificate
            X509v3 Subject Key Identifier: 
                CD:E4:F7:4D:D3:06:85:B7:9D:A0:B1:FA:29:28:BC:F1:C2:AE:EA:87
            X509v3 Authority Key Identifier: 
                keyid:D9:AC:20:81:98:D7:E1:CE:1C:56:58:CA:EA:61:EF:98:4C:1A:59:08

    Signature Algorithm: sha256WithRSAEncryption
         99:bf:c4:e4:17:2f:99:e4:ff:75:41:de:c1:e1:81:77:5f:3e:
         2c:4e:9c:08:b7:53:f0:18:cc:ac:3f:84:9f:d1:99:18:d5:48:
         4c:49:17:65:b8:e3:ba:df:2f:79:bc:9f:27:2f:bb:3e:42:c5:
         15:4e:2f:bf:06:00:60:0c:8e:6c:5e:86:69:09:69:c7:13:a0:
         2b:55:2b:4d:a8:bf:e7:41:cb:ba:03:b7:81:d0:26:b5:37:f7:
         c0:7b:c2:63:8a:d5:2c:73:06:0c:62:65:d1:a4:6c:ac:ff:b7:
         75:a2:33:b2:11:5f:f3:4d:9e:85:be:33:f2:d3:a7:5a:a8:76:
         44:8e:0e:af:79:1d:ea:43:0d:e4:57:40:97:f2:18:a5:32:35:
         b3:84:21:2a:77:14:1a:c2:6c:af:bf:f5:3d:14:05:19:33:be:
         d6:7c:4d:fe:af:74:c3:76:09:70:f5:98:6f:c8:7b:df:28:10:
         6b:1f:80:0d:12:86:0a:30:e3:7c:cc:e6:0a:db:14:6a:a7:c8:
         c8:33:1d:28:7e:b1:ec:56:d8:eb:e6:1e:f4:61:5e:cd:dd:fd:
         30:8c:80:28:10:74:12:a4:15:67:ec:3a:cd:d3:fb:a4:e5:27:
         c2:61:1d:f0:0d:a9:97:f9:38:d5:08:e8:53:72:d4:8c:9c:85:
         66:82:02:2f
-----BEGIN CERTIFICATE-----
MIIDSjCCAjKgAwIBAgIEEAAAOjANBgkqhkiG9w0BAQsFADAnMSUwIwYDVQQDDBxT
Uks0X3NoYTI1Nl8yMDQ4XzY1NTM3X3YzX2NhMB4XDTE4MDMwNzE1MDYyNloXDTI4
MDMwNDE1MDYyNlowKjEoMCYGA1UEAwwfQ1NGNF8xX3NoYTI1Nl8yMDQ4XzY1NTM3
X3YzX3VzcjCCASIwDQYJKoZIhvcNAQEBBQADggEPADCCAQoCggEBAKcfiNcjFzoR
Vctz99BIEaZyCTik3n8hwqF+Xot8LZbgEr6GfIcz++n+xB0aNDtraa69OUEHML0+
s7MiXrFfTunh+zOGSDzTS3+T+zkz+P3G7FjtKXtJeDAon+e9ZHV4zA5bHeRkrA05
vy5MTPg0Jd/LuuaCdW4P+uXHgMsy9zhBdOYEN4s87naj4gupwo79bn5Pjoalgf6/
HT+qUT8qkO2rE0YEp++1eyGAM9nxrKeCkymP0jmWJPu3V0HvK5d/7mqBJCygc1eB
R7GmooLioTLTWVllPD7RfCsTqhlFFHlELqpyQHk5blRwUnWXO0Ihh70qcBCMi5jC
7KjMS3s9ru8CAwEAAaN7MHkwCQYDVR0TBAIwADAsBglghkgBhvhCAQ0EHxYdT3Bl
blNTTCBHZW5lcmF0ZWQgQ2VydGlmaWNhdGUwHQYDVR0OBBYEFM3k903TBoW3naCx
+ikovPHCruqHMB8GA1UdIwQYMBaAFNmsIIGY1+HOHFZYyuph75hMGlkIMA0GCSqG
SIb3DQEBCwUAA4IBAQCZv8TkFy+Z5P91Qd7B4YF3Xz4sTpwIt1PwGMysP4Sf0ZkY
1UhMSRdluOO63y95vJ8nL7s+QsUVTi+/BgBgDI5sXoZpCWnHE6ArVStNqL/nQcu6
A7eB0Ca1N/fAe8JjitUscwYMYmXRpGys/7d1ojOyEV/zTZ6FvjPy06daqHZEjg6v
eR3qQw3kV0CX8hilMjWzhCEqdxQawmyvv/U9FAUZM77WfE3+r3TDdglw9ZhvyHvf
KBBrH4ANEoYKMON8zOYK2xRqp8jIMx0ofrHsVtjr5h70YV7N3f0wjIAoEHQSpBVn
7DrN0/uk5SfCYR3wDamX+TjVCOhTctSMnIVmggIv
-----END CERTIFICATE-----
