Certificate:
    Data:
        Version: 3 (0x2)
        Serial Number: 268435494 (0x10000026)
    Signature Algorithm: sha256WithRSAEncryption
        Issuer: CN=SRK1_sha256_1024_65537_v3_ca
        Validity
            Not Before: Mar  7 15:06:24 2018 GMT
            Not After : Mar  4 15:06:24 2028 GMT
        Subject: CN=IMG1_1_sha256_1024_65537_v3_usr
        Subject Public Key Info:
            Public Key Algorithm: rsaEncryption
                Public-Key: (1024 bit)
                Modulus:
                    00:d8:4a:d4:a3:29:42:91:85:29:ac:4f:c7:41:32:
                    9c:62:90:e8:3f:d5:ee:a3:83:37:f1:eb:76:8a:c5:
                    18:74:d0:f6:f6:22:d1:92:78:94:77:97:12:75:77:
                    9e:8d:7e:c9:a3:3b:39:6b:1c:2a:c2:cd:bb:d8:51:
                    6e:ed:6d:ed:db:da:a8:aa:49:4c:41:82:32:69:89:
                    40:77:e9:34:8b:39:19:1d:bc:77:f0:20:39:64:e5:
                    90:dd:d9:0b:a5:c9:0d:f0:1c:ba:11:9d:ac:9f:11:
                    1a:f8:1f:6f:7f:2a:bc:e9:7a:6f:ec:f0:8d:20:1e:
                    50:ab:fb:cc:13:24:70:96:61
                Exponent: 65537 (0x10001)
        X509v3 extensions:
            X509v3 Basic Constraints: 
                CA:FALSE
            Netscape Comment: 
                OpenSSL Generated Certificate
            X509v3 Subject Key Identifier: 
                9B:AD:17:C6:67:99:BF:2A:26:B3:B3:8D:14:66:81:15:76:64:0A:1C
            X509v3 Authority Key Identifier: 
                keyid:CF:57:50:EE:F2:FD:A2:D8:A3:C9:90:E1:77:B9:25:C8:2A:3A:0A:ED

    Signature Algorithm: sha256WithRSAEncryption
         0b:f0:aa:32:1f:65:bc:8d:d3:5b:c0:8f:6c:0a:6f:09:3a:e8:
         92:79:8c:6f:c6:a8:c6:75:ca:0c:89:e4:16:f7:31:64:02:0c:
         b0:d0:97:7b:21:3b:46:c9:87:d9:5d:b3:31:b5:90:83:3b:28:
         12:c6:1f:02:fe:46:8f:0e:4f:0b:28:7d:6d:da:de:2c:29:08:
         e1:84:6f:c9:aa:f9:4b:38:48:5f:68:06:e7:c9:e4:32:fc:73:
         0a:a6:6c:27:43:50:87:e4:0e:b6:b9:1f:a1:47:a5:7a:e3:df:
         c9:1e:8b:3c:51:15:a5:c1:71:7c:70:c0:cc:1e:49:d3:0f:6b:
         fa:3f
-----BEGIN CERTIFICATE-----
MIICRTCCAa6gAwIBAgIEEAAAJjANBgkqhkiG9w0BAQsFADAnMSUwIwYDVQQDDBxT
UksxX3NoYTI1Nl8xMDI0XzY1NTM3X3YzX2NhMB4XDTE4MDMwNzE1MDYyNFoXDTI4
MDMwNDE1MDYyNFowKjEoMCYGA1UEAwwfSU1HMV8xX3NoYTI1Nl8xMDI0XzY1NTM3
X3YzX3VzcjCBnzANBgkqhkiG9w0BAQEFAAOBjQAwgYkCgYEA2ErUoylCkYUprE/H
QTKcYpDoP9Xuo4M38et2isUYdND29iLRkniUd5cSdXeejX7Jozs5axwqws272FFu
7W3t29qoqklMQYIyaYlAd+k0izkZHbx38CA5ZOWQ3dkLpckN8By6EZ2snxEa+B9v
fyq86Xpv7PCNIB5Qq/vMEyRwlmECAwEAAaN7MHkwCQYDVR0TBAIwADAsBglghkgB
hvhCAQ0EHxYdT3BlblNTTCBHZW5lcmF0ZWQgQ2VydGlmaWNhdGUwHQYDVR0OBBYE
FJutF8Znmb8qJrOzjRRmgRV2ZAocMB8GA1UdIwQYMBaAFM9XUO7y/aLYo8mQ4Xe5
JcgqOgrtMA0GCSqGSIb3DQEBCwUAA4GBAAvwqjIfZbyN01vAj2wKbwk66JJ5jG/G
qMZ1ygyJ5Bb3MWQCDLDQl3shO0bJh9ldszG1kIM7KBLGHwL+Ro8OTwsofW3a3iwp
COGEb8mq+Us4SF9oBufJ5DL8cwqmbCdDUIfkDra5H6FHpXrj38keizxRFaXBcXxw
wMweSdMPa/o/
-----END CERTIFICATE-----
