Certificate:
    Data:
        Version: 3 (0x2)
        Serial Number: 268435518 (0x1000003e)
    Signature Algorithm: sha256WithRSAEncryption
        Issuer: CN=SRK1_sha256_4096_65537_v3_ca
        Validity
            Not Before: Mar  7 15:06:27 2018 GMT
            Not After : Mar  4 15:06:27 2028 GMT
        Subject: CN=IMG1_1_sha256_4096_65537_v3_usr
        Subject Public Key Info:
            Public Key Algorithm: rsaEncryption
                Public-Key: (4096 bit)
                Modulus:
                    00:c8:da:e5:b3:bc:46:4f:36:c4:10:fa:67:76:24:
                    1a:61:94:9a:8b:b3:df:e3:b2:d1:5c:dd:f4:6b:76:
                    c0:e6:fd:2a:21:fa:d1:64:e9:38:71:88:69:bc:3b:
                    e5:2b:48:8e:d4:ea:a2:99:ac:b9:7d:0f:0b:14:a0:
                    c3:a7:55:29:f8:28:5e:42:18:f4:2e:50:10:55:2a:
                    a2:a5:e3:0f:0c:01:c0:80:94:db:26:52:f5:6b:0e:
                    cd:d4:7f:28:9e:5c:86:67:76:a7:51:35:f2:92:f1:
                    f1:6a:43:e6:50:1d:14:79:4e:a3:ec:d4:73:a0:72:
                    b5:72:cc:04:16:75:3b:f1:b2:17:e4:ae:11:90:1e:
                    f9:95:48:49:7f:7a:2b:b1:bd:fb:a6:b8:78:14:56:
                    2e:1b:ae:0b:ba:74:a2:2b:f8:6e:ef:47:2a:71:46:
                    e6:eb:67:51:c8:e9:4b:f7:bf:a9:5b:f2:6c:b0:81:
                    77:09:c0:3e:d2:c9:77:08:22:10:4b:66:ca:36:84:
                    64:40:4f:ae:02:5b:94:d3:3d:17:b0:0c:36:7a:ec:
                    9e:d8:a8:fe:8b:ae:20:42:f8:6b:16:29:cf:b8:f5:
                    b9:13:36:8d:cd:2a:a0:04:ac:54:c9:a4:7d:ac:8a:
                    00:2d:e6:e0:f5:bc:f6:22:d2:f1:8f:19:d2:fa:02:
                    d1:54:5c:a8:f2:28:57:c4:95:6f:25:1d:7e:98:fd:
                    24:fb:06:85:ae:cf:32:4f:12:3c:05:dd:86:90:82:
                    3d:13:37:d5:2c:05:02:d5:9c:59:d9:9e:73:05:e4:
                    b4:62:8c:8b:f7:79:d0:1a:5e:35:a7:e9:aa:5f:61:
                    f3:02:71:ad:07:0a:cd:80:d5:19:56:46:38:45:fb:
                    6b:2e:57:49:12:15:a4:9c:12:77:ff:b2:1f:47:09:
                    55:16:23:e3:24:f1:f4:b1:fd:fe:9f:8b:6c:36:6b:
                    66:3c:30:35:f5:93:24:30:65:db:37:e8:b3:ad:20:
                    5b:0c:e7:af:62:a3:4a:91:d6:b9:19:32:71:37:89:
                    b6:b0:07:4b:48:2f:7b:fc:00:42:f2:1f:b1:ee:f0:
                    c2:7d:20:12:0c:91:a0:c2:06:cc:8b:8e:a2:d7:0c:
                    26:44:09:f1:a5:e9:b5:62:73:14:67:49:43:c8:0a:
                    1c:04:4a:81:07:0d:da:ab:15:93:27:8b:c0:54:6d:
                    e9:09:ab:6d:51:c2:cf:8c:ab:82:09:e0:8b:8a:e9:
                    32:39:b6:d2:38:14:ed:99:0b:89:5b:2f:3f:3b:e0:
                    57:0a:1e:9c:d1:a2:4c:07:5f:a6:de:0b:0c:ee:c9:
                    58:98:3b:86:11:49:62:a9:c7:23:78:91:46:e9:3d:
                    c2:c6:3f
                Exponent: 65537 (0x10001)
        X509v3 extensions:
            X509v3 Basic Constraints: 
                CA:FALSE
            Netscape Comment: 
                OpenSSL Generated Certificate
            X509v3 Subject Key Identifier: 
                AC:B8:43:12:2C:8A:73:D9:38:88:6F:76:6B:34:74:B9:50:43:6A:D9
            X509v3 Authority Key Identifier: 
                keyid:C4:97:9B:02:01:92:81:CC:05:2D:EA:2C:02:17:12:01:D3:EC:BF:B8

    Signature Algorithm: sha256WithRSAEncryption
         50:7f:5d:2e:2a:6b:3a:83:1b:ba:75:13:17:e6:80:d0:91:30:
         75:66:eb:a7:d9:5a:fd:66:48:ef:7f:65:54:a9:9a:1f:ea:4a:
         05:89:f0:6a:d8:65:3e:02:f5:b0:f8:e5:50:0b:4d:d0:f0:d0:
         5e:c3:85:c1:bd:f9:34:e0:60:86:6e:13:cc:3c:94:8b:cd:b4:
         c9:47:e4:4c:3e:9a:d1:ff:f0:29:43:ba:b7:4a:86:e0:5a:2d:
         97:d0:8b:6d:fd:9a:37:12:ae:f4:0b:42:75:ac:ad:90:4b:b5:
         81:34:bf:4b:d1:af:84:90:28:a6:e0:73:6f:39:64:2c:64:fb:
         ad:1a:5b:b1:08:51:1e:fd:21:45:5a:99:e5:11:25:a2:e6:01:
         aa:88:d6:33:57:9e:ac:41:41:54:8c:18:e1:5b:63:e3:63:9a:
         d8:5c:26:10:3b:68:74:4e:47:b1:87:fa:f6:a5:6e:80:fd:83:
         9f:67:dd:2d:02:cf:79:4b:ed:51:97:51:2a:4d:05:b1:ce:65:
         9e:76:72:2a:07:af:80:07:18:c3:ab:5f:72:ee:56:bb:55:70:
         59:4c:ea:49:6c:04:50:5f:9f:dd:b2:21:55:a5:f2:47:2e:81:
         0e:a3:a9:5c:2f:c1:57:b6:24:39:d7:fa:59:5b:b7:65:c5:f7:
         c4:33:db:4c:f2:fa:bb:d6:b9:2a:99:d5:14:ef:b7:51:00:42:
         43:0f:f6:8a:bd:a3:2c:31:1e:86:83:4e:dc:dc:86:b0:26:af:
         03:18:fd:de:1a:6d:c2:75:ed:52:95:21:00:77:a2:95:95:9a:
         ff:e9:4e:0d:4e:79:c7:46:5a:3b:53:b6:b1:ce:ae:91:0c:a0:
         d2:6d:e6:16:5e:d4:09:9e:43:3c:90:a3:7d:bd:27:fc:01:87:
         17:12:6e:83:d7:5f:22:d4:db:31:a6:4a:63:69:2b:7d:68:ee:
         a3:94:d6:d5:d6:35:73:aa:40:41:09:73:82:1c:a8:92:ff:50:
         04:d6:c9:01:8f:a9:44:2e:78:8a:a7:a3:79:5a:12:d1:70:d3:
         03:6b:a2:b2:52:d2:67:24:f3:97:52:67:31:f2:02:81:97:a1:
         0c:55:5c:8e:55:c0:ad:9a:97:55:81:88:ab:06:d6:c0:ad:c4:
         d3:2c:5b:fa:1f:ed:66:fa:75:8d:ea:75:52:cf:0d:27:7a:e2:
         57:7b:66:38:1b:cf:48:fb:f7:61:90:f7:8d:f1:5e:f0:77:85:
         22:ed:5f:85:cd:de:56:a7:95:7f:17:ca:39:47:74:df:94:71:
         c0:5c:64:18:e2:01:fa:2d:ce:a3:2e:8a:dc:46:16:4a:e5:af:
         ce:3f:ee:a5:89:ac:b0:ec
-----BEGIN CERTIFICATE-----
MIIFSjCCAzKgAwIBAgIEEAAAPjANBgkqhkiG9w0BAQsFADAnMSUwIwYDVQQDDBxT
UksxX3NoYTI1Nl80MDk2XzY1NTM3X3YzX2NhMB4XDTE4MDMwNzE1MDYyN1oXDTI4
MDMwNDE1MDYyN1owKjEoMCYGA1UEAwwfSU1HMV8xX3NoYTI1Nl80MDk2XzY1NTM3
X3YzX3VzcjCCAiIwDQYJKoZIhvcNAQEBBQADggIPADCCAgoCggIBAMja5bO8Rk82
xBD6Z3YkGmGUmouz3+Oy0Vzd9Gt2wOb9KiH60WTpOHGIabw75StIjtTqopmsuX0P
CxSgw6dVKfgoXkIY9C5QEFUqoqXjDwwBwICU2yZS9WsOzdR/KJ5chmd2p1E18pLx
8WpD5lAdFHlOo+zUc6BytXLMBBZ1O/GyF+SuEZAe+ZVISX96K7G9+6a4eBRWLhuu
C7p0oiv4bu9HKnFG5utnUcjpS/e/qVvybLCBdwnAPtLJdwgiEEtmyjaEZEBPrgJb
lNM9F7AMNnrsntio/ouuIEL4axYpz7j1uRM2jc0qoASsVMmkfayKAC3m4PW89iLS
8Y8Z0voC0VRcqPIoV8SVbyUdfpj9JPsGha7PMk8SPAXdhpCCPRM31SwFAtWcWdme
cwXktGKMi/d50BpeNafpql9h8wJxrQcKzYDVGVZGOEX7ay5XSRIVpJwSd/+yH0cJ
VRYj4yTx9LH9/p+LbDZrZjwwNfWTJDBl2zfos60gWwznr2KjSpHWuRkycTeJtrAH
S0gve/wAQvIfse7wwn0gEgyRoMIGzIuOotcMJkQJ8aXptWJzFGdJQ8gKHARKgQcN
2qsVkyeLwFRt6QmrbVHCz4yrggngi4rpMjm20jgU7ZkLiVsvPzvgVwoenNGiTAdf
pt4LDO7JWJg7hhFJYqnHI3iRRuk9wsY/AgMBAAGjezB5MAkGA1UdEwQCMAAwLAYJ
YIZIAYb4QgENBB8WHU9wZW5TU0wgR2VuZXJhdGVkIENlcnRpZmljYXRlMB0GA1Ud
DgQWBBSsuEMSLIpz2TiIb3ZrNHS5UENq2TAfBgNVHSMEGDAWgBTEl5sCAZKBzAUt
6iwCFxIB0+y/uDANBgkqhkiG9w0BAQsFAAOCAgEAUH9dLiprOoMbunUTF+aA0JEw
dWbrp9la/WZI739lVKmaH+pKBYnwathlPgL1sPjlUAtN0PDQXsOFwb35NOBghm4T
zDyUi820yUfkTD6a0f/wKUO6t0qG4Fotl9CLbf2aNxKu9AtCdaytkEu1gTS/S9Gv
hJAopuBzbzlkLGT7rRpbsQhRHv0hRVqZ5RElouYBqojWM1eerEFBVIwY4Vtj42Oa
2FwmEDtodE5HsYf69qVugP2Dn2fdLQLPeUvtUZdRKk0Fsc5lnnZyKgevgAcYw6tf
cu5Wu1VwWUzqSWwEUF+f3bIhVaXyRy6BDqOpXC/BV7YkOdf6WVu3ZcX3xDPbTPL6
u9a5KpnVFO+3UQBCQw/2ir2jLDEehoNO3NyGsCavAxj93hptwnXtUpUhAHeilZWa
/+lODU55x0ZaO1O2sc6ukQyg0m3mFl7UCZ5DPJCjfb0n/AGHFxJug9dfItTbMaZK
Y2krfWjuo5TW1dY1c6pAQQlzghyokv9QBNbJAY+pRC54iqejeVoS0XDTA2uislLS
ZyTzl1JnMfICgZehDFVcjlXArZqXVYGIqwbWwK3E0yxb+h/tZvp1jep1Us8NJ3ri
V3tmOBvPSPv3YZD3jfFe8HeFIu1fhc3eVqeVfxfKOUd035RxwFxkGOIB+i3Ooy6K
3EYWSuWvzj/upYmssOw=
-----END CERTIFICATE-----
