Certificate:
    Data:
        Version: 3 (0x2)
        Serial Number: 268435506 (0x10000032)
    Signature Algorithm: sha256WithRSAEncryption
        Issuer: CN=SRK1_sha256_2048_65537_v3_ca
        Validity
            Not Before: Mar  7 15:06:25 2018 GMT
            Not After : Mar  4 15:06:25 2028 GMT
        Subject: CN=IMG1_1_sha256_2048_65537_v3_usr
        Subject Public Key Info:
            Public Key Algorithm: rsaEncryption
                Public-Key: (2048 bit)
                Modulus:
                    00:ae:cf:be:dc:28:83:f8:46:5a:d0:f4:08:00:b8:
                    c5:e6:18:ea:46:ce:44:19:cb:2f:13:7a:12:b1:83:
                    54:9c:e1:fe:9d:91:b7:9a:ae:e3:f8:2d:24:f8:3d:
                    18:15:75:cf:17:6b:f4:45:cc:2f:e6:4b:6d:18:90:
                    f4:d3:89:a2:28:85:ea:9d:c8:14:cb:3a:52:f0:83:
                    ce:ba:28:5d:45:fd:f8:e8:18:a8:68:02:34:fb:f9:
                    11:3b:44:4c:c1:d5:07:ea:3f:5e:f6:79:1f:25:e5:
                    54:1b:62:d7:2a:c5:18:32:d9:17:a3:08:ed:03:9d:
                    d3:5b:cf:ac:85:aa:85:c8:27:b0:35:0e:18:10:8c:
                    c4:bb:e1:94:76:5a:9e:12:c3:ea:04:4a:a5:01:5d:
                    fa:33:6a:a0:e7:5f:7b:69:69:99:5d:1c:8f:77:40:
                    50:04:b4:44:1b:1e:dd:e7:ba:f5:1c:61:29:e6:c4:
                    d6:c0:a0:88:ee:a6:7a:ed:7e:51:df:f1:3e:89:65:
                    4e:4d:9f:ba:ee:ee:68:25:f2:0f:8a:c1:fd:c4:ab:
                    25:ff:25:8d:60:05:98:f1:74:13:a1:1c:f4:53:ad:
                    6b:8e:3c:5d:6a:c5:82:78:0e:2a:7e:07:ab:88:e4:
                    a6:a0:7a:49:e5:af:e6:c7:5f:28:bb:d2:5a:7e:8d:
                    a0:5b
                Exponent: 65537 (0x10001)
        X509v3 extensions:
            X509v3 Basic Constraints: 
                CA:FALSE
            Netscape Comment: 
                OpenSSL Generated Certificate
            X509v3 Subject Key Identifier: 
                36:48:53:19:B7:E6:98:B6:17:76:D7:9F:10:CF:DC:64:05:4E:9E:56
            X509v3 Authority Key Identifier: 
                keyid:BC:6B:35:11:5B:AD:9B:8F:35:86:43:87:0E:4D:1F:F7:D8:6D:B4:68

    Signature Algorithm: sha256WithRSAEncryption
         6f:35:7f:5c:60:e2:bc:8b:1b:e3:eb:0c:ee:b0:fc:99:90:c5:
         7d:97:4d:58:57:fc:aa:f7:f9:a1:ed:af:ed:64:9a:f9:c7:e2:
         a6:06:11:2d:9b:a2:d4:f3:aa:f1:f6:fa:9f:86:70:84:cb:44:
         b7:6a:a6:b9:dc:f9:43:12:af:a7:85:51:8a:36:41:04:ff:6f:
         d0:0b:2c:1b:d0:d9:0d:4d:45:85:12:97:d8:2c:4f:7f:d5:ff:
         26:ac:8e:6b:36:6e:98:b2:62:35:c0:ea:87:a8:c6:22:85:a2:
         ef:8f:4f:69:ac:56:3b:41:fc:b8:71:ba:d4:58:e1:5c:c8:0c:
         85:26:fc:a2:f9:ff:59:66:4f:a5:c2:ee:57:03:03:27:ce:db:
         24:0d:77:12:2e:27:e3:b9:e6:aa:44:75:e2:f9:89:d0:44:1c:
         1c:2d:7c:67:43:f4:a1:fd:52:9f:80:0a:16:70:83:82:16:db:
         21:50:45:e3:6b:ab:e1:dd:aa:c1:6a:eb:a1:d3:69:f7:c8:38:
         a7:e7:2a:38:61:40:5f:4f:81:bf:1f:9e:37:03:60:ba:a4:8c:
         82:ac:79:6e:47:e8:3d:21:e6:19:7e:31:1b:a0:21:db:6a:87:
         57:86:3b:c8:9e:1a:68:da:b5:62:85:74:a0:d7:4d:48:05:f8:
         db:38:3c:91
-----BEGIN CERTIFICATE-----
MIIDSjCCAjKgAwIBAgIEEAAAMjANBgkqhkiG9w0BAQsFADAnMSUwIwYDVQQDDBxT
UksxX3NoYTI1Nl8yMDQ4XzY1NTM3X3YzX2NhMB4XDTE4MDMwNzE1MDYyNVoXDTI4
MDMwNDE1MDYyNVowKjEoMCYGA1UEAwwfSU1HMV8xX3NoYTI1Nl8yMDQ4XzY1NTM3
X3YzX3VzcjCCASIwDQYJKoZIhvcNAQEBBQADggEPADCCAQoCggEBAK7Pvtwog/hG
WtD0CAC4xeYY6kbORBnLLxN6ErGDVJzh/p2Rt5qu4/gtJPg9GBV1zxdr9EXML+ZL
bRiQ9NOJoiiF6p3IFMs6UvCDzrooXUX9+OgYqGgCNPv5ETtETMHVB+o/XvZ5HyXl
VBti1yrFGDLZF6MI7QOd01vPrIWqhcgnsDUOGBCMxLvhlHZanhLD6gRKpQFd+jNq
oOdfe2lpmV0cj3dAUAS0RBse3ee69RxhKebE1sCgiO6meu1+Ud/xPollTk2fuu7u
aCXyD4rB/cSrJf8ljWAFmPF0E6Ec9FOta448XWrFgngOKn4Hq4jkpqB6SeWv5sdf
KLvSWn6NoFsCAwEAAaN7MHkwCQYDVR0TBAIwADAsBglghkgBhvhCAQ0EHxYdT3Bl
blNTTCBHZW5lcmF0ZWQgQ2VydGlmaWNhdGUwHQYDVR0OBBYEFDZIUxm35pi2F3bX
nxDP3GQFTp5WMB8GA1UdIwQYMBaAFLxrNRFbrZuPNYZDhw5NH/fYbbRoMA0GCSqG
SIb3DQEBCwUAA4IBAQBvNX9cYOK8ixvj6wzusPyZkMV9l01YV/yq9/mh7a/tZJr5
x+KmBhEtm6LU86rx9vqfhnCEy0S3aqa53PlDEq+nhVGKNkEE/2/QCywb0NkNTUWF
EpfYLE9/1f8mrI5rNm6YsmI1wOqHqMYihaLvj09prFY7Qfy4cbrUWOFcyAyFJvyi
+f9ZZk+lwu5XAwMnztskDXcSLifjueaqRHXi+YnQRBwcLXxnQ/Sh/VKfgAoWcIOC
FtshUEXja6vh3arBauuh02n3yDin5yo4YUBfT4G/H543A2C6pIyCrHluR+g9IeYZ
fjEboCHbaodXhjvInhpo2rVihXSg101IBfjbODyR
-----END CERTIFICATE-----
