Certificate:
    Data:
        Version: 3 (0x2)
        Serial Number: 268435521 (0x10000041)
    Signature Algorithm: sha256WithRSAEncryption
        Issuer: CN=SRK2_sha256_4096_65537_v3_ca
        Validity
            Not Before: Mar  7 15:06:30 2018 GMT
            Not After : Mar  4 15:06:30 2028 GMT
        Subject: CN=IMG2_1_sha256_4096_65537_v3_usr
        Subject Public Key Info:
            Public Key Algorithm: rsaEncryption
                Public-Key: (4096 bit)
                Modulus:
                    00:d2:ae:14:86:b0:74:e2:7c:6e:5d:2f:76:20:b9:
                    46:9e:b7:f7:c1:5e:2e:5a:4e:52:e1:88:40:85:39:
                    bd:c2:db:b0:6d:0c:ae:6e:2c:6b:29:05:a9:a9:04:
                    4a:ff:ef:83:10:8f:25:82:b6:2d:82:39:c6:23:ad:
                    fd:13:e3:ec:a5:4a:86:7e:20:06:41:48:e1:be:9d:
                    4b:95:10:11:f2:be:e2:31:22:72:fc:fc:05:42:9a:
                    62:46:2d:8f:48:fa:10:b2:76:2e:3f:71:79:c8:8e:
                    59:27:c2:10:0c:87:d2:dd:6d:bf:15:6f:9f:57:a6:
                    65:10:ce:3b:d6:e4:f1:29:07:c6:de:66:3c:f7:ff:
                    f9:77:53:e2:d4:d3:59:4a:2f:7d:a4:bf:67:f8:bd:
                    a9:1a:6a:9f:06:2e:1a:ff:b3:5d:ca:59:b9:e5:ad:
                    ac:c7:cf:f7:8c:cf:d3:e9:e4:ab:4a:ea:be:32:86:
                    2f:fb:8d:1f:c9:52:f1:d9:a5:ae:5c:fa:87:61:25:
                    3e:0c:62:c5:19:9f:10:ea:64:a8:c5:5c:06:b4:76:
                    b0:79:94:c6:8f:d6:22:5b:34:f0:a2:a8:c3:9f:22:
                    d7:8f:92:36:dc:54:af:6b:41:44:e7:7f:97:cb:c6:
                    51:14:54:8e:61:27:6a:bf:a0:b6:ae:9d:08:70:ef:
                    15:6f:35:f9:b7:0f:6e:17:4e:66:4e:a5:8f:be:87:
                    61:ac:c9:58:de:59:af:da:07:3f:51:83:5a:d8:1a:
                    fd:ba:a2:8e:2c:d2:91:63:06:f9:a9:fa:ee:99:71:
                    01:d2:d1:3a:f3:08:a4:2f:6b:a0:56:90:3b:d3:f8:
                    89:84:c5:66:1d:14:71:0c:64:2a:26:e7:c8:b7:7e:
                    94:61:42:c7:32:37:84:a1:b3:9d:ea:b5:94:2e:f7:
                    5e:f4:ee:3f:bd:af:a7:05:61:bc:d8:02:26:dd:4e:
                    56:24:d3:74:d7:07:d6:70:24:24:08:e7:8f:44:bc:
                    e7:80:49:1f:19:ae:c8:27:c6:68:a1:91:3c:63:ae:
                    73:5a:81:c9:5f:74:d9:85:bb:1e:05:89:9f:49:ae:
                    3e:45:c6:44:97:53:cb:20:1c:c3:7b:3f:35:4c:52:
                    3f:a0:00:95:b5:31:68:95:2c:f4:4c:af:6d:59:6b:
                    c4:94:e5:77:cb:bc:30:e6:d2:a0:69:99:a6:83:e5:
                    eb:ce:53:93:c1:9b:f8:21:d3:23:89:aa:94:f0:4f:
                    c1:1b:dc:a2:5e:cf:bb:87:90:a6:0f:88:87:be:8e:
                    54:a2:54:65:22:80:94:03:5a:e3:fd:4b:be:37:2d:
                    08:aa:34:db:e2:f3:7a:ad:b6:ae:59:ce:20:31:f2:
                    dd:4c:cb
                Exponent: 65537 (0x10001)
        X509v3 extensions:
            X509v3 Basic Constraints: 
                CA:FALSE
            Netscape Comment: 
                OpenSSL Generated Certificate
            X509v3 Subject Key Identifier: 
                0D:45:3E:65:52:B4:94:76:31:E2:27:54:9E:C0:F7:99:33:46:DE:23
            X509v3 Authority Key Identifier: 
                keyid:14:2A:2F:C9:EC:E7:18:33:FC:33:C0:D4:AD:E9:A5:F6:9D:45:20:92

    Signature Algorithm: sha256WithRSAEncryption
         05:bb:35:59:f1:53:47:50:56:ec:4b:8a:b5:29:62:d8:74:08:
         7c:85:14:5b:0c:77:9e:ae:06:df:45:df:75:be:b5:aa:d8:ea:
         b6:cc:58:df:d8:1e:13:a4:9e:d6:08:4a:0f:42:fd:db:ec:84:
         99:68:be:12:fc:ee:a8:3a:af:2d:f0:1b:e2:d9:25:77:02:d1:
         45:3c:85:49:03:1d:bc:f7:8c:53:18:fb:e3:54:e5:a2:37:6c:
         84:6f:7c:0b:64:7f:bd:53:70:c7:f6:ea:a2:4c:8b:b0:e3:e1:
         9f:c9:9c:7b:eb:7a:12:af:60:2f:d8:1b:c7:ff:f0:fa:e4:83:
         8d:f1:13:8c:39:52:76:06:b1:53:88:c0:19:33:a9:88:7c:a5:
         7b:dc:b6:06:0d:6c:87:ee:d4:7e:31:cd:df:c4:01:18:13:b9:
         88:81:7e:cc:b0:6d:9a:ff:5f:60:01:7f:e1:f2:40:93:51:58:
         8e:fd:b9:57:19:f0:67:c3:11:68:b0:e4:3b:f2:ae:60:8b:c8:
         dd:41:2c:de:ec:35:83:01:fa:30:20:fc:a9:83:85:ba:8c:cc:
         bc:5a:4e:9e:b9:cf:75:17:97:51:7e:6a:2e:19:9d:64:c5:e3:
         ad:f9:ac:6c:53:79:e7:fd:9d:c0:ad:26:c6:d6:eb:61:08:e1:
         91:04:f4:c3:3d:05:56:5a:41:d7:dc:78:b8:93:3e:23:79:87:
         a0:ae:3e:6c:ab:5e:81:a6:ce:24:d4:0f:56:6c:57:71:6e:3d:
         8e:a9:68:db:dc:67:de:76:d4:a9:80:0d:53:fa:97:f1:be:62:
         91:2a:37:ab:20:16:25:06:b0:8e:a7:89:d4:d0:b2:55:a1:a5:
         22:98:17:b4:39:5d:29:58:09:9f:7c:5b:25:c4:fa:0c:31:b9:
         99:f3:fa:c1:ff:de:28:30:68:37:8e:f4:ee:39:db:51:43:71:
         5e:97:d3:71:15:41:40:f9:80:08:40:6c:8a:3b:77:f4:eb:0a:
         68:a5:ea:4a:8b:60:9d:46:8c:d9:b7:67:f7:71:c6:86:31:f4:
         9a:1b:1c:36:1a:c2:25:4d:17:25:aa:98:46:e3:55:c1:02:a6:
         e1:04:97:56:1a:cc:2f:54:12:ea:1b:c0:21:db:f0:a4:37:90:
         9c:82:bc:41:3f:a9:ac:bc:68:2c:bf:7e:55:50:6b:33:b7:06:
         49:30:79:09:96:97:39:7a:5d:17:3e:94:73:64:f5:58:e6:ef:
         fa:a3:2b:0e:f9:aa:0b:92:76:08:58:5c:5b:ee:f3:c8:76:c5:
         a4:c5:df:c0:34:95:c6:78:43:53:db:ce:33:d1:0e:94:39:0d:
         e3:1a:39:a5:00:3f:d2:75
-----BEGIN CERTIFICATE-----
MIIFSjCCAzKgAwIBAgIEEAAAQTANBgkqhkiG9w0BAQsFADAnMSUwIwYDVQQDDBxT
UksyX3NoYTI1Nl80MDk2XzY1NTM3X3YzX2NhMB4XDTE4MDMwNzE1MDYzMFoXDTI4
MDMwNDE1MDYzMFowKjEoMCYGA1UEAwwfSU1HMl8xX3NoYTI1Nl80MDk2XzY1NTM3
X3YzX3VzcjCCAiIwDQYJKoZIhvcNAQEBBQADggIPADCCAgoCggIBANKuFIawdOJ8
bl0vdiC5Rp6398FeLlpOUuGIQIU5vcLbsG0Mrm4saykFqakESv/vgxCPJYK2LYI5
xiOt/RPj7KVKhn4gBkFI4b6dS5UQEfK+4jEicvz8BUKaYkYtj0j6ELJ2Lj9xeciO
WSfCEAyH0t1tvxVvn1emZRDOO9bk8SkHxt5mPPf/+XdT4tTTWUovfaS/Z/i9qRpq
nwYuGv+zXcpZueWtrMfP94zP0+nkq0rqvjKGL/uNH8lS8dmlrlz6h2ElPgxixRmf
EOpkqMVcBrR2sHmUxo/WIls08KKow58i14+SNtxUr2tBROd/l8vGURRUjmEnar+g
tq6dCHDvFW81+bcPbhdOZk6lj76HYazJWN5Zr9oHP1GDWtga/bqijizSkWMG+an6
7plxAdLROvMIpC9roFaQO9P4iYTFZh0UcQxkKibnyLd+lGFCxzI3hKGzneq1lC73
XvTuP72vpwVhvNgCJt1OViTTdNcH1nAkJAjnj0S854BJHxmuyCfGaKGRPGOuc1qB
yV902YW7HgWJn0muPkXGRJdTyyAcw3s/NUxSP6AAlbUxaJUs9EyvbVlrxJTld8u8
MObSoGmZpoPl685Tk8Gb+CHTI4mqlPBPwRvcol7Pu4eQpg+Ih76OVKJUZSKAlANa
4/1LvjctCKo02+Lzeq22rlnOIDHy3UzLAgMBAAGjezB5MAkGA1UdEwQCMAAwLAYJ
YIZIAYb4QgENBB8WHU9wZW5TU0wgR2VuZXJhdGVkIENlcnRpZmljYXRlMB0GA1Ud
DgQWBBQNRT5lUrSUdjHiJ1SewPeZM0beIzAfBgNVHSMEGDAWgBQUKi/J7OcYM/wz
wNSt6aX2nUUgkjANBgkqhkiG9w0BAQsFAAOCAgEABbs1WfFTR1BW7EuKtSli2HQI
fIUUWwx3nq4G30Xfdb61qtjqtsxY39geE6Se1ghKD0L92+yEmWi+EvzuqDqvLfAb
4tkldwLRRTyFSQMdvPeMUxj741TlojdshG98C2R/vVNwx/bqokyLsOPhn8mce+t6
Eq9gL9gbx//w+uSDjfETjDlSdgaxU4jAGTOpiHyle9y2Bg1sh+7UfjHN38QBGBO5
iIF+zLBtmv9fYAF/4fJAk1FYjv25VxnwZ8MRaLDkO/KuYIvI3UEs3uw1gwH6MCD8
qYOFuozMvFpOnrnPdReXUX5qLhmdZMXjrfmsbFN55/2dwK0mxtbrYQjhkQT0wz0F
VlpB19x4uJM+I3mHoK4+bKtegabOJNQPVmxXcW49jqlo29xn3nbUqYANU/qX8b5i
kSo3qyAWJQawjqeJ1NCyVaGlIpgXtDldKVgJn3xbJcT6DDG5mfP6wf/eKDBoN470
7jnbUUNxXpfTcRVBQPmACEBsijt39OsKaKXqSotgnUaM2bdn93HGhjH0mhscNhrC
JU0XJaqYRuNVwQKm4QSXVhrML1QS6hvAIdvwpDeQnIK8QT+prLxoLL9+VVBrM7cG
STB5CZaXOXpdFz6Uc2T1WObv+qMrDvmqC5J2CFhcW+7zyHbFpMXfwDSVxnhDU9vO
M9EOlDkN4xo5pQA/0nU=
-----END CERTIFICATE-----
