Certificate:
    Data:
        Version: 3 (0x2)
        Serial Number: 268435497 (0x10000029)
    Signature Algorithm: sha256WithRSAEncryption
        Issuer: CN=SRK2_sha256_1024_65537_v3_ca
        Validity
            Not Before: Mar  7 15:06:24 2018 GMT
            Not After : Mar  4 15:06:24 2028 GMT
        Subject: CN=IMG2_1_sha256_1024_65537_v3_usr
        Subject Public Key Info:
            Public Key Algorithm: rsaEncryption
                Public-Key: (1024 bit)
                Modulus:
                    00:bc:a8:7e:6f:1a:de:5b:a2:bc:97:b1:30:86:6f:
                    14:2b:9a:2e:43:9b:f1:c2:14:8e:37:57:84:f3:2a:
                    95:24:ec:4a:8e:a0:76:23:27:c8:f0:19:9e:88:3f:
                    5b:31:f5:64:c2:d2:f0:0f:0f:ff:35:64:c9:97:84:
                    b9:e3:d6:c4:8c:85:c1:eb:69:07:6d:e0:d8:a7:b6:
                    a9:06:5e:85:e4:5c:c7:d7:e7:49:f2:38:6b:90:1b:
                    fe:0d:dc:2b:42:45:b3:34:17:75:a8:be:39:60:bc:
                    d0:10:bf:8c:ab:4f:c8:b6:1d:58:17:87:a4:ed:cf:
                    69:5b:95:28:e3:8b:1f:3f:a9
                Exponent: 65537 (0x10001)
        X509v3 extensions:
            X509v3 Basic Constraints: 
                CA:FALSE
            Netscape Comment: 
                OpenSSL Generated Certificate
            X509v3 Subject Key Identifier: 
                AA:74:98:B0:C1:D4:B8:34:5C:9B:34:10:62:6E:FC:82:1F:26:40:0C
            X509v3 Authority Key Identifier: 
                keyid:B4:E7:2A:58:4C:75:2E:9C:2F:3B:89:33:08:84:73:F0:0A:10:21:87

    Signature Algorithm: sha256WithRSAEncryption
         56:69:1f:42:40:1e:e2:ab:d2:ca:6d:9c:25:0b:5d:11:be:8f:
         1a:49:e8:68:c9:f3:04:0b:59:05:2a:df:ea:39:2a:09:24:ed:
         19:b2:e6:45:60:65:51:c0:d3:c1:96:a2:23:ca:b3:bc:4c:56:
         93:41:13:15:cc:e6:b5:06:1e:3d:14:29:50:e2:54:17:3e:bb:
         32:ed:07:9c:5f:6a:6f:a7:80:b4:d0:8a:77:73:ae:1a:e7:96:
         7d:19:c8:99:b7:eb:a4:b6:d1:e7:aa:2f:f5:d0:aa:1c:56:26:
         04:f0:cd:06:7a:7d:e1:2d:cd:a7:8e:54:eb:51:ef:90:ca:55:
         fd:5f
-----BEGIN CERTIFICATE-----
MIICRTCCAa6gAwIBAgIEEAAAKTANBgkqhkiG9w0BAQsFADAnMSUwIwYDVQQDDBxT
UksyX3NoYTI1Nl8xMDI0XzY1NTM3X3YzX2NhMB4XDTE4MDMwNzE1MDYyNFoXDTI4
MDMwNDE1MDYyNFowKjEoMCYGA1UEAwwfSU1HMl8xX3NoYTI1Nl8xMDI0XzY1NTM3
X3YzX3VzcjCBnzANBgkqhkiG9w0BAQEFAAOBjQAwgYkCgYEAvKh+bxreW6K8l7Ew
hm8UK5ouQ5vxwhSON1eE8yqVJOxKjqB2IyfI8BmeiD9bMfVkwtLwDw//NWTJl4S5
49bEjIXB62kHbeDYp7apBl6F5FzH1+dJ8jhrkBv+DdwrQkWzNBd1qL45YLzQEL+M
q0/Ith1YF4ek7c9pW5Uo44sfP6kCAwEAAaN7MHkwCQYDVR0TBAIwADAsBglghkgB
hvhCAQ0EHxYdT3BlblNTTCBHZW5lcmF0ZWQgQ2VydGlmaWNhdGUwHQYDVR0OBBYE
FKp0mLDB1Lg0XJs0EGJu/IIfJkAMMB8GA1UdIwQYMBaAFLTnKlhMdS6cLzuJMwiE
c/AKECGHMA0GCSqGSIb3DQEBCwUAA4GBAFZpH0JAHuKr0sptnCULXRG+jxpJ6GjJ
8wQLWQUq3+o5Kgkk7Rmy5kVgZVHA08GWoiPKs7xMVpNBExXM5rUGHj0UKVDiVBc+
uzLtB5xfam+ngLTQindzrhrnln0ZyJm366S20eeqL/XQqhxWJgTwzQZ6feEtzaeO
VOtR75DKVf1f
-----END CERTIFICATE-----
