Certificate:
    Data:
        Version: 3 (0x2)
        Serial Number: 268435512 (0x10000038)
    Signature Algorithm: sha256WithRSAEncryption
        Issuer: CN=SRK3_sha256_2048_65537_v3_ca
        Validity
            Not Before: Mar  7 15:06:26 2018 GMT
            Not After : Mar  4 15:06:26 2028 GMT
        Subject: CN=IMG3_1_sha256_2048_65537_v3_usr
        Subject Public Key Info:
            Public Key Algorithm: rsaEncryption
                Public-Key: (2048 bit)
                Modulus:
                    00:ce:78:ab:9c:d0:7d:d3:3f:42:8b:f3:19:a8:a9:
                    08:3b:a9:ae:21:8f:33:e4:97:2f:72:e6:1f:30:c0:
                    fd:93:c2:1f:57:1e:68:08:b3:4f:30:2e:66:8b:db:
                    34:6c:a8:a1:76:95:e4:54:d0:f1:bb:e1:be:d0:23:
                    f3:c7:3c:ac:c4:4b:27:5b:2d:3c:3f:d0:a2:c2:7c:
                    a9:e0:bf:b6:4d:c0:5c:fa:55:ca:61:70:32:74:91:
                    db:3d:b7:fa:81:8c:d6:cd:eb:2b:30:80:17:3b:3e:
                    ac:54:aa:c6:63:25:37:c3:cd:79:50:ec:e7:8e:9d:
                    84:03:20:3e:1c:a4:66:fb:4d:36:dd:28:6c:8a:71:
                    e5:5b:a1:4f:29:2c:0c:af:d4:74:cc:b9:c7:25:b7:
                    31:86:9a:59:9d:31:a1:77:8e:01:1b:83:18:8b:fe:
                    d6:61:27:cb:59:47:f6:10:6f:80:84:44:28:e6:60:
                    41:68:c1:6d:ff:15:7b:57:ea:56:f0:00:5f:e4:59:
                    a1:7c:95:46:da:6d:fa:7d:27:be:96:2e:6a:23:a7:
                    36:d3:8f:c5:60:18:95:84:59:34:b3:69:bd:73:76:
                    b3:70:9a:6b:46:cf:4e:5d:62:4b:f9:4c:e5:ba:c9:
                    44:f2:71:77:6b:2b:e6:c8:1c:48:54:5b:76:e9:f6:
                    04:0d
                Exponent: 65537 (0x10001)
        X509v3 extensions:
            X509v3 Basic Constraints: 
                CA:FALSE
            Netscape Comment: 
                OpenSSL Generated Certificate
            X509v3 Subject Key Identifier: 
                3F:9F:5F:61:D6:F2:98:7D:9E:5C:B2:41:63:9E:A8:20:13:33:28:AE
            X509v3 Authority Key Identifier: 
                keyid:D9:27:80:11:F9:3E:11:7E:CA:B3:5F:72:46:15:4E:38:4E:2E:C4:02

    Signature Algorithm: sha256WithRSAEncryption
         06:b7:e0:a1:63:62:12:63:78:b3:68:13:4f:bd:7a:75:4b:8a:
         0e:da:82:99:b4:b3:fb:c4:8a:5a:3a:80:a7:56:8c:8b:b9:5f:
         63:35:ee:0a:bb:90:e8:25:24:f7:c7:65:1d:21:48:79:b3:71:
         4f:da:4e:60:71:77:72:31:c4:8e:35:9d:f4:0d:54:31:80:5f:
         09:21:ec:c2:10:6c:66:59:12:0b:ff:63:4f:10:be:d6:81:d8:
         4c:13:71:3f:3f:a5:b9:c9:73:cf:47:7d:6e:09:16:c3:80:97:
         6e:72:da:ef:49:04:f9:1f:67:9d:c3:1e:e3:97:a7:e3:f6:ee:
         d4:1c:88:b6:17:ce:6e:b8:0c:a9:90:0e:9c:ce:51:7f:af:b9:
         d3:67:bc:0d:22:c3:38:50:4b:cf:ce:c6:ad:60:1f:82:2c:94:
         72:a4:01:21:e9:54:be:c0:8e:63:4c:fe:96:bf:f0:e3:c3:e6:
         3b:2d:e4:d2:34:92:55:d3:2e:a7:16:a6:e8:5a:dd:3b:9b:46:
         76:28:55:27:76:92:e6:6b:e5:56:65:2f:2c:5c:0b:b7:c5:ae:
         ec:81:1f:0e:ac:b5:15:e5:09:46:c1:53:8f:78:ee:01:dd:e0:
         ac:94:83:de:42:3e:9d:44:0c:1c:70:c8:f8:9c:fd:a8:62:e7:
         2b:85:90:54
-----BEGIN CERTIFICATE-----
MIIDSjCCAjKgAwIBAgIEEAAAODANBgkqhkiG9w0BAQsFADAnMSUwIwYDVQQDDBxT
UkszX3NoYTI1Nl8yMDQ4XzY1NTM3X3YzX2NhMB4XDTE4MDMwNzE1MDYyNloXDTI4
MDMwNDE1MDYyNlowKjEoMCYGA1UEAwwfSU1HM18xX3NoYTI1Nl8yMDQ4XzY1NTM3
X3YzX3VzcjCCASIwDQYJKoZIhvcNAQEBBQADggEPADCCAQoCggEBAM54q5zQfdM/
QovzGaipCDupriGPM+SXL3LmHzDA/ZPCH1ceaAizTzAuZovbNGyooXaV5FTQ8bvh
vtAj88c8rMRLJ1stPD/QosJ8qeC/tk3AXPpVymFwMnSR2z23+oGM1s3rKzCAFzs+
rFSqxmMlN8PNeVDs546dhAMgPhykZvtNNt0obIpx5VuhTyksDK/UdMy5xyW3MYaa
WZ0xoXeOARuDGIv+1mEny1lH9hBvgIREKOZgQWjBbf8Ve1fqVvAAX+RZoXyVRtpt
+n0nvpYuaiOnNtOPxWAYlYRZNLNpvXN2s3Caa0bPTl1iS/lM5brJRPJxd2sr5sgc
SFRbdun2BA0CAwEAAaN7MHkwCQYDVR0TBAIwADAsBglghkgBhvhCAQ0EHxYdT3Bl
blNTTCBHZW5lcmF0ZWQgQ2VydGlmaWNhdGUwHQYDVR0OBBYEFD+fX2HW8ph9nlyy
QWOeqCATMyiuMB8GA1UdIwQYMBaAFNkngBH5PhF+yrNfckYVTjhOLsQCMA0GCSqG
SIb3DQEBCwUAA4IBAQAGt+ChY2ISY3izaBNPvXp1S4oO2oKZtLP7xIpaOoCnVoyL
uV9jNe4Ku5DoJST3x2UdIUh5s3FP2k5gcXdyMcSONZ30DVQxgF8JIezCEGxmWRIL
/2NPEL7WgdhME3E/P6W5yXPPR31uCRbDgJductrvSQT5H2edwx7jl6fj9u7UHIi2
F85uuAypkA6czlF/r7nTZ7wNIsM4UEvPzsatYB+CLJRypAEh6VS+wI5jTP6Wv/Dj
w+Y7LeTSNJJV0y6nFqboWt07m0Z2KFUndpLma+VWZS8sXAu3xa7sgR8OrLUV5QlG
wVOPeO4B3eCslIPeQj6dRAwccMj4nP2oYucrhZBU
-----END CERTIFICATE-----
