Certificate:
    Data:
        Version: 3 (0x2)
        Serial Number: 268435524 (0x10000044)
    Signature Algorithm: sha256WithRSAEncryption
        Issuer: CN=SRK3_sha256_4096_65537_v3_ca
        Validity
            Not Before: Mar  7 15:06:31 2018 GMT
            Not After : Mar  4 15:06:31 2028 GMT
        Subject: CN=IMG3_1_sha256_4096_65537_v3_usr
        Subject Public Key Info:
            Public Key Algorithm: rsaEncryption
                Public-Key: (4096 bit)
                Modulus:
                    00:d9:4a:66:0e:cd:5d:b3:e8:07:c5:df:cd:31:06:
                    31:ac:e9:3f:39:90:dc:cd:57:ab:96:3a:5c:79:b9:
                    6c:45:bf:85:69:bb:47:7d:c6:13:9f:f5:e0:0f:00:
                    7e:af:20:a9:8f:98:a3:71:45:5d:c5:d7:2f:58:cc:
                    c8:6c:95:63:d2:94:f3:38:60:ed:4d:66:20:75:62:
                    66:ad:b6:08:f2:80:78:f5:e8:28:02:1f:c4:46:cc:
                    0b:1d:cc:71:f2:90:bd:c1:7f:8b:33:bd:2c:6b:27:
                    fc:08:7c:93:f5:4a:3a:e9:28:cd:1a:a9:50:8f:91:
                    63:bd:7a:8a:60:e7:4a:dd:cb:ae:33:21:a4:44:ed:
                    19:ae:26:8d:76:56:20:94:5f:9f:e2:2e:39:09:2c:
                    31:92:39:fa:6b:48:9c:bf:b1:b2:ad:16:bd:0d:c5:
                    1e:33:d2:b9:39:27:f7:65:56:fd:4e:00:ad:e7:ca:
                    11:c6:ae:bd:f0:8b:bc:38:33:70:c7:7f:ce:3f:b3:
                    52:f8:29:28:f3:cc:b2:df:cc:2e:54:22:d4:dd:93:
                    af:eb:ea:6c:7f:bf:52:61:f5:d2:1b:19:93:57:13:
                    09:9a:78:56:25:23:6d:a5:c5:4d:ac:10:47:03:a0:
                    87:f0:fd:97:af:04:c5:f1:ab:82:c4:48:22:72:be:
                    17:4a:21:f7:ec:ec:78:40:fd:28:d3:c0:b3:fb:ae:
                    05:4f:b2:d9:0a:f5:59:d8:3b:4d:b5:89:f2:ac:ad:
                    76:82:a1:ce:55:ef:7e:6f:15:52:56:89:dd:67:8c:
                    11:36:e3:6a:2c:85:3e:5c:37:6b:f8:27:c3:ff:cb:
                    f4:65:34:1b:22:37:c1:ea:fc:c6:24:69:95:7b:14:
                    5a:9a:1b:6d:3c:bb:20:6d:bd:5f:b7:fb:cb:56:1f:
                    9b:65:f7:7c:a6:ef:e9:c6:6b:f8:4c:cb:9f:d7:38:
                    b8:8c:00:39:00:d3:e2:5d:ed:2c:89:02:7c:96:29:
                    49:41:7a:69:b2:c4:1e:da:7e:6c:c3:1b:d7:d6:fd:
                    11:e6:e2:71:89:3d:ff:4c:90:ff:26:8c:ac:18:6c:
                    28:16:b5:01:16:01:2d:8b:e7:18:59:5f:e1:55:a8:
                    24:88:43:37:b3:64:30:10:50:8e:f7:9f:b6:3d:cd:
                    8f:6b:bd:d2:5b:44:c2:5e:c2:83:3c:4d:b8:bd:34:
                    f6:78:89:2f:77:1e:2f:0f:0c:c9:c0:ab:cb:1a:e0:
                    08:4a:18:12:69:b6:7a:82:2f:b9:3a:7d:eb:50:1c:
                    29:6e:20:cf:48:5f:af:a8:ce:27:a8:00:10:d9:f2:
                    1d:ac:9d:9a:29:d9:97:77:29:6c:2b:1d:d1:9f:90:
                    37:45:79
                Exponent: 65537 (0x10001)
        X509v3 extensions:
            X509v3 Basic Constraints: 
                CA:FALSE
            Netscape Comment: 
                OpenSSL Generated Certificate
            X509v3 Subject Key Identifier: 
                FF:0E:31:67:C8:6E:90:67:15:C1:C8:FF:E2:B7:DA:7A:5D:31:46:2B
            X509v3 Authority Key Identifier: 
                keyid:60:B4:F1:D8:95:3F:DF:B1:F3:27:E7:7E:00:9F:45:5D:14:83:67:EB

    Signature Algorithm: sha256WithRSAEncryption
         68:9d:35:91:dd:cb:ce:61:4f:70:b1:14:77:6b:0b:0d:c7:33:
         3e:eb:e9:f0:b1:e0:0a:ed:10:8f:2b:10:30:4a:92:98:df:24:
         0a:3a:5a:34:42:bd:4c:91:f1:af:bf:77:e9:0b:61:a8:fa:bc:
         4a:54:cb:ca:f0:57:48:13:70:e7:d1:d3:96:1a:db:19:62:1b:
         f2:5a:56:83:21:52:7f:4c:1f:86:95:c5:46:8f:23:b6:6d:cd:
         95:13:f1:e2:ef:8d:f9:cd:66:b2:f9:aa:84:c8:84:7b:cf:86:
         9d:31:09:0e:1c:a7:7c:dd:4e:42:9a:ec:5b:a9:38:33:3f:0a:
         82:13:61:9e:50:f4:02:be:ad:48:31:69:96:ea:43:cd:43:26:
         02:4b:fc:c2:f9:87:af:a7:73:d8:3e:ce:25:9a:de:00:96:01:
         ac:af:a4:93:98:8a:d3:e3:73:09:14:97:26:d4:37:81:af:5c:
         d4:be:59:34:5c:12:3a:5a:26:30:79:bc:5d:62:56:e8:8c:d8:
         34:59:6e:67:85:83:a3:58:99:2b:87:2b:73:fd:c0:cc:d2:29:
         ee:a2:95:d4:42:6a:df:58:c8:b1:2f:ad:b2:d4:c0:0e:a7:b2:
         70:1a:cd:a5:16:87:5b:4d:04:99:52:bb:b9:00:2b:bc:b6:ee:
         dd:83:25:87:4a:be:fe:4d:d4:5c:df:90:8c:cd:e9:5d:5e:b7:
         15:5d:23:65:e5:fd:df:19:49:8c:0b:a9:05:8a:dd:da:ea:f9:
         af:e1:9a:ac:ce:0e:1b:57:57:c6:8b:44:89:f5:46:f9:64:dc:
         f1:24:71:83:54:69:b6:81:7a:3d:8a:41:61:dc:3f:ab:fc:e7:
         8e:cd:d3:96:57:8e:85:68:75:10:4c:bc:9f:30:54:3b:28:a0:
         f5:24:bd:20:64:54:26:98:74:a7:64:3a:9c:36:88:eb:ee:ee:
         2e:8d:26:65:1b:88:7e:f2:e2:a2:cb:9d:48:05:28:a2:2d:20:
         5a:32:31:af:59:ef:5f:af:be:f3:ff:e2:08:c7:4a:6b:b9:d4:
         4b:b2:89:98:2d:98:ae:5b:07:eb:14:c8:28:2e:c8:4e:b2:71:
         2e:5f:b9:26:98:d8:fc:db:02:63:95:ad:8a:d5:19:67:04:c5:
         bb:33:db:bf:ec:ae:b4:44:36:17:25:39:13:f6:67:76:26:41:
         1f:76:e7:13:05:c8:c7:7f:eb:7c:bf:1f:d5:d8:dd:5e:5d:37:
         3c:2c:f5:72:c9:d9:0a:2f:65:00:c6:1b:6d:42:3b:ae:9e:f3:
         dd:08:5c:c4:30:66:ae:af:d3:79:d8:ec:b4:67:16:ac:89:d7:
         87:5f:c2:bd:38:4a:15:fd
-----BEGIN CERTIFICATE-----
MIIFSjCCAzKgAwIBAgIEEAAARDANBgkqhkiG9w0BAQsFADAnMSUwIwYDVQQDDBxT
UkszX3NoYTI1Nl80MDk2XzY1NTM3X3YzX2NhMB4XDTE4MDMwNzE1MDYzMVoXDTI4
MDMwNDE1MDYzMVowKjEoMCYGA1UEAwwfSU1HM18xX3NoYTI1Nl80MDk2XzY1NTM3
X3YzX3VzcjCCAiIwDQYJKoZIhvcNAQEBBQADggIPADCCAgoCggIBANlKZg7NXbPo
B8XfzTEGMazpPzmQ3M1Xq5Y6XHm5bEW/hWm7R33GE5/14A8Afq8gqY+Yo3FFXcXX
L1jMyGyVY9KU8zhg7U1mIHViZq22CPKAePXoKAIfxEbMCx3McfKQvcF/izO9LGsn
/Ah8k/VKOukozRqpUI+RY716imDnSt3LrjMhpETtGa4mjXZWIJRfn+IuOQksMZI5
+mtInL+xsq0WvQ3FHjPSuTkn92VW/U4ArefKEcauvfCLvDgzcMd/zj+zUvgpKPPM
st/MLlQi1N2Tr+vqbH+/UmH10hsZk1cTCZp4ViUjbaXFTawQRwOgh/D9l68ExfGr
gsRIInK+F0oh9+zseED9KNPAs/uuBU+y2Qr1Wdg7TbWJ8qytdoKhzlXvfm8VUlaJ
3WeMETbjaiyFPlw3a/gnw//L9GU0GyI3wer8xiRplXsUWpobbTy7IG29X7f7y1Yf
m2X3fKbv6cZr+EzLn9c4uIwAOQDT4l3tLIkCfJYpSUF6abLEHtp+bMMb19b9Eebi
cYk9/0yQ/yaMrBhsKBa1ARYBLYvnGFlf4VWoJIhDN7NkMBBQjveftj3Nj2u90ltE
wl7CgzxNuL009niJL3ceLw8MycCryxrgCEoYEmm2eoIvuTp961AcKW4gz0hfr6jO
J6gAENnyHaydminZl3cpbCsd0Z+QN0V5AgMBAAGjezB5MAkGA1UdEwQCMAAwLAYJ
YIZIAYb4QgENBB8WHU9wZW5TU0wgR2VuZXJhdGVkIENlcnRpZmljYXRlMB0GA1Ud
DgQWBBT/DjFnyG6QZxXByP/it9p6XTFGKzAfBgNVHSMEGDAWgBRgtPHYlT/fsfMn
534An0VdFINn6zANBgkqhkiG9w0BAQsFAAOCAgEAaJ01kd3LzmFPcLEUd2sLDccz
Puvp8LHgCu0QjysQMEqSmN8kCjpaNEK9TJHxr7936QthqPq8SlTLyvBXSBNw59HT
lhrbGWIb8lpWgyFSf0wfhpXFRo8jtm3NlRPx4u+N+c1msvmqhMiEe8+GnTEJDhyn
fN1OQprsW6k4Mz8KghNhnlD0Ar6tSDFplupDzUMmAkv8wvmHr6dz2D7OJZreAJYB
rK+kk5iK0+NzCRSXJtQ3ga9c1L5ZNFwSOlomMHm8XWJW6IzYNFluZ4WDo1iZK4cr
c/3AzNIp7qKV1EJq31jIsS+tstTADqeycBrNpRaHW00EmVK7uQArvLbu3YMlh0q+
/k3UXN+QjM3pXV63FV0jZeX93xlJjAupBYrd2ur5r+GarM4OG1dXxotEifVG+WTc
8SRxg1RptoF6PYpBYdw/q/znjs3TlleOhWh1EEy8nzBUOyig9SS9IGRUJph0p2Q6
nDaI6+7uLo0mZRuIfvLiosudSAUooi0gWjIxr1nvX6++8//iCMdKa7nUS7KJmC2Y
rlsH6xTIKC7ITrJxLl+5JpjY/NsCY5WtitUZZwTFuzPbv+yutEQ2FyU5E/ZndiZB
H3bnEwXIx3/rfL8f1djdXl03PCz1csnZCi9lAMYbbUI7rp7z3QhcxDBmrq/Tedjs
tGcWrInXh1/CvThKFf0=
-----END CERTIFICATE-----
