Certificate:
    Data:
        Version: 3 (0x2)
        Serial Number: 268435500 (0x1000002c)
    Signature Algorithm: sha256WithRSAEncryption
        Issuer: CN=SRK3_sha256_1024_65537_v3_ca
        Validity
            Not Before: Mar  7 15:06:24 2018 GMT
            Not After : Mar  4 15:06:24 2028 GMT
        Subject: CN=IMG3_1_sha256_1024_65537_v3_usr
        Subject Public Key Info:
            Public Key Algorithm: rsaEncryption
                Public-Key: (1024 bit)
                Modulus:
                    00:9d:8a:26:ba:c0:fd:83:5a:62:5c:67:c6:4e:5b:
                    8f:1c:e1:8c:a5:64:bf:06:c7:df:9e:c8:de:23:ee:
                    73:f8:e8:99:ef:c8:ef:cc:3b:28:68:63:eb:97:75:
                    22:66:f5:2a:75:e4:04:7d:d3:16:f8:5a:2e:b6:18:
                    4f:e2:8b:d6:59:04:7d:0e:db:4b:bc:55:5a:88:05:
                    f3:74:e2:2f:89:15:d2:b6:07:76:fb:86:cf:eb:b5:
                    bf:ca:4e:2d:43:9d:cd:e5:55:ee:d8:a3:28:75:1a:
                    79:b8:c7:68:34:61:c8:c3:b6:4a:53:4b:05:77:f2:
                    d1:1f:27:c5:8c:c6:03:b7:5f
                Exponent: 65537 (0x10001)
        X509v3 extensions:
            X509v3 Basic Constraints: 
                CA:FALSE
            Netscape Comment: 
                OpenSSL Generated Certificate
            X509v3 Subject Key Identifier: 
                93:79:0F:9C:F2:B7:B1:EB:12:A3:A2:78:D8:ED:63:BF:62:29:4F:6C
            X509v3 Authority Key Identifier: 
                keyid:A4:D9:42:92:FA:38:26:DF:62:24:4C:32:9B:44:A7:9F:F3:13:6D:D2

    Signature Algorithm: sha256WithRSAEncryption
         8e:0f:e8:cd:f7:a2:18:b4:d5:ba:71:d7:92:61:99:55:ca:6b:
         a4:54:37:cb:4f:4e:12:26:d0:d1:98:c4:af:d0:49:d2:00:3d:
         03:37:86:a4:be:fe:28:16:c3:94:3a:24:85:bb:1a:22:98:68:
         a8:b6:7f:49:ec:47:0e:5b:dc:4f:4e:d3:5f:12:0e:6c:a4:f4:
         d1:dc:2a:f3:6f:d3:cd:bf:90:4b:e5:ce:cd:75:a7:f6:fa:e8:
         25:49:97:10:51:db:8d:b3:ac:b1:04:de:c2:31:f7:0c:8c:95:
         c8:cd:b2:05:04:05:2f:2a:16:ec:d6:1e:15:f7:82:e7:51:92:
         d9:92
-----BEGIN CERTIFICATE-----
MIICRTCCAa6gAwIBAgIEEAAALDANBgkqhkiG9w0BAQsFADAnMSUwIwYDVQQDDBxT
UkszX3NoYTI1Nl8xMDI0XzY1NTM3X3YzX2NhMB4XDTE4MDMwNzE1MDYyNFoXDTI4
MDMwNDE1MDYyNFowKjEoMCYGA1UEAwwfSU1HM18xX3NoYTI1Nl8xMDI0XzY1NTM3
X3YzX3VzcjCBnzANBgkqhkiG9w0BAQEFAAOBjQAwgYkCgYEAnYomusD9g1piXGfG
TluPHOGMpWS/BsffnsjeI+5z+OiZ78jvzDsoaGPrl3UiZvUqdeQEfdMW+FouthhP
4ovWWQR9DttLvFVaiAXzdOIviRXStgd2+4bP67W/yk4tQ53N5VXu2KModRp5uMdo
NGHIw7ZKU0sFd/LRHyfFjMYDt18CAwEAAaN7MHkwCQYDVR0TBAIwADAsBglghkgB
hvhCAQ0EHxYdT3BlblNTTCBHZW5lcmF0ZWQgQ2VydGlmaWNhdGUwHQYDVR0OBBYE
FJN5D5zyt7HrEqOieNjtY79iKU9sMB8GA1UdIwQYMBaAFKTZQpL6OCbfYiRMMptE
p5/zE23SMA0GCSqGSIb3DQEBCwUAA4GBAI4P6M33ohi01bpx15JhmVXKa6RUN8tP
ThIm0NGYxK/QSdIAPQM3hqS+/igWw5Q6JIW7GiKYaKi2f0nsRw5b3E9O018SDmyk
9NHcKvNv082/kEvlzs11p/b66CVJlxBR242zrLEE3sIx9wyMlcjNsgUEBS8qFuzW
HhX3gudRktmS
-----END CERTIFICATE-----
