Certificate:
    Data:
        Version: 3 (0x2)
        Serial Number: 268435503 (0x1000002f)
    Signature Algorithm: sha256WithRSAEncryption
        Issuer: CN=SRK4_sha256_1024_65537_v3_ca
        Validity
            Not Before: Mar  7 15:06:25 2018 GMT
            Not After : Mar  4 15:06:25 2028 GMT
        Subject: CN=IMG4_1_sha256_1024_65537_v3_usr
        Subject Public Key Info:
            Public Key Algorithm: rsaEncryption
                Public-Key: (1024 bit)
                Modulus:
                    00:eb:db:e9:04:be:d4:f5:75:da:f2:02:d6:5b:47:
                    83:05:bf:c8:0b:c9:6e:d7:be:2e:95:19:6b:dc:ae:
                    61:d5:04:db:13:58:36:7c:54:46:59:e6:20:3e:de:
                    38:2f:d1:b0:c9:81:e6:4d:a0:8a:ff:0f:b1:80:7b:
                    03:fe:c1:85:9c:1f:9a:cf:68:8e:26:7a:19:7a:bd:
                    8e:93:70:3c:a6:3b:8d:49:4c:1f:6b:79:7d:c9:89:
                    ce:c5:9e:ee:18:74:cb:2e:67:2f:ae:f2:47:97:e0:
                    d9:87:9b:1f:97:b7:da:9a:6c:45:f9:2b:45:6d:2e:
                    02:52:ea:6a:b1:b8:a8:f7:b9
                Exponent: 65537 (0x10001)
        X509v3 extensions:
            X509v3 Basic Constraints: 
                CA:FALSE
            Netscape Comment: 
                OpenSSL Generated Certificate
            X509v3 Subject Key Identifier: 
                4D:01:C2:E1:92:A4:18:DF:C3:F4:C2:C7:82:BE:BC:11:D6:54:47:03
            X509v3 Authority Key Identifier: 
                keyid:0B:90:7A:B0:9F:D9:5C:C7:31:E1:92:D2:53:F4:70:61:9A:E5:8F:D1

    Signature Algorithm: sha256WithRSAEncryption
         02:6e:43:fa:29:07:1a:d9:f2:f1:8c:a5:1f:7a:10:68:a6:a2:
         c6:88:ee:d8:ac:ed:ec:76:e9:78:e7:d6:00:72:59:68:d4:6a:
         a5:ef:75:a2:8c:75:e4:50:dc:8b:6e:97:8d:3f:05:88:3f:c5:
         62:5b:09:cb:15:7a:e0:50:21:f0:4b:33:d3:c4:a9:b0:59:05:
         3a:28:da:b6:9f:03:6a:bc:98:d4:73:81:f6:98:cb:a9:99:39:
         43:0a:e5:45:ea:30:c8:25:fe:85:71:5f:ae:44:c5:a4:6c:2d:
         d9:91:8e:ac:08:63:17:55:91:c0:98:8b:c9:23:6e:ab:70:ec:
         bb:91
-----BEGIN CERTIFICATE-----
MIICRTCCAa6gAwIBAgIEEAAALzANBgkqhkiG9w0BAQsFADAnMSUwIwYDVQQDDBxT
Uks0X3NoYTI1Nl8xMDI0XzY1NTM3X3YzX2NhMB4XDTE4MDMwNzE1MDYyNVoXDTI4
MDMwNDE1MDYyNVowKjEoMCYGA1UEAwwfSU1HNF8xX3NoYTI1Nl8xMDI0XzY1NTM3
X3YzX3VzcjCBnzANBgkqhkiG9w0BAQEFAAOBjQAwgYkCgYEA69vpBL7U9XXa8gLW
W0eDBb/IC8lu174ulRlr3K5h1QTbE1g2fFRGWeYgPt44L9GwyYHmTaCK/w+xgHsD
/sGFnB+az2iOJnoZer2Ok3A8pjuNSUwfa3l9yYnOxZ7uGHTLLmcvrvJHl+DZh5sf
l7fammxF+StFbS4CUupqsbio97kCAwEAAaN7MHkwCQYDVR0TBAIwADAsBglghkgB
hvhCAQ0EHxYdT3BlblNTTCBHZW5lcmF0ZWQgQ2VydGlmaWNhdGUwHQYDVR0OBBYE
FE0BwuGSpBjfw/TCx4K+vBHWVEcDMB8GA1UdIwQYMBaAFAuQerCf2VzHMeGS0lP0
cGGa5Y/RMA0GCSqGSIb3DQEBCwUAA4GBAAJuQ/opBxrZ8vGMpR96EGimosaI7tis
7ex26Xjn1gByWWjUaqXvdaKMdeRQ3Itul40/BYg/xWJbCcsVeuBQIfBLM9PEqbBZ
BToo2rafA2q8mNRzgfaYy6mZOUMK5UXqMMgl/oVxX65ExaRsLdmRjqwIYxdVkcCY
i8kjbqtw7LuR
-----END CERTIFICATE-----
