Certificate:
    Data:
        Version: 3 (0x2)
        Serial Number: 268435504 (0x10000030)
    Signature Algorithm: sha256WithRSAEncryption
        Issuer: CN=CA1_sha256_2048_65537_v3_ca
        Validity
            Not Before: Mar  7 15:06:25 2018 GMT
            Not After : Mar  4 15:06:25 2028 GMT
        Subject: CN=SRK1_sha256_2048_65537_v3_ca
        Subject Public Key Info:
            Public Key Algorithm: rsaEncryption
                Public-Key: (2048 bit)
                Modulus:
                    00:ae:c1:a3:1d:f2:20:7b:fb:90:ba:fa:5d:c3:8d:
                    78:d6:ce:ad:7a:4b:b7:9c:95:72:fe:4b:13:2f:c0:
                    1d:10:5c:e6:68:e9:52:37:a8:b5:1d:04:d2:54:16:
                    f8:30:ba:6b:fe:96:10:c8:d1:01:2b:a4:2f:9c:21:
                    64:f8:aa:66:de:8b:1b:3a:0b:e1:ef:6a:93:00:7b:
                    c0:46:21:1a:ff:d3:fe:63:33:8e:e0:55:12:9d:fb:
                    78:1d:34:de:a3:b3:20:ef:de:6c:d6:52:72:13:58:
                    94:99:e3:9c:83:e9:4b:0f:27:56:a9:39:50:66:80:
                    75:b9:95:80:11:6d:8e:8c:bb:0f:53:4c:10:b2:95:
                    be:bf:29:46:18:8c:c4:e0:f1:43:43:c6:9f:82:50:
                    25:44:d4:2d:f1:c3:2b:81:9c:64:8b:9b:ab:e0:ac:
                    e3:26:d1:2d:0e:bc:e5:40:0a:b2:97:29:bd:c3:3e:
                    36:d1:51:85:f2:ce:3a:f7:0b:35:0a:15:aa:db:40:
                    41:24:7b:e7:9e:f4:b4:d5:b9:87:a8:36:4a:2c:c0:
                    62:56:73:4f:5c:13:19:d4:aa:18:aa:18:20:52:c7:
                    36:90:de:ec:1a:fc:0f:0e:71:25:72:30:c0:5c:f9:
                    0d:72:83:21:2e:ca:e5:d2:02:01:c5:cf:ca:cb:1f:
                    39:3b
                Exponent: 65537 (0x10001)
        X509v3 extensions:
            X509v3 Subject Key Identifier: 
                BC:6B:35:11:5B:AD:9B:8F:35:86:43:87:0E:4D:1F:F7:D8:6D:B4:68
            X509v3 Authority Key Identifier: 
                keyid:8B:55:C0:60:14:C5:CE:D3:E4:09:33:98:32:53:2F:DC:8A:FE:C4:93
                DirName:/CN=CA1_sha256_2048_65537_v3_ca
                serial:D6:A7:2B:45:03:EA:C4:F3

            X509v3 Basic Constraints: critical
                CA:TRUE
            X509v3 Key Usage: 
                Certificate Sign
    Signature Algorithm: sha256WithRSAEncryption
         52:3e:2d:98:f4:3c:21:ac:e8:a0:b6:e8:51:b3:f9:e7:32:01:
         a8:ec:0d:f9:d8:29:ee:4f:46:05:51:e0:04:b4:55:2e:6b:10:
         77:39:95:14:1a:4c:80:05:20:20:d4:59:19:74:21:60:33:e2:
         9d:c1:53:14:78:eb:4d:10:46:60:16:4f:91:a7:7f:e3:56:67:
         f4:b4:49:aa:70:0e:2a:0d:d9:c7:83:3b:70:fa:17:38:07:b0:
         79:3e:87:e2:52:fc:4d:c8:41:44:c5:3d:52:2f:ec:e2:e6:4a:
         c5:f1:85:bf:ae:ac:6d:8e:f5:6a:7c:ae:d2:9c:ed:37:4c:d3:
         32:96:a3:47:86:5e:63:91:8a:c5:06:27:ac:5e:d8:7d:0b:ee:
         81:3f:3b:bf:01:b9:8e:84:8f:99:42:5f:c5:9c:c4:b3:5b:31:
         cd:41:c2:eb:0f:22:d9:77:cb:d4:9b:64:5f:f1:59:0c:1a:a9:
         43:2f:56:8b:37:f4:c0:d1:2f:38:d7:f7:59:c4:d6:6d:f0:50:
         13:d9:ec:f4:60:a4:47:d7:ba:48:51:f1:de:fe:ad:12:86:6e:
         36:a3:ad:23:49:35:ea:f7:78:8c:ae:e8:d2:95:81:68:82:01:
         68:be:9a:e2:5d:f6:50:a1:4e:2d:9c:86:da:b7:e9:c1:aa:51:
         62:b9:1e:f8
-----BEGIN CERTIFICATE-----
MIIDZDCCAkygAwIBAgIEEAAAMDANBgkqhkiG9w0BAQsFADAmMSQwIgYDVQQDFBtD
QTFfc2hhMjU2XzIwNDhfNjU1MzdfdjNfY2EwHhcNMTgwMzA3MTUwNjI1WhcNMjgw
MzA0MTUwNjI1WjAnMSUwIwYDVQQDDBxTUksxX3NoYTI1Nl8yMDQ4XzY1NTM3X3Yz
X2NhMIIBIjANBgkqhkiG9w0BAQEFAAOCAQ8AMIIBCgKCAQEArsGjHfIge/uQuvpd
w4141s6teku3nJVy/ksTL8AdEFzmaOlSN6i1HQTSVBb4MLpr/pYQyNEBK6QvnCFk
+Kpm3osbOgvh72qTAHvARiEa/9P+YzOO4FUSnft4HTTeo7Mg795s1lJyE1iUmeOc
g+lLDydWqTlQZoB1uZWAEW2OjLsPU0wQspW+vylGGIzE4PFDQ8afglAlRNQt8cMr
gZxki5ur4KzjJtEtDrzlQAqylym9wz420VGF8s469ws1ChWq20BBJHvnnvS01bmH
qDZKLMBiVnNPXBMZ1KoYqhggUsc2kN7sGvwPDnElcjDAXPkNcoMhLsrl0gIBxc/K
yx85OwIDAQABo4GYMIGVMB0GA1UdDgQWBBS8azURW62bjzWGQ4cOTR/32G20aDBW
BgNVHSMETzBNgBSLVcBgFMXO0+QJM5gyUy/civ7Ek6EqpCgwJjEkMCIGA1UEAxQb
Q0ExX3NoYTI1Nl8yMDQ4XzY1NTM3X3YzX2NhggkA1qcrRQPqxPMwDwYDVR0TAQH/
BAUwAwEB/zALBgNVHQ8EBAMCAgQwDQYJKoZIhvcNAQELBQADggEBAFI+LZj0PCGs
6KC26FGz+ecyAajsDfnYKe5PRgVR4AS0VS5rEHc5lRQaTIAFICDUWRl0IWAz4p3B
UxR4600QRmAWT5Gnf+NWZ/S0SapwDioN2ceDO3D6FzgHsHk+h+JS/E3IQUTFPVIv
7OLmSsXxhb+urG2O9Wp8rtKc7TdM0zKWo0eGXmORisUGJ6xe2H0L7oE/O78BuY6E
j5lCX8WcxLNbMc1BwusPItl3y9SbZF/xWQwaqUMvVos39MDRLzjX91nE1m3wUBPZ
7PRgpEfXukhR8d7+rRKGbjajrSNJNer3eIyu6NKVgWiCAWi+muJd9lChTi2chtq3
6cGqUWK5Hvg=
-----END CERTIFICATE-----
