Certificate:
    Data:
        Version: 3 (0x2)
        Serial Number: 268435519 (0x1000003f)
    Signature Algorithm: sha256WithRSAEncryption
        Issuer: CN=CA1_sha256_4096_65537_v3_ca
        Validity
            Not Before: Mar  7 15:06:28 2018 GMT
            Not After : Mar  4 15:06:28 2028 GMT
        Subject: CN=SRK2_sha256_4096_65537_v3_ca
        Subject Public Key Info:
            Public Key Algorithm: rsaEncryption
                Public-Key: (4096 bit)
                Modulus:
                    00:e3:0c:50:db:ea:1c:ce:7e:63:63:12:85:5a:4f:
                    55:d8:f8:0c:9a:3f:0d:1f:af:8d:0d:82:73:49:b0:
                    02:7d:9a:9c:9a:f3:aa:b0:a7:33:37:d1:f0:bb:5e:
                    48:c3:11:28:e3:61:af:f7:ab:3d:2b:1a:b3:78:0f:
                    50:54:82:5e:3f:71:84:e3:5e:a2:a3:1e:32:8a:fb:
                    63:9e:33:15:56:b6:91:73:07:28:21:fb:2d:93:c6:
                    92:20:8f:ca:a7:63:4a:05:29:a8:4a:9b:8b:25:30:
                    db:02:c1:8e:0a:c6:0b:77:ca:a1:e5:ba:19:45:75:
                    1e:d8:e2:a4:0b:99:ea:68:d2:96:87:6e:dd:05:57:
                    f9:b6:bc:47:ea:f4:66:eb:09:89:ae:3f:43:a3:42:
                    9a:91:89:65:ac:9b:b0:7f:61:20:26:00:d5:ac:c7:
                    b9:3e:87:7e:0d:96:12:de:5f:ba:58:2d:51:60:a2:
                    2e:a8:d0:80:94:65:63:b1:4b:30:ce:53:ac:44:3f:
                    dc:45:59:95:5b:98:76:72:11:29:79:43:9c:ab:22:
                    73:cb:29:e3:b7:47:7f:e7:01:ec:28:49:9b:d1:35:
                    67:30:0c:fe:cb:2c:08:ce:9b:d0:ef:54:12:fe:b8:
                    ef:d7:cd:63:34:65:e1:ff:e9:9c:e5:da:94:26:47:
                    94:af:a8:c2:85:9f:a8:cb:93:b7:b9:dc:31:5d:09:
                    f3:85:20:9e:0b:ec:3f:6c:4d:ae:b7:05:48:16:b8:
                    87:28:0c:f9:6d:35:cc:e2:f2:f9:30:1b:0c:c9:fc:
                    c5:54:d4:87:72:dc:1f:b0:04:b7:a5:b6:2b:58:ec:
                    d7:5a:20:5f:0d:8e:51:34:1e:36:78:56:3a:16:ca:
                    a8:4d:f1:17:fb:9a:02:58:9f:b7:d5:91:21:3f:f1:
                    1a:f7:de:1b:e0:e1:6c:d5:8e:aa:98:bd:dd:72:09:
                    92:94:d6:9b:6b:63:8d:d6:d7:ce:a7:56:ee:54:e5:
                    b1:8c:4b:91:c8:b1:ee:05:64:1a:11:f3:ab:0f:a7:
                    87:c6:03:ac:69:77:c2:9e:4b:24:7f:a1:0f:4c:d3:
                    fc:5c:bf:76:e5:3f:07:0b:77:e2:7b:2d:09:3d:f7:
                    98:7a:a2:3c:6f:08:97:3e:cf:ba:a0:aa:7e:ae:70:
                    b4:7e:ac:df:2f:6f:30:66:f4:dc:13:fa:83:26:f3:
                    0e:86:e1:5a:ca:0e:a9:07:f9:fc:28:6b:f3:2f:00:
                    81:f5:60:42:0f:f0:00:02:bd:a2:17:4b:87:01:3f:
                    d4:2a:84:02:0c:56:36:c3:b1:3b:7c:d3:16:ee:66:
                    77:20:7d:26:3c:6b:21:60:25:c0:c0:1c:82:52:6c:
                    90:c1:6d
                Exponent: 65537 (0x10001)
        X509v3 extensions:
            X509v3 Subject Key Identifier: 
                14:2A:2F:C9:EC:E7:18:33:FC:33:C0:D4:AD:E9:A5:F6:9D:45:20:92
            X509v3 Authority Key Identifier: 
                keyid:23:B6:9A:7D:81:09:9C:59:D5:68:D8:7C:E5:F6:18:BE:A1:D5:8F:87
                DirName:/CN=CA1_sha256_4096_65537_v3_ca
                serial:B3:E8:BA:E8:D8:D1:DA:FA

            X509v3 Basic Constraints: critical
                CA:TRUE
            X509v3 Key Usage: 
                Certificate Sign
    Signature Algorithm: sha256WithRSAEncryption
         66:1b:13:12:51:a0:48:ee:7e:d4:05:00:65:ef:84:66:c1:9d:
         7d:cf:3b:44:9f:cd:ef:fe:85:b2:ed:33:be:42:86:c0:d1:13:
         cc:eb:81:a8:ef:17:8f:08:76:22:d3:7a:fe:02:7d:ed:23:38:
         30:0e:43:38:d6:f5:bc:0d:27:c0:21:57:89:b5:b8:b8:4f:00:
         a1:6d:50:15:37:71:cf:76:e6:44:89:43:e0:3e:47:d5:c9:9b:
         30:3a:96:d3:c0:d6:16:3d:0c:e1:b4:40:55:35:32:fe:b9:28:
         4b:52:58:92:2e:1b:d9:af:b0:b3:b8:38:6f:48:21:66:01:cc:
         d5:65:4e:ec:12:4f:2e:8c:9c:3c:8c:bc:71:dd:f2:21:a8:db:
         62:6f:db:22:67:ac:f6:df:e1:f2:af:e8:15:86:15:74:92:6a:
         05:e9:e5:c2:7d:b6:8a:b6:8e:0c:e5:9f:9f:27:f9:fb:36:af:
         dd:51:cb:e8:e3:d8:91:0a:e5:16:d1:37:0f:62:59:63:8a:6a:
         8a:e5:37:92:0d:3b:59:13:94:e6:d8:8e:ab:f6:bf:1a:cb:93:
         9f:42:6b:c2:f2:c9:b3:80:fa:d1:9d:4a:7a:99:fc:ef:25:64:
         d5:2f:0a:fb:80:ad:fe:e3:7c:f6:9b:9a:09:fc:1c:aa:e7:64:
         28:4c:f5:8e:cf:48:28:24:70:51:cd:fe:11:e5:4d:e4:ef:8c:
         66:a4:e1:82:f5:88:a2:a2:c4:f2:f6:b6:fd:d2:06:ac:b0:c4:
         02:c0:8d:7f:f4:7f:c4:21:49:f3:e4:fd:92:7f:8f:a3:28:76:
         a1:89:2c:c5:e9:a4:fc:1d:29:3d:a2:a2:9c:aa:64:1d:91:f3:
         80:27:04:c2:11:71:ba:4f:e9:64:fa:1a:98:c4:d4:5a:8e:ba:
         99:75:36:bf:59:88:e4:fa:3e:e2:0d:53:e2:90:5a:b8:46:ad:
         b7:b1:d7:8b:30:47:9b:26:49:77:62:57:59:a8:6b:64:db:d3:
         79:ea:66:3a:d2:d6:5e:43:db:6b:1e:6a:56:15:d2:fa:45:6c:
         60:a7:cf:0a:0c:33:76:bf:39:9a:a6:b4:23:18:8a:49:14:70:
         4b:92:64:26:50:4c:de:b9:55:9f:17:e4:75:e5:ed:fd:8d:8e:
         b4:02:63:46:6d:cb:0b:00:4d:13:49:3b:d6:83:45:76:1b:b8:
         e2:fc:84:64:55:72:41:8b:95:50:c1:67:22:c1:e3:ff:06:52:
         f7:34:c5:d6:81:cf:c3:4d:01:03:c0:e5:7d:34:83:c7:1a:a6:
         23:f1:72:c5:cc:22:8e:ae:3e:a0:c0:9f:0e:b0:30:1f:01:35:
         32:fc:dc:70:ee:d8:d0:fd
-----BEGIN CERTIFICATE-----
MIIFZDCCA0ygAwIBAgIEEAAAPzANBgkqhkiG9w0BAQsFADAmMSQwIgYDVQQDFBtD
QTFfc2hhMjU2XzQwOTZfNjU1MzdfdjNfY2EwHhcNMTgwMzA3MTUwNjI4WhcNMjgw
MzA0MTUwNjI4WjAnMSUwIwYDVQQDDBxTUksyX3NoYTI1Nl80MDk2XzY1NTM3X3Yz
X2NhMIICIjANBgkqhkiG9w0BAQEFAAOCAg8AMIICCgKCAgEA4wxQ2+oczn5jYxKF
Wk9V2PgMmj8NH6+NDYJzSbACfZqcmvOqsKczN9Hwu15IwxEo42Gv96s9KxqzeA9Q
VIJeP3GE416iox4yivtjnjMVVraRcwcoIfstk8aSII/Kp2NKBSmoSpuLJTDbAsGO
CsYLd8qh5boZRXUe2OKkC5nqaNKWh27dBVf5trxH6vRm6wmJrj9Do0KakYllrJuw
f2EgJgDVrMe5Pod+DZYS3l+6WC1RYKIuqNCAlGVjsUswzlOsRD/cRVmVW5h2chEp
eUOcqyJzyynjt0d/5wHsKEmb0TVnMAz+yywIzpvQ71QS/rjv181jNGXh/+mc5dqU
JkeUr6jChZ+oy5O3udwxXQnzhSCeC+w/bE2utwVIFriHKAz5bTXM4vL5MBsMyfzF
VNSHctwfsAS3pbYrWOzXWiBfDY5RNB42eFY6FsqoTfEX+5oCWJ+31ZEhP/Ea994b
4OFs1Y6qmL3dcgmSlNaba2ON1tfOp1buVOWxjEuRyLHuBWQaEfOrD6eHxgOsaXfC
nkskf6EPTNP8XL925T8HC3fiey0JPfeYeqI8bwiXPs+6oKp+rnC0fqzfL28wZvTc
E/qDJvMOhuFayg6pB/n8KGvzLwCB9WBCD/AAAr2iF0uHAT/UKoQCDFY2w7E7fNMW
7mZ3IH0mPGshYCXAwByCUmyQwW0CAwEAAaOBmDCBlTAdBgNVHQ4EFgQUFCovyezn
GDP8M8DUreml9p1FIJIwVgYDVR0jBE8wTYAUI7aafYEJnFnVaNh85fYYvqHVj4eh
KqQoMCYxJDAiBgNVBAMUG0NBMV9zaGEyNTZfNDA5Nl82NTUzN192M19jYYIJALPo
uujY0dr6MA8GA1UdEwEB/wQFMAMBAf8wCwYDVR0PBAQDAgIEMA0GCSqGSIb3DQEB
CwUAA4ICAQBmGxMSUaBI7n7UBQBl74RmwZ19zztEn83v/oWy7TO+QobA0RPM64Go
7xePCHYi03r+An3tIzgwDkM41vW8DSfAIVeJtbi4TwChbVAVN3HPduZEiUPgPkfV
yZswOpbTwNYWPQzhtEBVNTL+uShLUliSLhvZr7CzuDhvSCFmAczVZU7sEk8ujJw8
jLxx3fIhqNtib9siZ6z23+Hyr+gVhhV0kmoF6eXCfbaKto4M5Z+fJ/n7Nq/dUcvo
49iRCuUW0TcPYlljimqK5TeSDTtZE5Tm2I6r9r8ay5OfQmvC8smzgPrRnUp6mfzv
JWTVLwr7gK3+43z2m5oJ/Byq52QoTPWOz0goJHBRzf4R5U3k74xmpOGC9YiiosTy
9rb90gassMQCwI1/9H/EIUnz5P2Sf4+jKHahiSzF6aT8HSk9oqKcqmQdkfOAJwTC
EXG6T+lk+hqYxNRajrqZdTa/WYjk+j7iDVPikFq4Rq23sdeLMEebJkl3YldZqGtk
29N56mY60tZeQ9trHmpWFdL6RWxgp88KDDN2vzmaprQjGIpJFHBLkmQmUEzeuVWf
F+R15e39jY60AmNGbcsLAE0TSTvWg0V2G7ji/IRkVXJBi5VQwWciweP/BlL3NMXW
gc/DTQEDwOV9NIPHGqYj8XLFzCKOrj6gwJ8OsDAfATUy/Nxw7tjQ/Q==
-----END CERTIFICATE-----
