Certificate:
    Data:
        Version: 3 (0x2)
        Serial Number: 268435507 (0x10000033)
    Signature Algorithm: sha256WithRSAEncryption
        Issuer: CN=CA1_sha256_2048_65537_v3_ca
        Validity
            Not Before: Mar  7 15:06:25 2018 GMT
            Not After : Mar  4 15:06:25 2028 GMT
        Subject: CN=SRK2_sha256_2048_65537_v3_ca
        Subject Public Key Info:
            Public Key Algorithm: rsaEncryption
                Public-Key: (2048 bit)
                Modulus:
                    00:96:6d:b2:f5:33:2d:c6:32:bb:bf:a9:b6:69:1e:
                    ef:60:86:73:c6:69:7c:89:2a:68:82:3b:43:b9:e2:
                    07:be:16:bc:c7:e4:8b:10:26:96:19:24:11:86:cf:
                    f1:cc:73:75:76:a9:4c:dc:7f:c2:eb:f4:e4:36:aa:
                    74:cd:56:d7:a9:8f:2c:af:84:07:08:4c:b2:65:29:
                    b0:17:a6:e1:aa:4f:ab:ce:05:a0:d0:63:a6:61:f9:
                    11:4c:1e:49:70:bb:25:8b:cb:d3:32:12:d0:ad:89:
                    bf:11:38:dc:61:af:b5:bd:00:fd:1b:22:2b:9f:ae:
                    74:ff:af:07:9d:f4:f8:d1:a9:cf:9b:f2:20:73:db:
                    9c:9a:e0:07:d6:db:2e:83:90:6c:09:d2:ef:a7:eb:
                    88:71:24:a6:d4:09:e3:b7:35:c8:16:3b:2b:25:5f:
                    b0:25:18:ef:c9:a2:75:e9:36:52:48:5c:cf:c5:92:
                    13:13:a1:91:90:3b:0a:72:f4:85:ec:8e:83:9e:14:
                    d1:ad:50:f4:d8:ad:53:2d:76:cf:63:e3:da:5a:ad:
                    61:38:3f:0c:f6:26:2c:89:18:18:32:73:7e:ae:d0:
                    39:f2:d6:f3:2e:87:69:03:ac:e4:43:e4:50:07:12:
                    8b:5c:47:d2:b7:1f:e5:98:bc:ea:90:c0:1c:c7:c4:
                    62:d5
                Exponent: 65537 (0x10001)
        X509v3 extensions:
            X509v3 Subject Key Identifier: 
                17:C3:ED:57:4A:53:98:BD:E4:22:EB:20:7D:D1:D2:FA:B6:09:75:EC
            X509v3 Authority Key Identifier: 
                keyid:8B:55:C0:60:14:C5:CE:D3:E4:09:33:98:32:53:2F:DC:8A:FE:C4:93
                DirName:/CN=CA1_sha256_2048_65537_v3_ca
                serial:D6:A7:2B:45:03:EA:C4:F3

            X509v3 Basic Constraints: critical
                CA:TRUE
            X509v3 Key Usage: 
                Certificate Sign
    Signature Algorithm: sha256WithRSAEncryption
         b4:af:0c:c5:9b:94:7e:d2:f5:1e:bd:07:90:27:b2:ff:b3:de:
         d3:71:0f:67:66:fb:b2:7e:99:26:26:2a:45:eb:8e:cf:14:a6:
         d9:bb:d5:5d:fd:44:37:fe:35:1a:af:8d:b0:32:70:74:80:d5:
         92:21:4d:04:c6:17:79:71:8b:6b:6b:08:66:ba:f7:e7:c2:7a:
         a8:2e:b9:0f:01:93:c5:66:7e:d2:6f:04:e1:c7:6b:63:b2:11:
         33:dc:d9:33:0f:a0:a0:bd:bb:78:de:9a:0a:78:6d:af:4c:51:
         03:ba:fc:f3:fe:38:9a:04:7a:6f:00:55:ed:5b:fa:c2:53:2c:
         bb:4d:24:a2:02:ea:68:de:b6:16:6e:33:81:1a:e7:c5:4a:f4:
         22:e3:5f:4d:54:de:2f:7b:78:f4:b1:49:98:9e:f6:4f:60:7f:
         bf:15:6a:66:32:52:fc:0e:5a:92:0e:5c:89:fb:eb:11:8a:41:
         3c:6b:db:f4:c7:a2:04:b4:8d:36:5c:f0:9a:a7:44:41:2f:99:
         5c:fd:16:d0:6c:e7:31:9b:84:c5:98:eb:35:70:5c:61:bd:2b:
         72:47:1b:57:cb:9b:62:cb:82:d3:2b:1e:1a:13:cc:f8:73:cb:
         28:e3:9c:7b:24:3f:38:6e:85:43:59:83:07:61:f3:74:26:49:
         75:ef:6e:65
-----BEGIN CERTIFICATE-----
MIIDZDCCAkygAwIBAgIEEAAAMzANBgkqhkiG9w0BAQsFADAmMSQwIgYDVQQDFBtD
QTFfc2hhMjU2XzIwNDhfNjU1MzdfdjNfY2EwHhcNMTgwMzA3MTUwNjI1WhcNMjgw
MzA0MTUwNjI1WjAnMSUwIwYDVQQDDBxTUksyX3NoYTI1Nl8yMDQ4XzY1NTM3X3Yz
X2NhMIIBIjANBgkqhkiG9w0BAQEFAAOCAQ8AMIIBCgKCAQEAlm2y9TMtxjK7v6m2
aR7vYIZzxml8iSpogjtDueIHvha8x+SLECaWGSQRhs/xzHN1dqlM3H/C6/TkNqp0
zVbXqY8sr4QHCEyyZSmwF6bhqk+rzgWg0GOmYfkRTB5JcLsli8vTMhLQrYm/ETjc
Ya+1vQD9GyIrn650/68HnfT40anPm/Igc9ucmuAH1tsug5BsCdLvp+uIcSSm1Anj
tzXIFjsrJV+wJRjvyaJ16TZSSFzPxZITE6GRkDsKcvSF7I6DnhTRrVD02K1TLXbP
Y+PaWq1hOD8M9iYsiRgYMnN+rtA58tbzLodpA6zkQ+RQBxKLXEfStx/lmLzqkMAc
x8Ri1QIDAQABo4GYMIGVMB0GA1UdDgQWBBQXw+1XSlOYveQi6yB90dL6tgl17DBW
BgNVHSMETzBNgBSLVcBgFMXO0+QJM5gyUy/civ7Ek6EqpCgwJjEkMCIGA1UEAxQb
Q0ExX3NoYTI1Nl8yMDQ4XzY1NTM3X3YzX2NhggkA1qcrRQPqxPMwDwYDVR0TAQH/
BAUwAwEB/zALBgNVHQ8EBAMCAgQwDQYJKoZIhvcNAQELBQADggEBALSvDMWblH7S
9R69B5Ansv+z3tNxD2dm+7J+mSYmKkXrjs8Uptm71V39RDf+NRqvjbAycHSA1ZIh
TQTGF3lxi2trCGa69+fCeqguuQ8Bk8VmftJvBOHHa2OyETPc2TMPoKC9u3jemgp4
ba9MUQO6/PP+OJoEem8AVe1b+sJTLLtNJKIC6mjethZuM4Ea58VK9CLjX01U3i97
ePSxSZie9k9gf78VamYyUvwOWpIOXIn76xGKQTxr2/THogS0jTZc8JqnREEvmVz9
FtBs5zGbhMWY6zVwXGG9K3JHG1fLm2LLgtMrHhoTzPhzyyjjnHskPzhuhUNZgwdh
83QmSXXvbmU=
-----END CERTIFICATE-----
