Certificate:
    Data:
        Version: 3 (0x2)
        Serial Number: 268435498 (0x1000002a)
    Signature Algorithm: sha256WithRSAEncryption
        Issuer: CN=CA1_sha256_1024_65537_v3_ca
        Validity
            Not Before: Mar  7 15:06:24 2018 GMT
            Not After : Mar  4 15:06:24 2028 GMT
        Subject: CN=SRK3_sha256_1024_65537_v3_ca
        Subject Public Key Info:
            Public Key Algorithm: rsaEncryption
                Public-Key: (1024 bit)
                Modulus:
                    00:de:95:14:61:60:31:70:c3:06:5c:dc:ef:81:16:
                    6d:b9:a4:b0:d5:50:25:db:96:42:68:82:6a:c9:b4:
                    48:5f:5b:c0:49:48:8b:35:a8:dd:78:63:33:ce:9c:
                    9e:4c:6b:27:ff:ca:84:d6:6e:52:d7:4b:6c:4e:f7:
                    2d:34:80:cb:00:16:20:b2:75:6e:bb:28:92:3b:cb:
                    23:51:42:ee:a8:9f:b2:fd:d7:71:c4:06:79:90:ca:
                    f7:f8:cf:fb:34:6c:7f:79:d6:6c:01:b3:dc:69:cb:
                    38:d7:f2:fe:33:75:3d:2c:77:81:9c:a1:01:7b:66:
                    d1:27:80:a9:c8:59:05:b0:19
                Exponent: 65537 (0x10001)
        X509v3 extensions:
            X509v3 Subject Key Identifier: 
                A4:D9:42:92:FA:38:26:DF:62:24:4C:32:9B:44:A7:9F:F3:13:6D:D2
            X509v3 Authority Key Identifier: 
                keyid:28:C6:D0:61:49:04:42:6C:49:12:94:50:1E:82:33:76:2A:1A:9D:8D
                DirName:/CN=CA1_sha256_1024_65537_v3_ca
                serial:B9:27:51:35:9A:8B:74:6C

            X509v3 Basic Constraints: critical
                CA:TRUE
            X509v3 Key Usage: 
                Certificate Sign
    Signature Algorithm: sha256WithRSAEncryption
         71:6c:09:7d:b9:0d:7e:41:ba:00:23:33:26:9a:68:e0:d5:e6:
         36:71:37:e4:64:1f:f3:97:69:80:a0:e1:b0:27:e0:cf:99:d0:
         b6:94:4c:41:8d:2b:da:e7:63:38:29:61:c6:d3:bc:05:c8:f0:
         e5:0e:a6:25:fe:5f:e3:d2:55:86:ee:90:2e:7f:09:84:28:12:
         0b:32:9d:58:ba:5a:df:9a:9b:e9:f3:2b:08:b4:05:79:96:b5:
         f9:71:6f:06:6e:10:7a:95:25:5f:55:ee:9b:6a:c9:0d:2e:f0:
         ef:13:b9:98:49:7c:40:93:9c:0e:dd:fb:f5:d2:11:32:e0:88:
         94:b1
-----BEGIN CERTIFICATE-----
MIICXzCCAcigAwIBAgIEEAAAKjANBgkqhkiG9w0BAQsFADAmMSQwIgYDVQQDFBtD
QTFfc2hhMjU2XzEwMjRfNjU1MzdfdjNfY2EwHhcNMTgwMzA3MTUwNjI0WhcNMjgw
MzA0MTUwNjI0WjAnMSUwIwYDVQQDDBxTUkszX3NoYTI1Nl8xMDI0XzY1NTM3X3Yz
X2NhMIGfMA0GCSqGSIb3DQEBAQUAA4GNADCBiQKBgQDelRRhYDFwwwZc3O+BFm25
pLDVUCXblkJogmrJtEhfW8BJSIs1qN14YzPOnJ5Mayf/yoTWblLXS2xO9y00gMsA
FiCydW67KJI7yyNRQu6on7L913HEBnmQyvf4z/s0bH951mwBs9xpyzjX8v4zdT0s
d4GcoQF7ZtEngKnIWQWwGQIDAQABo4GYMIGVMB0GA1UdDgQWBBSk2UKS+jgm32Ik
TDKbRKef8xNt0jBWBgNVHSMETzBNgBQoxtBhSQRCbEkSlFAegjN2KhqdjaEqpCgw
JjEkMCIGA1UEAxQbQ0ExX3NoYTI1Nl8xMDI0XzY1NTM3X3YzX2NhggkAuSdRNZqL
dGwwDwYDVR0TAQH/BAUwAwEB/zALBgNVHQ8EBAMCAgQwDQYJKoZIhvcNAQELBQAD
gYEAcWwJfbkNfkG6ACMzJppo4NXmNnE35GQf85dpgKDhsCfgz5nQtpRMQY0r2udj
OClhxtO8Bcjw5Q6mJf5f49JVhu6QLn8JhCgSCzKdWLpa35qb6fMrCLQFeZa1+XFv
Bm4QepUlX1Xum2rJDS7w7xO5mEl8QJOcDt379dIRMuCIlLE=
-----END CERTIFICATE-----
