Certificate:
    Data:
        Version: 3 (0x2)
        Serial Number: 268435510 (0x10000036)
    Signature Algorithm: sha256WithRSAEncryption
        Issuer: CN=CA1_sha256_2048_65537_v3_ca
        Validity
            Not Before: Mar  7 15:06:25 2018 GMT
            Not After : Mar  4 15:06:25 2028 GMT
        Subject: CN=SRK3_sha256_2048_65537_v3_ca
        Subject Public Key Info:
            Public Key Algorithm: rsaEncryption
                Public-Key: (2048 bit)
                Modulus:
                    00:a3:27:fa:0f:0c:45:62:44:91:c6:c7:ed:1c:31:
                    3a:ab:6f:c3:35:d6:a3:45:d9:b0:31:4d:41:94:f4:
                    5f:b9:41:5b:fb:e6:f5:3b:43:49:df:76:c2:e7:e7:
                    97:d7:4c:37:57:9b:f1:a9:09:ba:af:38:f9:69:55:
                    01:d6:e5:42:8f:fa:0f:95:c1:20:5b:4f:9f:90:62:
                    d0:2e:bb:bc:c1:89:a0:36:b6:99:7b:00:ed:9d:31:
                    c3:f6:ce:1a:56:4c:bb:55:95:2b:b8:7f:08:aa:5a:
                    55:ad:3b:9e:92:4b:39:07:3e:cb:0d:d6:5d:28:e0:
                    ba:54:2f:ea:9d:92:30:e1:97:10:e2:0f:95:21:65:
                    7a:20:bd:d7:08:58:93:9f:83:d7:ae:91:1f:0f:2b:
                    e3:5c:d0:1c:94:93:82:b8:ef:e4:1b:70:67:9a:7c:
                    9c:0c:e0:a8:7c:c7:0a:20:28:22:d6:0b:f6:32:5e:
                    ae:fa:c1:71:35:04:af:a7:75:81:49:b6:59:f0:ab:
                    ea:21:3a:2e:01:d1:a6:13:dc:c2:26:3a:77:5b:13:
                    55:74:94:51:8a:e7:cf:88:d0:dc:4c:1b:0e:38:c3:
                    f1:70:8a:01:73:14:3e:41:40:b4:f5:05:e9:7f:13:
                    8c:a5:5b:cf:36:a0:fa:08:50:12:04:23:c7:15:d0:
                    f2:2b
                Exponent: 65537 (0x10001)
        X509v3 extensions:
            X509v3 Subject Key Identifier: 
                D9:27:80:11:F9:3E:11:7E:CA:B3:5F:72:46:15:4E:38:4E:2E:C4:02
            X509v3 Authority Key Identifier: 
                keyid:8B:55:C0:60:14:C5:CE:D3:E4:09:33:98:32:53:2F:DC:8A:FE:C4:93
                DirName:/CN=CA1_sha256_2048_65537_v3_ca
                serial:D6:A7:2B:45:03:EA:C4:F3

            X509v3 Basic Constraints: critical
                CA:TRUE
            X509v3 Key Usage: 
                Certificate Sign
    Signature Algorithm: sha256WithRSAEncryption
         33:e4:22:ae:cb:23:5e:e4:8f:08:b1:c7:0e:5d:ff:cf:a8:ef:
         5c:72:1f:40:65:77:2f:d0:ab:71:97:81:dd:33:fe:d8:f3:85:
         37:a0:67:8d:16:46:22:87:8b:58:85:47:eb:cc:bb:1b:51:63:
         8b:73:bc:47:32:34:e6:a0:c3:01:da:03:14:6b:f7:4f:9f:23:
         73:e9:f3:07:2b:a4:19:31:0d:83:75:c3:a4:39:ce:b6:72:63:
         ab:eb:fc:e5:a0:bf:71:17:e2:7c:3b:2a:d1:46:df:54:5d:a2:
         ed:7f:d2:4d:0f:0a:cd:aa:7d:f0:22:bc:09:81:cd:3f:4c:c2:
         e4:e2:91:c6:fd:56:df:e1:ed:e7:5a:3d:28:00:a4:e5:86:b2:
         77:76:84:1a:17:74:88:0d:6f:b8:a3:3c:7c:d0:e2:61:c6:88:
         70:c4:dd:4d:15:d9:2c:ae:17:1b:ed:cc:b8:b4:80:46:33:62:
         0c:01:8c:88:1d:ee:71:59:13:53:b7:42:ad:d5:6b:fc:15:8c:
         2e:b7:a8:f0:96:45:8b:fb:0b:28:66:d9:db:b1:97:31:89:7b:
         db:95:f7:7d:97:cd:1f:d1:96:67:e2:e9:5b:77:6e:35:9d:a6:
         f5:37:25:9e:22:28:cc:97:ea:2f:25:e3:43:dc:3e:8c:2f:38:
         b6:4c:c9:2e
-----BEGIN CERTIFICATE-----
MIIDZDCCAkygAwIBAgIEEAAANjANBgkqhkiG9w0BAQsFADAmMSQwIgYDVQQDFBtD
QTFfc2hhMjU2XzIwNDhfNjU1MzdfdjNfY2EwHhcNMTgwMzA3MTUwNjI1WhcNMjgw
MzA0MTUwNjI1WjAnMSUwIwYDVQQDDBxTUkszX3NoYTI1Nl8yMDQ4XzY1NTM3X3Yz
X2NhMIIBIjANBgkqhkiG9w0BAQEFAAOCAQ8AMIIBCgKCAQEAoyf6DwxFYkSRxsft
HDE6q2/DNdajRdmwMU1BlPRfuUFb++b1O0NJ33bC5+eX10w3V5vxqQm6rzj5aVUB
1uVCj/oPlcEgW0+fkGLQLru8wYmgNraZewDtnTHD9s4aVky7VZUruH8IqlpVrTue
kks5Bz7LDdZdKOC6VC/qnZIw4ZcQ4g+VIWV6IL3XCFiTn4PXrpEfDyvjXNAclJOC
uO/kG3BnmnycDOCofMcKICgi1gv2Ml6u+sFxNQSvp3WBSbZZ8KvqITouAdGmE9zC
Jjp3WxNVdJRRiufPiNDcTBsOOMPxcIoBcxQ+QUC09QXpfxOMpVvPNqD6CFASBCPH
FdDyKwIDAQABo4GYMIGVMB0GA1UdDgQWBBTZJ4AR+T4RfsqzX3JGFU44Ti7EAjBW
BgNVHSMETzBNgBSLVcBgFMXO0+QJM5gyUy/civ7Ek6EqpCgwJjEkMCIGA1UEAxQb
Q0ExX3NoYTI1Nl8yMDQ4XzY1NTM3X3YzX2NhggkA1qcrRQPqxPMwDwYDVR0TAQH/
BAUwAwEB/zALBgNVHQ8EBAMCAgQwDQYJKoZIhvcNAQELBQADggEBADPkIq7LI17k
jwixxw5d/8+o71xyH0Bldy/Qq3GXgd0z/tjzhTegZ40WRiKHi1iFR+vMuxtRY4tz
vEcyNOagwwHaAxRr90+fI3Pp8wcrpBkxDYN1w6Q5zrZyY6vr/OWgv3EX4nw7KtFG
31Rdou1/0k0PCs2qffAivAmBzT9MwuTikcb9Vt/h7edaPSgApOWGsnd2hBoXdIgN
b7ijPHzQ4mHGiHDE3U0V2SyuFxvtzLi0gEYzYgwBjIgd7nFZE1O3Qq3Va/wVjC63
qPCWRYv7Cyhm2duxlzGJe9uV932XzR/Rlmfi6Vt3bjWdpvU3JZ4iKMyX6i8l40Pc
PowvOLZMyS4=
-----END CERTIFICATE-----
