Certificate:
    Data:
        Version: 3 (0x2)
        Serial Number: 268435513 (0x10000039)
    Signature Algorithm: sha256WithRSAEncryption
        Issuer: CN=CA1_sha256_2048_65537_v3_ca
        Validity
            Not Before: Mar  7 15:06:26 2018 GMT
            Not After : Mar  4 15:06:26 2028 GMT
        Subject: CN=SRK4_sha256_2048_65537_v3_ca
        Subject Public Key Info:
            Public Key Algorithm: rsaEncryption
                Public-Key: (2048 bit)
                Modulus:
                    00:a7:ff:ac:22:90:ef:d2:13:8c:06:7f:bf:ab:b0:
                    27:bf:db:12:63:ad:2e:02:d7:75:ff:74:0d:6b:87:
                    43:d1:f0:82:ba:d0:45:04:0f:ba:14:9b:94:fd:f6:
                    33:8c:24:2b:c7:ad:7a:de:56:41:ed:50:3d:06:80:
                    50:de:22:8e:b8:d7:28:9d:a4:aa:50:0a:51:e4:ba:
                    0c:5f:7b:f0:91:9b:69:76:bd:c4:68:4b:85:ff:ae:
                    85:20:31:e0:26:62:a8:5f:4a:07:72:30:3a:42:57:
                    85:3b:01:97:50:86:a6:3c:35:a5:35:f5:97:4e:31:
                    58:60:37:6e:68:62:f3:0a:24:a2:66:fc:9d:04:73:
                    cb:88:af:ed:46:e0:46:0d:11:d4:8b:80:d4:3f:c1:
                    fe:a4:d9:a5:f4:9c:76:43:2f:cd:4d:8d:7b:db:d0:
                    46:6d:7f:49:62:49:ad:bf:57:1a:18:68:db:51:77:
                    85:2e:fd:aa:9d:8f:b3:fc:be:a3:7c:8f:33:f3:f8:
                    24:fd:9b:0d:be:53:60:93:3f:ec:b2:74:d2:0e:4c:
                    e5:ea:cb:ef:43:37:cd:fe:43:84:1c:33:5e:4d:9a:
                    b8:24:98:4a:90:6e:62:9e:73:08:a7:68:4e:20:f9:
                    34:3f:86:5d:e9:5a:82:10:c0:68:df:57:70:5b:67:
                    bc:51
                Exponent: 65537 (0x10001)
        X509v3 extensions:
            X509v3 Subject Key Identifier: 
                D9:AC:20:81:98:D7:E1:CE:1C:56:58:CA:EA:61:EF:98:4C:1A:59:08
            X509v3 Authority Key Identifier: 
                keyid:8B:55:C0:60:14:C5:CE:D3:E4:09:33:98:32:53:2F:DC:8A:FE:C4:93
                DirName:/CN=CA1_sha256_2048_65537_v3_ca
                serial:D6:A7:2B:45:03:EA:C4:F3

            X509v3 Basic Constraints: critical
                CA:TRUE
            X509v3 Key Usage: 
                Certificate Sign
    Signature Algorithm: sha256WithRSAEncryption
         58:25:86:df:00:a1:b2:14:53:2f:89:a5:ad:de:d6:93:1d:60:
         1e:eb:05:b5:c4:31:14:f8:52:85:df:2f:25:52:44:0b:3c:0a:
         7f:38:37:9e:f2:4d:42:e1:68:97:70:3a:0c:d5:78:22:bf:c1:
         5f:32:23:75:d9:17:7e:a1:44:e2:84:a6:03:f5:ac:bd:59:7f:
         9d:69:63:50:ff:72:f6:df:d9:c1:9f:b3:21:da:fe:49:91:c5:
         45:fb:cf:6f:de:84:57:dd:5d:89:b9:e5:cd:89:0e:67:8f:f7:
         1a:3f:e5:5d:26:76:0f:e7:82:3e:57:51:b9:c6:4d:8d:fc:81:
         0e:5d:fc:8a:46:53:66:86:f3:20:a2:6b:88:46:fc:61:ce:d7:
         44:6a:ee:b5:cb:ac:73:ba:93:ed:29:6b:89:58:f9:d1:1f:35:
         a4:81:6e:17:0f:4a:7d:15:33:06:d8:19:b8:a2:f5:dc:cc:57:
         b6:85:07:c5:fd:fa:ab:07:38:af:b6:6a:3a:a0:1f:1f:db:5c:
         43:a7:d4:6a:a5:7e:6e:48:7f:46:b4:c6:af:06:dd:a6:16:53:
         0b:4b:99:eb:f3:41:b5:46:d9:ad:f7:d2:c7:ee:99:fc:89:92:
         32:20:ba:97:0f:11:30:ba:60:1e:59:b3:a6:ec:0f:96:c7:20:
         98:f6:e9:8f
-----BEGIN CERTIFICATE-----
MIIDZDCCAkygAwIBAgIEEAAAOTANBgkqhkiG9w0BAQsFADAmMSQwIgYDVQQDFBtD
QTFfc2hhMjU2XzIwNDhfNjU1MzdfdjNfY2EwHhcNMTgwMzA3MTUwNjI2WhcNMjgw
MzA0MTUwNjI2WjAnMSUwIwYDVQQDDBxTUks0X3NoYTI1Nl8yMDQ4XzY1NTM3X3Yz
X2NhMIIBIjANBgkqhkiG9w0BAQEFAAOCAQ8AMIIBCgKCAQEAp/+sIpDv0hOMBn+/
q7Anv9sSY60uAtd1/3QNa4dD0fCCutBFBA+6FJuU/fYzjCQrx6163lZB7VA9BoBQ
3iKOuNconaSqUApR5LoMX3vwkZtpdr3EaEuF/66FIDHgJmKoX0oHcjA6QleFOwGX
UIamPDWlNfWXTjFYYDduaGLzCiSiZvydBHPLiK/tRuBGDRHUi4DUP8H+pNml9Jx2
Qy/NTY1729BGbX9JYkmtv1caGGjbUXeFLv2qnY+z/L6jfI8z8/gk/ZsNvlNgkz/s
snTSDkzl6svvQzfN/kOEHDNeTZq4JJhKkG5innMIp2hOIPk0P4Zd6VqCEMBo31dw
W2e8UQIDAQABo4GYMIGVMB0GA1UdDgQWBBTZrCCBmNfhzhxWWMrqYe+YTBpZCDBW
BgNVHSMETzBNgBSLVcBgFMXO0+QJM5gyUy/civ7Ek6EqpCgwJjEkMCIGA1UEAxQb
Q0ExX3NoYTI1Nl8yMDQ4XzY1NTM3X3YzX2NhggkA1qcrRQPqxPMwDwYDVR0TAQH/
BAUwAwEB/zALBgNVHQ8EBAMCAgQwDQYJKoZIhvcNAQELBQADggEBAFglht8AobIU
Uy+Jpa3e1pMdYB7rBbXEMRT4UoXfLyVSRAs8Cn84N57yTULhaJdwOgzVeCK/wV8y
I3XZF36hROKEpgP1rL1Zf51pY1D/cvbf2cGfsyHa/kmRxUX7z2/ehFfdXYm55c2J
DmeP9xo/5V0mdg/ngj5XUbnGTY38gQ5d/IpGU2aG8yCia4hG/GHO10Rq7rXLrHO6
k+0pa4lY+dEfNaSBbhcPSn0VMwbYGbii9dzMV7aFB8X9+qsHOK+2ajqgHx/bXEOn
1Gqlfm5If0a0xq8G3aYWUwtLmevzQbVG2a330sfumfyJkjIgupcPETC6YB5Zs6bs
D5bHIJj26Y8=
-----END CERTIFICATE-----
