Certificate:
    Data:
        Version: 3 (0x2)
        Serial Number: 268435615 (0x1000009f)
    Signature Algorithm: sha256WithRSAEncryption
        Issuer: CN=CA1_sha256_2048_65537_v3_ca
        Validity
            Not Before: Mar  7 15:17:39 2018 GMT
            Not After : Mar  4 15:17:39 2028 GMT
        Subject: CN=SRK2_sha256_2048_65537_v3_ca
        Subject Public Key Info:
            Public Key Algorithm: rsaEncryption
                Public-Key: (2048 bit)
                Modulus:
                    00:ce:b2:46:bf:68:20:3e:e3:1d:2a:7f:c5:3e:58:
                    a0:66:b3:40:ea:39:45:f1:f0:6d:06:5b:12:3a:3e:
                    9c:f7:a6:a4:5c:95:b7:66:d6:d3:b1:b6:be:9c:7c:
                    6c:19:82:8d:9b:80:1d:dc:1e:d3:1c:7d:2f:3a:80:
                    7d:9b:04:9c:fc:f6:19:0a:a5:85:8e:7b:cd:1c:bb:
                    62:da:07:e6:e4:4f:12:96:2d:3e:ab:3a:fc:ce:ce:
                    b7:a0:39:b7:74:37:f6:11:17:35:b4:54:0e:01:58:
                    d9:70:ba:92:c6:d5:a8:c4:7a:3b:0f:f2:cb:90:fe:
                    78:5a:b4:02:b6:e9:7c:b5:11:1c:22:05:90:27:35:
                    96:49:8b:6f:5d:b2:0c:06:81:2f:05:13:61:5a:51:
                    7e:4b:3c:c4:1d:f9:19:df:00:3a:7d:a2:6e:85:d3:
                    3b:7d:50:b4:19:b6:87:ec:bd:75:81:96:62:0c:c5:
                    bb:b4:f0:52:50:d9:0b:d8:1e:6a:ab:93:a0:56:5d:
                    99:9c:ea:5d:65:97:cd:ee:5a:74:91:11:c2:ff:d2:
                    b0:34:46:fb:d1:63:40:e4:bf:6c:7f:6c:ed:3e:30:
                    99:55:87:68:07:02:42:8a:6d:94:3b:4a:f5:2a:3a:
                    4a:c1:d8:fa:f5:46:90:89:74:73:e8:65:59:73:e2:
                    ab:61
                Exponent: 65537 (0x10001)
        X509v3 extensions:
            X509v3 Subject Key Identifier: 
                95:4B:5E:E6:84:4D:42:7D:3F:74:44:E6:03:3E:FA:03:12:11:2C:19
            X509v3 Authority Key Identifier: 
                keyid:60:30:54:59:4B:86:39:A3:CA:CE:E5:B5:DC:D3:51:32:58:88:47:F3
                DirName:/CN=CA1_sha256_2048_65537_v3_ca
                serial:8D:E8:34:F6:CB:57:0C:B5

            X509v3 Basic Constraints: critical
                CA:TRUE
            X509v3 Key Usage: 
                Certificate Sign
    Signature Algorithm: sha256WithRSAEncryption
         bd:45:ff:56:a6:29:66:b6:b3:5e:a5:5a:8c:02:5e:9a:45:76:
         ea:ee:75:a6:bf:ed:14:4c:36:2d:6f:f7:41:28:24:5d:9a:08:
         a4:a4:26:f3:4d:53:28:e3:29:e0:90:69:c6:92:3c:11:bc:0d:
         bd:01:4a:de:a6:e4:4b:f8:22:51:c7:64:a8:1f:87:fe:40:31:
         2c:97:13:59:8a:2c:6a:af:ca:b5:20:78:ab:55:e8:2c:8c:4d:
         45:bf:f4:d5:5e:24:da:09:e7:87:64:32:59:be:81:60:9f:64:
         17:9c:98:5f:6e:dd:b2:2d:b0:c7:3b:95:fe:d9:df:d4:03:26:
         6f:c5:89:21:9c:a4:d6:35:dd:8e:96:01:92:c9:7d:c3:79:21:
         3f:9a:46:69:ce:4f:cb:85:79:cb:c7:14:e0:76:f3:15:76:c9:
         65:e1:eb:c1:8b:3d:1e:33:6f:06:84:71:29:c6:50:dc:f0:62:
         ba:dd:95:e5:49:5f:73:bd:5e:04:c1:61:89:7c:ad:4f:f8:42:
         98:76:8c:3c:f8:90:28:87:17:aa:33:8f:a6:30:c8:f9:e3:fe:
         d9:0f:ad:48:37:8e:62:f2:e9:30:bb:e4:5a:95:d0:f8:c3:96:
         89:27:df:4b:2b:fa:a4:fc:d7:8d:05:78:2d:d8:73:33:aa:4e:
         4c:f8:9e:fc
-----BEGIN CERTIFICATE-----
MIIDZDCCAkygAwIBAgIEEAAAnzANBgkqhkiG9w0BAQsFADAmMSQwIgYDVQQDFBtD
QTFfc2hhMjU2XzIwNDhfNjU1MzdfdjNfY2EwHhcNMTgwMzA3MTUxNzM5WhcNMjgw
MzA0MTUxNzM5WjAnMSUwIwYDVQQDDBxTUksyX3NoYTI1Nl8yMDQ4XzY1NTM3X3Yz
X2NhMIIBIjANBgkqhkiG9w0BAQEFAAOCAQ8AMIIBCgKCAQEAzrJGv2ggPuMdKn/F
PligZrNA6jlF8fBtBlsSOj6c96akXJW3ZtbTsba+nHxsGYKNm4Ad3B7THH0vOoB9
mwSc/PYZCqWFjnvNHLti2gfm5E8Sli0+qzr8zs63oDm3dDf2ERc1tFQOAVjZcLqS
xtWoxHo7D/LLkP54WrQCtul8tREcIgWQJzWWSYtvXbIMBoEvBRNhWlF+SzzEHfkZ
3wA6faJuhdM7fVC0GbaH7L11gZZiDMW7tPBSUNkL2B5qq5OgVl2ZnOpdZZfN7lp0
kRHC/9KwNEb70WNA5L9sf2ztPjCZVYdoBwJCim2UO0r1KjpKwdj69UaQiXRz6GVZ
c+KrYQIDAQABo4GYMIGVMB0GA1UdDgQWBBSVS17mhE1CfT90ROYDPvoDEhEsGTBW
BgNVHSMETzBNgBRgMFRZS4Y5o8rO5bXc01EyWIhH86EqpCgwJjEkMCIGA1UEAxQb
Q0ExX3NoYTI1Nl8yMDQ4XzY1NTM3X3YzX2NhggkAjeg09stXDLUwDwYDVR0TAQH/
BAUwAwEB/zALBgNVHQ8EBAMCAgQwDQYJKoZIhvcNAQELBQADggEBAL1F/1amKWa2
s16lWowCXppFdurudaa/7RRMNi1v90EoJF2aCKSkJvNNUyjjKeCQacaSPBG8Db0B
St6m5Ev4IlHHZKgfh/5AMSyXE1mKLGqvyrUgeKtV6CyMTUW/9NVeJNoJ54dkMlm+
gWCfZBecmF9u3bItsMc7lf7Z39QDJm/FiSGcpNY13Y6WAZLJfcN5IT+aRmnOT8uF
ecvHFOB28xV2yWXh68GLPR4zbwaEcSnGUNzwYrrdleVJX3O9XgTBYYl8rU/4Qph2
jDz4kCiHF6ozj6YwyPnj/tkPrUg3jmLy6TC75FqV0PjDlokn30sr+qT8140FeC3Y
czOqTkz4nvw=
-----END CERTIFICATE-----
