Certificate:
    Data:
        Version: 3 (0x2)
        Serial Number: 268435605 (0x10000095)
    Signature Algorithm: sha256WithRSAEncryption
        Issuer: CN=SRK2_sha256_1024_65537_v3_ca
        Validity
            Not Before: Mar  7 15:17:38 2018 GMT
            Not After : Mar  4 15:17:38 2028 GMT
        Subject: CN=IMG2_1_sha256_1024_65537_v3_usr
        Subject Public Key Info:
            Public Key Algorithm: rsaEncryption
                Public-Key: (1024 bit)
                Modulus:
                    00:c1:1f:e5:6a:3d:b1:8d:1c:a1:87:0a:6d:a7:e0:
                    34:1d:fe:b9:73:bf:c5:84:6f:ca:28:d6:4b:2a:10:
                    c5:4f:4b:f8:ba:a8:e9:96:27:3f:dc:89:1b:80:68:
                    15:85:5f:7d:f2:65:f7:39:19:5b:1f:15:43:8b:d4:
                    7a:5f:8a:7e:62:e1:68:34:e3:99:7e:8f:4d:f8:8b:
                    7f:22:f2:b1:89:5c:ff:27:ba:a7:bb:d1:5e:04:4b:
                    96:b8:97:51:4a:c8:2e:f0:87:22:0d:65:4e:6b:22:
                    c3:8c:e9:15:85:91:53:58:ad:2f:2f:61:2a:e9:34:
                    28:68:ff:8e:39:b8:1c:46:3b
                Exponent: 65537 (0x10001)
        X509v3 extensions:
            X509v3 Basic Constraints: 
                CA:FALSE
            Netscape Comment: 
                OpenSSL Generated Certificate
            X509v3 Subject Key Identifier: 
                3D:25:46:B1:80:BE:CC:2A:48:73:BE:D5:A6:02:3D:54:5D:12:12:0D
            X509v3 Authority Key Identifier: 
                keyid:90:23:CF:25:85:A8:73:41:41:32:0B:E1:35:2B:99:08:50:52:EE:74

    Signature Algorithm: sha256WithRSAEncryption
         6b:0f:b4:4c:08:12:2e:15:09:24:e7:80:a6:23:39:da:7f:6a:
         8b:b5:e2:d1:7f:59:77:cb:e8:4f:e7:34:b2:42:55:10:f7:45:
         4a:4c:da:bf:b2:a8:63:4d:42:f4:01:04:e7:9e:1d:52:c1:d1:
         0e:df:ee:9e:75:54:d2:72:92:02:47:c7:ea:20:98:73:67:35:
         31:fa:72:c0:57:45:95:58:cf:e4:ac:23:8f:fe:c2:da:ec:86:
         3e:2f:74:60:e5:07:bf:56:a9:50:8b:52:62:d2:15:8e:22:4e:
         7d:d8:bf:a3:29:c2:c1:e1:11:e5:60:0c:ff:8c:dc:86:fa:4d:
         ce:06
-----BEGIN CERTIFICATE-----
MIICRTCCAa6gAwIBAgIEEAAAlTANBgkqhkiG9w0BAQsFADAnMSUwIwYDVQQDDBxT
UksyX3NoYTI1Nl8xMDI0XzY1NTM3X3YzX2NhMB4XDTE4MDMwNzE1MTczOFoXDTI4
MDMwNDE1MTczOFowKjEoMCYGA1UEAwwfSU1HMl8xX3NoYTI1Nl8xMDI0XzY1NTM3
X3YzX3VzcjCBnzANBgkqhkiG9w0BAQEFAAOBjQAwgYkCgYEAwR/laj2xjRyhhwpt
p+A0Hf65c7/FhG/KKNZLKhDFT0v4uqjplic/3IkbgGgVhV998mX3ORlbHxVDi9R6
X4p+YuFoNOOZfo9N+It/IvKxiVz/J7qnu9FeBEuWuJdRSsgu8IciDWVOayLDjOkV
hZFTWK0vL2Eq6TQoaP+OObgcRjsCAwEAAaN7MHkwCQYDVR0TBAIwADAsBglghkgB
hvhCAQ0EHxYdT3BlblNTTCBHZW5lcmF0ZWQgQ2VydGlmaWNhdGUwHQYDVR0OBBYE
FD0lRrGAvswqSHO+1aYCPVRdEhINMB8GA1UdIwQYMBaAFJAjzyWFqHNBQTIL4TUr
mQhQUu50MA0GCSqGSIb3DQEBCwUAA4GBAGsPtEwIEi4VCSTngKYjOdp/aou14tF/
WXfL6E/nNLJCVRD3RUpM2r+yqGNNQvQBBOeeHVLB0Q7f7p51VNJykgJHx+ogmHNn
NTH6csBXRZVYz+SsI4/+wtrshj4vdGDlB79WqVCLUmLSFY4iTn3Yv6MpwsHhEeVg
DP+M3Ib6Tc4G
-----END CERTIFICATE-----
