Certificate:
    Data:
        Version: 3 (0x2)
        Serial Number: 268435624 (0x100000a8)
    Signature Algorithm: sha256WithRSAEncryption
        Issuer: CN=CA1_sha256_4096_65537_v3_ca
        Validity
            Not Before: Mar  7 15:17:42 2018 GMT
            Not After : Mar  4 15:17:42 2028 GMT
        Subject: CN=SRK1_sha256_4096_65537_v3_ca
        Subject Public Key Info:
            Public Key Algorithm: rsaEncryption
                Public-Key: (4096 bit)
                Modulus:
                    00:ca:8f:ae:dd:cc:e3:a1:7e:77:17:8b:bd:5f:90:
                    36:94:4e:a0:b0:9d:fa:48:83:29:f0:27:09:c7:cb:
                    5b:ca:59:6a:b5:46:2a:a3:21:03:2d:ed:c4:52:a5:
                    2f:a7:ac:b3:ef:c4:71:21:87:db:8b:e0:5b:1a:ba:
                    bb:67:87:79:7a:01:2f:21:c5:af:5f:f9:fe:88:02:
                    3c:fb:a4:d7:40:24:83:34:45:20:6c:39:74:51:74:
                    b9:20:81:2c:5f:3a:b1:c4:d6:8c:cc:3e:90:40:1a:
                    87:a5:6c:a4:cf:56:58:e8:07:ae:d4:39:0d:2b:62:
                    c7:e2:04:8d:c9:9d:0a:37:06:9e:18:ee:bd:4c:b4:
                    5a:7c:81:60:96:12:be:ca:f2:ed:45:49:85:3f:b8:
                    fc:d7:27:a3:ae:b5:f1:89:ac:e2:74:f0:7b:3f:05:
                    75:55:ac:d2:17:06:7f:72:bf:2a:6f:3e:55:43:67:
                    8c:ef:27:bf:e6:46:32:8a:10:5c:76:de:08:e8:c9:
                    11:25:cb:cf:62:0d:cd:6a:54:42:4f:9c:54:3f:b9:
                    88:18:40:4e:96:8d:42:55:a0:4f:c6:c2:bd:d4:c6:
                    6e:e8:f6:14:36:e5:4c:d5:1c:64:ea:f8:8b:a1:4e:
                    b2:59:fa:dd:46:96:97:08:de:18:3d:d2:d1:ee:ac:
                    80:66:23:4d:32:89:1d:94:5b:0a:4c:ca:8f:ce:89:
                    5c:d9:e9:99:02:95:ec:80:04:a7:4e:04:19:23:4f:
                    81:16:eb:c9:96:ee:c7:28:6f:65:49:72:28:5e:52:
                    d4:d9:2d:4d:6a:f9:5c:cd:b7:46:f6:9b:f9:99:08:
                    05:41:18:49:77:ce:d9:ef:9c:c7:8c:92:9c:a6:85:
                    20:d3:2f:80:93:e5:bd:36:d4:23:5a:25:80:39:6d:
                    ba:b0:cf:a3:b3:90:e5:35:5e:50:69:49:fa:32:8c:
                    ef:0f:1f:5c:bd:08:d4:47:58:65:da:d2:b4:13:ae:
                    44:1f:66:f5:61:b9:06:42:62:51:50:c5:8b:da:2d:
                    d7:d6:87:62:7a:02:01:6b:7c:37:79:c7:ba:dc:da:
                    a5:47:07:35:0b:8f:6e:c7:c4:e4:8d:3a:d0:a8:b8:
                    56:ec:f4:bf:cf:b8:b8:6e:ed:93:53:15:bc:58:27:
                    f2:b7:2c:2e:c4:06:a0:9e:f9:67:ab:f5:26:b6:b1:
                    7d:34:d5:c0:72:5c:f9:aa:a0:58:b8:2a:ac:b6:32:
                    72:fd:6a:24:dd:20:53:af:9e:b4:1d:d2:89:75:2d:
                    67:54:46:38:a0:35:88:4e:b3:a3:b4:c2:1a:f3:41:
                    dd:2c:b1:37:b0:0e:02:13:63:7c:26:1f:99:79:19:
                    3b:a6:7d
                Exponent: 65537 (0x10001)
        X509v3 extensions:
            X509v3 Subject Key Identifier: 
                32:51:1B:AB:57:5C:66:DD:63:A6:A1:8F:58:1A:E1:0F:A8:7D:00:A3
            X509v3 Authority Key Identifier: 
                keyid:15:FC:12:D5:34:E0:8B:3B:EE:68:7C:33:4F:B1:64:71:1A:1A:34:BB
                DirName:/CN=CA1_sha256_4096_65537_v3_ca
                serial:DA:6F:CF:A4:45:78:E7:82

            X509v3 Basic Constraints: critical
                CA:TRUE
            X509v3 Key Usage: 
                Certificate Sign
    Signature Algorithm: sha256WithRSAEncryption
         30:5a:44:30:cf:52:54:af:d5:85:fd:ab:eb:f9:67:0c:04:b2:
         69:a9:95:c2:d1:b1:60:b8:4e:53:c7:f2:da:a5:ab:9f:00:32:
         55:01:5b:0b:02:b2:ea:9d:a8:e5:61:ce:a9:c7:b8:52:6c:d0:
         82:bb:08:bd:72:e8:1f:5d:67:30:a5:81:ea:0b:5c:bb:6b:d2:
         24:bb:ae:0f:de:99:80:f3:91:b4:78:bf:a8:1d:89:50:d7:bc:
         42:36:65:d5:5e:11:e1:b6:5e:ed:2e:b0:8e:fd:0c:ca:44:ca:
         12:55:57:7e:e7:5f:90:d7:94:18:4f:64:9f:59:d0:5b:7e:1c:
         9d:03:e7:dd:6f:b0:b5:31:83:5d:6e:7b:ff:cf:3a:49:9e:91:
         5b:cc:03:45:08:60:10:47:01:35:02:2c:3a:b4:4e:d2:eb:c8:
         95:08:b0:d3:32:57:f3:a5:ff:48:a3:8b:f1:0b:5b:1f:3c:f7:
         8d:b9:f0:27:9a:c7:39:54:fd:6c:0a:68:82:a3:be:97:a8:2d:
         cc:26:25:a9:dc:a1:1c:65:5f:c7:b8:17:20:04:1f:21:b1:10:
         22:10:84:2a:0c:84:fd:5e:53:80:09:ed:d5:56:74:61:d1:e3:
         b9:74:81:ed:e4:89:da:d9:fa:00:88:8c:d4:6c:8e:f3:45:1b:
         5b:9c:4f:ce:e4:14:c7:35:10:81:9d:1a:13:b0:bb:3a:fd:25:
         59:dc:4e:10:48:5e:d6:8c:4a:69:9d:9e:66:b9:de:3b:9a:22:
         06:ad:64:58:65:df:b7:9b:da:6c:06:33:5b:5b:3f:bc:65:1d:
         51:dd:2d:5e:99:b5:11:cf:de:03:07:4c:11:f2:c6:8e:c4:85:
         e8:80:fa:bf:89:af:7a:20:8d:76:ce:7d:c0:01:f7:ae:e8:c2:
         f6:eb:39:26:62:7e:31:3a:ee:ce:90:8f:bd:bf:1a:ad:be:30:
         e2:8b:5e:a7:60:0f:15:d5:a4:de:63:c2:3a:88:49:5a:2a:95:
         a7:7b:5f:00:9e:f6:0e:17:0c:5a:c5:39:0c:7d:7b:44:a4:a9:
         9b:37:65:3f:4d:51:4f:9b:54:05:11:03:3d:47:91:2d:61:aa:
         9e:84:74:76:9f:93:13:00:b8:8b:10:73:05:f5:20:47:36:96:
         12:9a:06:e4:bb:1d:03:61:00:df:14:97:1a:35:bd:81:23:0d:
         7c:9f:0f:74:ab:37:dd:21:13:f9:24:59:24:aa:58:37:fd:69:
         77:1a:6a:16:e9:89:b3:de:3e:6e:11:fd:d3:c0:6d:3b:c5:57:
         b7:c1:31:50:32:a0:0f:af:f8:96:16:0b:60:58:b3:c8:3c:65:
         2d:9f:60:95:1c:48:14:6c
-----BEGIN CERTIFICATE-----
MIIFZDCCA0ygAwIBAgIEEAAAqDANBgkqhkiG9w0BAQsFADAmMSQwIgYDVQQDFBtD
QTFfc2hhMjU2XzQwOTZfNjU1MzdfdjNfY2EwHhcNMTgwMzA3MTUxNzQyWhcNMjgw
MzA0MTUxNzQyWjAnMSUwIwYDVQQDDBxTUksxX3NoYTI1Nl80MDk2XzY1NTM3X3Yz
X2NhMIICIjANBgkqhkiG9w0BAQEFAAOCAg8AMIICCgKCAgEAyo+u3czjoX53F4u9
X5A2lE6gsJ36SIMp8CcJx8tbyllqtUYqoyEDLe3EUqUvp6yz78RxIYfbi+BbGrq7
Z4d5egEvIcWvX/n+iAI8+6TXQCSDNEUgbDl0UXS5IIEsXzqxxNaMzD6QQBqHpWyk
z1ZY6Aeu1DkNK2LH4gSNyZ0KNwaeGO69TLRafIFglhK+yvLtRUmFP7j81yejrrXx
iazidPB7PwV1VazSFwZ/cr8qbz5VQ2eM7ye/5kYyihBcdt4I6MkRJcvPYg3NalRC
T5xUP7mIGEBOlo1CVaBPxsK91MZu6PYUNuVM1Rxk6viLoU6yWfrdRpaXCN4YPdLR
7qyAZiNNMokdlFsKTMqPzolc2emZApXsgASnTgQZI0+BFuvJlu7HKG9lSXIoXlLU
2S1NavlczbdG9pv5mQgFQRhJd87Z75zHjJKcpoUg0y+Ak+W9NtQjWiWAOW26sM+j
s5DlNV5QaUn6MozvDx9cvQjUR1hl2tK0E65EH2b1YbkGQmJRUMWL2i3X1odiegIB
a3w3ece63NqlRwc1C49ux8TkjTrQqLhW7PS/z7i4bu2TUxW8WCfytywuxAagnvln
q/UmtrF9NNXAclz5qqBYuCqstjJy/Wok3SBTr560HdKJdS1nVEY4oDWITrOjtMIa
80HdLLE3sA4CE2N8Jh+ZeRk7pn0CAwEAAaOBmDCBlTAdBgNVHQ4EFgQUMlEbq1dc
Zt1jpqGPWBrhD6h9AKMwVgYDVR0jBE8wTYAUFfwS1TTgizvuaHwzT7FkcRoaNLuh
KqQoMCYxJDAiBgNVBAMUG0NBMV9zaGEyNTZfNDA5Nl82NTUzN192M19jYYIJANpv
z6RFeOeCMA8GA1UdEwEB/wQFMAMBAf8wCwYDVR0PBAQDAgIEMA0GCSqGSIb3DQEB
CwUAA4ICAQAwWkQwz1JUr9WF/avr+WcMBLJpqZXC0bFguE5Tx/LapaufADJVAVsL
ArLqnajlYc6px7hSbNCCuwi9cugfXWcwpYHqC1y7a9Iku64P3pmA85G0eL+oHYlQ
17xCNmXVXhHhtl7tLrCO/QzKRMoSVVd+51+Q15QYT2SfWdBbfhydA+fdb7C1MYNd
bnv/zzpJnpFbzANFCGAQRwE1Aiw6tE7S68iVCLDTMlfzpf9Io4vxC1sfPPeNufAn
msc5VP1sCmiCo76XqC3MJiWp3KEcZV/HuBcgBB8hsRAiEIQqDIT9XlOACe3VVnRh
0eO5dIHt5Ina2foAiIzUbI7zRRtbnE/O5BTHNRCBnRoTsLs6/SVZ3E4QSF7WjEpp
nZ5mud47miIGrWRYZd+3m9psBjNbWz+8ZR1R3S1embURz94DB0wR8saOxIXogPq/
ia96II12zn3AAfeu6ML26zkmYn4xOu7OkI+9vxqtvjDii16nYA8V1aTeY8I6iEla
KpWne18AnvYOFwxaxTkMfXtEpKmbN2U/TVFPm1QFEQM9R5EtYaqehHR2n5MTALiL
EHMF9SBHNpYSmgbkux0DYQDfFJcaNb2BIw18nw90qzfdIRP5JFkkqlg3/Wl3GmoW
6Ymz3j5uEf3TwG07xVe3wTFQMqAPr/iWFgtgWLPIPGUtn2CVHEgUbA==
-----END CERTIFICATE-----
