Certificate:
    Data:
        Version: 3 (0x2)
        Serial Number: 268435606 (0x10000096)
    Signature Algorithm: sha256WithRSAEncryption
        Issuer: CN=CA1_sha256_1024_65537_v3_ca
        Validity
            Not Before: Mar  7 15:17:39 2018 GMT
            Not After : Mar  4 15:17:39 2028 GMT
        Subject: CN=SRK3_sha256_1024_65537_v3_ca
        Subject Public Key Info:
            Public Key Algorithm: rsaEncryption
                Public-Key: (1024 bit)
                Modulus:
                    00:cc:20:0f:34:6a:2e:98:9e:6f:0f:08:29:8f:f9:
                    cd:dd:39:f5:37:6b:c5:8a:d0:eb:76:31:e9:25:bd:
                    9f:2c:f4:f7:da:37:74:5e:40:dd:58:27:e0:42:13:
                    60:9b:fc:5d:09:80:82:84:2c:f2:79:24:a2:ba:57:
                    85:95:b0:89:51:12:a3:dd:10:43:57:56:38:c2:83:
                    cf:79:0f:70:7f:d0:c0:a1:ec:0e:48:a3:87:6d:3b:
                    17:38:f4:60:33:c9:e6:70:66:e5:c3:b8:a0:3d:77:
                    23:ba:49:43:da:40:f7:6a:af:be:7c:39:cd:50:f7:
                    36:87:54:45:aa:52:63:a5:49
                Exponent: 65537 (0x10001)
        X509v3 extensions:
            X509v3 Subject Key Identifier: 
                07:A7:80:EE:12:0E:9B:6E:F8:5A:EF:20:DF:B9:FC:A8:40:54:47:D7
            X509v3 Authority Key Identifier: 
                keyid:7F:53:52:60:D4:FB:9A:CB:5A:17:84:AB:D2:A5:1E:57:23:F4:F9:7E
                DirName:/CN=CA1_sha256_1024_65537_v3_ca
                serial:B4:18:7B:AF:A4:8F:68:D1

            X509v3 Basic Constraints: critical
                CA:TRUE
            X509v3 Key Usage: 
                Certificate Sign
    Signature Algorithm: sha256WithRSAEncryption
         80:1a:82:9e:33:e9:10:d9:03:de:b9:08:a6:b4:fe:92:9c:db:
         8e:a1:46:76:3e:96:3a:04:b6:9c:87:52:62:69:c3:d6:8b:df:
         a8:43:ac:0e:08:7b:5e:8c:1c:37:34:a8:41:ce:8e:31:ea:4b:
         f5:fc:e4:fc:42:e3:2c:0c:b5:a5:f2:18:a5:52:7c:70:94:a9:
         73:3a:62:67:43:9a:5f:67:2a:d6:fc:41:64:2c:bd:74:cd:c6:
         b3:7c:fb:52:98:8e:eb:42:a7:23:42:b0:0c:81:1a:d3:09:76:
         12:38:c1:cb:f9:04:d2:31:ba:aa:5c:f3:89:2c:2a:15:a9:62:
         d2:d5
-----BEGIN CERTIFICATE-----
MIICXzCCAcigAwIBAgIEEAAAljANBgkqhkiG9w0BAQsFADAmMSQwIgYDVQQDFBtD
QTFfc2hhMjU2XzEwMjRfNjU1MzdfdjNfY2EwHhcNMTgwMzA3MTUxNzM5WhcNMjgw
MzA0MTUxNzM5WjAnMSUwIwYDVQQDDBxTUkszX3NoYTI1Nl8xMDI0XzY1NTM3X3Yz
X2NhMIGfMA0GCSqGSIb3DQEBAQUAA4GNADCBiQKBgQDMIA80ai6Ynm8PCCmP+c3d
OfU3a8WK0Ot2MeklvZ8s9PfaN3ReQN1YJ+BCE2Cb/F0JgIKELPJ5JKK6V4WVsIlR
EqPdEENXVjjCg895D3B/0MCh7A5Io4dtOxc49GAzyeZwZuXDuKA9dyO6SUPaQPdq
r758Oc1Q9zaHVEWqUmOlSQIDAQABo4GYMIGVMB0GA1UdDgQWBBQHp4DuEg6bbvha
7yDfufyoQFRH1zBWBgNVHSMETzBNgBR/U1Jg1Puay1oXhKvSpR5XI/T5fqEqpCgw
JjEkMCIGA1UEAxQbQ0ExX3NoYTI1Nl8xMDI0XzY1NTM3X3YzX2NhggkAtBh7r6SP
aNEwDwYDVR0TAQH/BAUwAwEB/zALBgNVHQ8EBAMCAgQwDQYJKoZIhvcNAQELBQAD
gYEAgBqCnjPpENkD3rkIprT+kpzbjqFGdj6WOgS2nIdSYmnD1ovfqEOsDgh7Xowc
NzSoQc6OMepL9fzk/ELjLAy1pfIYpVJ8cJSpczpiZ0OaX2cq1vxBZCy9dM3Gs3z7
UpiO60KnI0KwDIEa0wl2EjjBy/kE0jG6qlzziSwqFali0tU=
-----END CERTIFICATE-----
