Certificate:
    Data:
        Version: 3 (0x2)
        Serial Number: 268435613 (0x1000009d)
    Signature Algorithm: sha256WithRSAEncryption
        Issuer: CN=SRK1_sha256_2048_65537_v3_ca
        Validity
            Not Before: Mar  7 15:17:39 2018 GMT
            Not After : Mar  4 15:17:39 2028 GMT
        Subject: CN=CSF1_1_sha256_2048_65537_v3_usr
        Subject Public Key Info:
            Public Key Algorithm: rsaEncryption
                Public-Key: (2048 bit)
                Modulus:
                    00:b0:d6:c6:b1:ed:f1:7f:08:6a:6b:9f:f7:24:85:
                    48:f2:42:8c:e1:f0:89:6f:af:5d:73:67:76:b3:bd:
                    07:83:bb:3b:8c:48:14:ab:eb:55:b9:0e:22:4d:b8:
                    b3:3c:f8:61:df:ca:e6:66:74:9d:cb:e0:6a:42:c0:
                    9b:0d:1b:07:f5:be:52:06:c9:91:84:ff:1d:0d:75:
                    0a:30:26:d6:77:3d:90:67:6f:85:0b:7b:96:f9:95:
                    b7:c3:b8:61:1f:2c:19:49:c0:cb:fa:78:0d:be:2a:
                    66:eb:25:84:13:4a:9d:ea:5b:72:20:4c:74:97:7f:
                    23:b8:26:4c:cb:00:da:a2:06:07:86:3f:59:0b:ad:
                    99:71:f7:17:91:f5:b6:f4:23:6d:63:54:fe:15:67:
                    8f:0a:cb:12:00:36:b6:e8:5e:e8:54:52:9f:25:3e:
                    eb:c8:e5:e0:c1:3c:33:9f:4d:50:fd:58:e8:61:bb:
                    33:90:d6:a9:d1:91:b9:1e:67:18:9c:22:23:8b:3e:
                    ca:d1:1b:f2:c7:8a:42:3c:a0:2a:4b:ee:0a:99:27:
                    db:10:7c:d2:f3:be:ff:6c:37:4e:5a:43:a7:41:c3:
                    e6:d6:d0:e2:56:4b:eb:94:ad:a5:ca:1d:45:e1:a7:
                    bb:8d:4a:e5:4e:d0:df:b8:4d:98:48:22:29:f9:a6:
                    86:cd
                Exponent: 65537 (0x10001)
        X509v3 extensions:
            X509v3 Basic Constraints: 
                CA:FALSE
            Netscape Comment: 
                OpenSSL Generated Certificate
            X509v3 Subject Key Identifier: 
                6F:28:1E:0A:2E:29:16:0D:45:45:04:14:C4:BD:03:DB:80:06:31:3A
            X509v3 Authority Key Identifier: 
                keyid:53:DB:B8:37:66:41:1C:D6:A1:A2:D3:7A:BA:0D:27:99:9C:7E:69:07

    Signature Algorithm: sha256WithRSAEncryption
         45:9f:cb:0c:8d:fe:92:eb:7f:bd:70:e5:63:89:92:e5:48:57:
         52:d5:b6:40:e8:17:4e:42:53:37:b7:8e:5a:3d:8c:a7:11:8b:
         1d:8a:11:41:c1:c0:0c:1f:ff:77:8e:82:8a:a1:90:c5:00:51:
         d8:f9:5a:65:69:8a:1b:0d:6b:4f:d5:33:8b:10:dd:e2:48:62:
         11:ff:d7:01:ae:10:52:fb:6b:8c:c6:a5:c7:10:6a:83:5f:2b:
         55:61:4f:c3:af:cb:99:38:dd:a7:5e:cf:3c:a9:00:73:6c:bf:
         6d:59:f7:6e:b5:71:47:32:c9:f3:75:32:39:a8:b3:cb:f6:2f:
         95:b0:46:0e:9e:c1:52:7b:1d:ef:ce:5f:fd:01:e5:21:52:09:
         59:89:25:16:4f:5e:f6:a4:60:b8:5a:66:54:c0:e4:9a:ff:b9:
         a6:45:82:2c:88:17:17:db:1f:8d:bc:f5:40:5e:99:4a:68:c4:
         e4:f1:a8:cb:24:e9:70:bc:ce:e8:fb:32:16:12:9a:ae:ab:30:
         42:6c:e5:e3:0c:30:ed:5f:4f:38:ce:65:77:1f:a1:10:9a:65:
         e3:3a:c4:e8:8f:54:21:a5:c5:d2:f5:33:ad:07:49:82:ea:a7:
         3e:75:d0:06:03:3c:c2:d3:24:d6:07:8c:80:ab:64:4a:da:8f:
         36:61:14:4e
-----BEGIN CERTIFICATE-----
MIIDSjCCAjKgAwIBAgIEEAAAnTANBgkqhkiG9w0BAQsFADAnMSUwIwYDVQQDDBxT
UksxX3NoYTI1Nl8yMDQ4XzY1NTM3X3YzX2NhMB4XDTE4MDMwNzE1MTczOVoXDTI4
MDMwNDE1MTczOVowKjEoMCYGA1UEAwwfQ1NGMV8xX3NoYTI1Nl8yMDQ4XzY1NTM3
X3YzX3VzcjCCASIwDQYJKoZIhvcNAQEBBQADggEPADCCAQoCggEBALDWxrHt8X8I
amuf9ySFSPJCjOHwiW+vXXNndrO9B4O7O4xIFKvrVbkOIk24szz4Yd/K5mZ0ncvg
akLAmw0bB/W+UgbJkYT/HQ11CjAm1nc9kGdvhQt7lvmVt8O4YR8sGUnAy/p4Db4q
ZuslhBNKnepbciBMdJd/I7gmTMsA2qIGB4Y/WQutmXH3F5H1tvQjbWNU/hVnjwrL
EgA2tuhe6FRSnyU+68jl4ME8M59NUP1Y6GG7M5DWqdGRuR5nGJwiI4s+ytEb8seK
QjygKkvuCpkn2xB80vO+/2w3TlpDp0HD5tbQ4lZL65StpcodReGnu41K5U7Q37hN
mEgiKfmmhs0CAwEAAaN7MHkwCQYDVR0TBAIwADAsBglghkgBhvhCAQ0EHxYdT3Bl
blNTTCBHZW5lcmF0ZWQgQ2VydGlmaWNhdGUwHQYDVR0OBBYEFG8oHgouKRYNRUUE
FMS9A9uABjE6MB8GA1UdIwQYMBaAFFPbuDdmQRzWoaLTeroNJ5mcfmkHMA0GCSqG
SIb3DQEBCwUAA4IBAQBFn8sMjf6S63+9cOVjiZLlSFdS1bZA6BdOQlM3t45aPYyn
EYsdihFBwcAMH/93joKKoZDFAFHY+VplaYobDWtP1TOLEN3iSGIR/9cBrhBS+2uM
xqXHEGqDXytVYU/Dr8uZON2nXs88qQBzbL9tWfdutXFHMsnzdTI5qLPL9i+VsEYO
nsFSex3vzl/9AeUhUglZiSUWT172pGC4WmZUwOSa/7mmRYIsiBcX2x+NvPVAXplK
aMTk8ajLJOlwvM7o+zIWEpquqzBCbOXjDDDtX084zmV3H6EQmmXjOsToj1QhpcXS
9TOtB0mC6qc+ddAGAzzC0yTWB4yAq2RK2o82YRRO
-----END CERTIFICATE-----
