Certificate:
    Data:
        Version: 3 (0x2)
        Serial Number: 268435626 (0x100000aa)
    Signature Algorithm: sha256WithRSAEncryption
        Issuer: CN=SRK1_sha256_4096_65537_v3_ca
        Validity
            Not Before: Mar  7 15:17:44 2018 GMT
            Not After : Mar  4 15:17:44 2028 GMT
        Subject: CN=IMG1_1_sha256_4096_65537_v3_usr
        Subject Public Key Info:
            Public Key Algorithm: rsaEncryption
                Public-Key: (4096 bit)
                Modulus:
                    00:f7:9e:1b:7e:05:16:e5:b2:42:ea:0d:ff:58:f4:
                    e0:8a:ef:d0:05:a1:ab:a8:d7:03:e1:37:b7:93:0a:
                    9e:54:e6:73:e9:3e:32:b0:9d:69:cd:01:36:c0:6d:
                    bd:4d:94:f7:85:92:17:2d:07:af:2d:0b:0c:8c:8c:
                    46:3e:72:b2:20:ef:8e:0d:20:5a:b5:47:42:ca:46:
                    f0:bd:f2:51:cb:b4:97:ce:19:b8:1c:cf:54:05:fe:
                    ec:93:5a:04:f5:ad:3f:c9:50:6a:dd:c4:e5:3c:ef:
                    04:5b:27:d2:f6:68:76:23:a8:ee:d6:4d:6b:37:11:
                    23:6c:47:28:22:e8:45:ca:8e:95:1c:8c:3a:81:4d:
                    15:8b:32:f4:5b:68:33:df:18:c6:f5:56:49:38:53:
                    1d:24:97:8a:a2:db:4d:a5:8d:82:a9:81:17:46:1a:
                    d2:6e:0b:98:46:85:f5:ce:57:a4:de:2a:55:78:97:
                    70:61:fc:d1:53:c8:0d:d5:ab:b6:c1:58:c9:ae:03:
                    0b:19:a6:4c:ee:4b:ca:61:b2:ea:69:0f:60:73:30:
                    8c:47:8d:c9:fd:1f:e0:bf:c8:9d:09:16:c3:cf:35:
                    3c:32:6f:f3:c4:73:8e:8c:0b:c6:66:ca:f3:c8:e6:
                    ae:37:d4:32:8d:5c:21:5e:9c:99:eb:2d:91:e2:e0:
                    18:e4:3f:ad:98:99:e0:ef:9d:25:bf:84:f7:d2:a4:
                    19:f0:2a:77:5e:0b:ee:40:89:0e:fc:47:93:09:35:
                    8a:91:94:c4:e8:3b:4b:80:b2:1c:ce:de:60:be:5a:
                    d4:de:d9:b2:4f:6a:9f:b3:64:5c:cd:e4:29:37:1e:
                    06:68:78:7a:f9:47:9b:04:c7:9f:fa:ec:0f:6d:65:
                    f7:e3:96:e1:d9:b2:46:8d:4e:03:85:c7:8a:7f:f5:
                    36:90:10:98:00:96:20:b8:13:d5:56:27:02:73:d2:
                    50:0b:b7:37:73:92:7f:72:a0:f5:2f:cb:f4:4b:3a:
                    48:ee:38:18:40:0a:ff:ba:e5:b0:3c:16:71:2b:6e:
                    81:8d:e7:88:66:b4:5d:d7:7a:b2:a8:74:07:6b:14:
                    02:cc:a5:76:eb:2c:20:81:df:26:9c:c5:7c:72:81:
                    0d:79:11:b2:fa:82:d9:71:ab:4e:50:89:49:01:68:
                    b2:62:41:8a:71:16:0f:77:c8:7d:29:a5:68:e8:80:
                    89:04:d6:45:6f:54:29:20:91:41:e0:bb:f1:23:d7:
                    94:8e:04:ca:7c:24:f8:ef:3e:5e:78:c2:ef:02:e9:
                    aa:38:c7:80:9b:f3:43:9b:b5:7f:ec:45:4a:65:3d:
                    ee:bb:d0:2d:6d:22:aa:1f:46:9c:86:73:12:28:35:
                    c4:99:23
                Exponent: 65537 (0x10001)
        X509v3 extensions:
            X509v3 Basic Constraints: 
                CA:FALSE
            Netscape Comment: 
                OpenSSL Generated Certificate
            X509v3 Subject Key Identifier: 
                25:C5:B7:94:64:90:44:06:E6:13:8C:C2:42:F0:E3:03:55:75:9F:16
            X509v3 Authority Key Identifier: 
                keyid:32:51:1B:AB:57:5C:66:DD:63:A6:A1:8F:58:1A:E1:0F:A8:7D:00:A3

    Signature Algorithm: sha256WithRSAEncryption
         bc:87:10:97:44:d0:f8:92:c1:1d:48:35:f3:64:ce:97:90:75:
         58:6a:80:c1:65:ce:ec:ac:75:e0:39:52:07:4d:3c:5c:65:75:
         d7:44:32:a0:ed:d0:9e:79:ce:99:05:4a:6d:b0:2c:33:c3:25:
         88:84:43:bb:b5:01:57:96:25:fa:03:86:71:7a:17:be:57:c2:
         3d:51:44:71:f7:2c:25:8d:e2:fd:a9:c5:e7:22:97:c4:5c:5d:
         19:0f:09:91:4d:d8:f6:71:d3:64:c0:fb:28:cd:e4:e1:66:26:
         99:4d:b1:44:a9:d5:97:5b:17:6e:a9:21:da:63:67:76:c4:61:
         af:24:a2:11:66:e5:f2:20:f0:8a:89:7f:88:ec:b0:35:e0:3a:
         71:73:9a:50:22:0b:03:11:eb:3e:cc:1c:a1:48:56:ec:82:30:
         ae:a0:e8:9c:5d:d9:80:04:bd:02:dd:c9:b7:13:bb:14:c1:87:
         f2:6a:f3:b7:f6:6d:e4:af:01:11:b2:e8:e7:72:e3:23:69:86:
         18:8e:46:8b:e3:db:6e:42:1c:f3:c7:2d:47:cb:b2:fe:e5:91:
         fa:de:31:58:35:5d:5b:56:88:53:d1:01:28:79:59:9a:f9:6b:
         02:17:1a:bc:73:b7:a1:b4:30:69:c8:b8:32:e6:78:08:03:fc:
         60:cd:d4:06:14:df:b1:87:47:dd:e5:8b:52:17:7e:5e:d4:60:
         60:69:30:2a:4a:ec:e1:81:20:89:84:35:11:8e:cb:8a:0d:87:
         83:ee:a4:1c:7e:1e:2e:21:f1:cb:86:1f:4c:48:8a:97:9b:78:
         a7:d3:7d:ff:8f:c8:fc:74:35:45:c6:16:40:e4:50:5d:5e:54:
         38:c4:cb:02:52:32:b5:06:3b:1a:b0:30:a6:22:be:a9:b4:d9:
         19:32:1a:af:5e:54:7f:8d:4a:af:dc:cc:4f:6e:b4:06:6b:ae:
         16:14:13:27:ff:80:81:c3:bb:46:26:2b:e0:43:8d:76:b7:41:
         ce:80:a4:12:1d:eb:15:03:ec:f7:f4:c3:a4:77:f4:f6:53:8b:
         8c:c1:dc:10:e0:c1:7c:92:11:00:cd:c6:d6:b7:58:83:f5:60:
         d6:01:9f:af:49:f9:6d:f6:64:fe:09:fa:b8:a3:62:ec:bf:da:
         61:08:d8:4e:df:97:07:02:74:21:c0:d7:26:e8:21:a4:93:64:
         3b:94:38:f5:45:27:dd:b2:1b:46:e6:37:94:ba:36:a2:e2:5f:
         c4:3f:b6:b6:90:99:db:ad:1f:98:da:43:c7:c8:4f:5c:ca:a2:
         5e:8f:21:48:04:f4:ba:81:d1:9b:d8:96:c1:3d:b3:84:6a:3e:
         36:fb:fa:15:e9:2a:3e:93
-----BEGIN CERTIFICATE-----
MIIFSjCCAzKgAwIBAgIEEAAAqjANBgkqhkiG9w0BAQsFADAnMSUwIwYDVQQDDBxT
UksxX3NoYTI1Nl80MDk2XzY1NTM3X3YzX2NhMB4XDTE4MDMwNzE1MTc0NFoXDTI4
MDMwNDE1MTc0NFowKjEoMCYGA1UEAwwfSU1HMV8xX3NoYTI1Nl80MDk2XzY1NTM3
X3YzX3VzcjCCAiIwDQYJKoZIhvcNAQEBBQADggIPADCCAgoCggIBAPeeG34FFuWy
QuoN/1j04Irv0AWhq6jXA+E3t5MKnlTmc+k+MrCdac0BNsBtvU2U94WSFy0Hry0L
DIyMRj5ysiDvjg0gWrVHQspG8L3yUcu0l84ZuBzPVAX+7JNaBPWtP8lQat3E5Tzv
BFsn0vZodiOo7tZNazcRI2xHKCLoRcqOlRyMOoFNFYsy9FtoM98YxvVWSThTHSSX
iqLbTaWNgqmBF0Ya0m4LmEaF9c5XpN4qVXiXcGH80VPIDdWrtsFYya4DCxmmTO5L
ymGy6mkPYHMwjEeNyf0f4L/InQkWw881PDJv88RzjowLxmbK88jmrjfUMo1cIV6c
mestkeLgGOQ/rZiZ4O+dJb+E99KkGfAqd14L7kCJDvxHkwk1ipGUxOg7S4CyHM7e
YL5a1N7Zsk9qn7NkXM3kKTceBmh4evlHmwTHn/rsD21l9+OW4dmyRo1OA4XHin/1
NpAQmACWILgT1VYnAnPSUAu3N3OSf3Kg9S/L9Es6SO44GEAK/7rlsDwWcStugY3n
iGa0Xdd6sqh0B2sUAsyldussIIHfJpzFfHKBDXkRsvqC2XGrTlCJSQFosmJBinEW
D3fIfSmlaOiAiQTWRW9UKSCRQeC78SPXlI4Eynwk+O8+XnjC7wLpqjjHgJvzQ5u1
f+xFSmU97rvQLW0iqh9GnIZzEig1xJkjAgMBAAGjezB5MAkGA1UdEwQCMAAwLAYJ
YIZIAYb4QgENBB8WHU9wZW5TU0wgR2VuZXJhdGVkIENlcnRpZmljYXRlMB0GA1Ud
DgQWBBQlxbeUZJBEBuYTjMJC8OMDVXWfFjAfBgNVHSMEGDAWgBQyURurV1xm3WOm
oY9YGuEPqH0AozANBgkqhkiG9w0BAQsFAAOCAgEAvIcQl0TQ+JLBHUg182TOl5B1
WGqAwWXO7Kx14DlSB008XGV110QyoO3QnnnOmQVKbbAsM8MliIRDu7UBV5Yl+gOG
cXoXvlfCPVFEcfcsJY3i/anF5yKXxFxdGQ8JkU3Y9nHTZMD7KM3k4WYmmU2xRKnV
l1sXbqkh2mNndsRhrySiEWbl8iDwiol/iOywNeA6cXOaUCILAxHrPswcoUhW7IIw
rqDonF3ZgAS9At3JtxO7FMGH8mrzt/Zt5K8BEbLo53LjI2mGGI5Gi+PbbkIc88ct
R8uy/uWR+t4xWDVdW1aIU9EBKHlZmvlrAhcavHO3obQwaci4MuZ4CAP8YM3UBhTf
sYdH3eWLUhd+XtRgYGkwKkrs4YEgiYQ1EY7Lig2Hg+6kHH4eLiHxy4YfTEiKl5t4
p9N9/4/I/HQ1RcYWQORQXV5UOMTLAlIytQY7GrAwpiK+qbTZGTIar15Uf41Kr9zM
T260BmuuFhQTJ/+AgcO7RiYr4EONdrdBzoCkEh3rFQPs9/TDpHf09lOLjMHcEODB
fJIRAM3G1rdYg/Vg1gGfr0n5bfZk/gn6uKNi7L/aYQjYTt+XBwJ0IcDXJughpJNk
O5Q49UUn3bIbRuY3lLo2ouJfxD+2tpCZ260fmNpDx8hPXMqiXo8hSAT0uoHRm9iW
wT2zhGo+Nvv6FekqPpM=
-----END CERTIFICATE-----
