Certificate:
    Data:
        Version: 3 (0x2)
        Serial Number: 268435604 (0x10000094)
    Signature Algorithm: sha256WithRSAEncryption
        Issuer: CN=SRK2_sha256_1024_65537_v3_ca
        Validity
            Not Before: Mar  7 15:17:38 2018 GMT
            Not After : Mar  4 15:17:38 2028 GMT
        Subject: CN=CSF2_1_sha256_1024_65537_v3_usr
        Subject Public Key Info:
            Public Key Algorithm: rsaEncryption
                Public-Key: (1024 bit)
                Modulus:
                    00:ad:e3:f8:8b:51:e5:b0:2d:82:34:0b:5e:46:4a:
                    fe:91:cf:b4:28:52:02:de:12:1d:c0:96:45:8d:e1:
                    4e:c6:d0:95:68:1d:76:f2:8a:21:c9:c6:f9:b3:1a:
                    f2:2f:1f:fb:75:97:0e:75:db:6d:a4:5b:f4:5a:65:
                    6b:12:a9:2a:19:e5:80:9a:1b:c8:a8:93:74:11:8b:
                    ce:c8:bd:49:43:38:ab:fb:77:23:34:2d:b0:3f:70:
                    98:69:6b:ba:de:56:6f:f7:ad:fe:79:ae:a2:a9:95:
                    87:dc:03:ec:27:bd:8d:a4:1f:16:15:76:0d:52:d5:
                    42:c3:72:6b:a3:f7:b7:25:51
                Exponent: 65537 (0x10001)
        X509v3 extensions:
            X509v3 Basic Constraints: 
                CA:FALSE
            Netscape Comment: 
                OpenSSL Generated Certificate
            X509v3 Subject Key Identifier: 
                3B:0E:4A:35:D2:9B:F0:18:FE:98:A8:5F:03:62:46:44:BC:7F:73:49
            X509v3 Authority Key Identifier: 
                keyid:90:23:CF:25:85:A8:73:41:41:32:0B:E1:35:2B:99:08:50:52:EE:74

    Signature Algorithm: sha256WithRSAEncryption
         0b:f6:ad:c4:cc:01:a0:2e:93:b8:85:55:52:c7:80:41:cc:56:
         38:36:b7:64:d8:4a:26:a4:a7:07:70:86:a9:18:57:e8:a6:d5:
         66:24:d0:63:e7:f6:79:8b:c7:f0:ec:a4:91:d4:66:86:5f:17:
         c8:2f:25:71:ac:98:98:ec:7c:a1:97:4b:9d:c2:2d:06:76:2c:
         e0:e4:ee:00:a2:21:f6:b1:39:13:01:25:b8:06:3e:4c:43:2f:
         45:02:db:7e:53:eb:23:79:9b:46:b6:56:34:e9:e2:29:95:6f:
         1a:ad:46:f3:a8:74:e6:5e:5b:a0:d7:db:80:c5:bc:c3:0c:77:
         67:fe
-----BEGIN CERTIFICATE-----
MIICRTCCAa6gAwIBAgIEEAAAlDANBgkqhkiG9w0BAQsFADAnMSUwIwYDVQQDDBxT
UksyX3NoYTI1Nl8xMDI0XzY1NTM3X3YzX2NhMB4XDTE4MDMwNzE1MTczOFoXDTI4
MDMwNDE1MTczOFowKjEoMCYGA1UEAwwfQ1NGMl8xX3NoYTI1Nl8xMDI0XzY1NTM3
X3YzX3VzcjCBnzANBgkqhkiG9w0BAQEFAAOBjQAwgYkCgYEAreP4i1HlsC2CNAte
Rkr+kc+0KFIC3hIdwJZFjeFOxtCVaB128oohycb5sxryLx/7dZcOddttpFv0WmVr
EqkqGeWAmhvIqJN0EYvOyL1JQzir+3cjNC2wP3CYaWu63lZv963+ea6iqZWH3APs
J72NpB8WFXYNUtVCw3Jro/e3JVECAwEAAaN7MHkwCQYDVR0TBAIwADAsBglghkgB
hvhCAQ0EHxYdT3BlblNTTCBHZW5lcmF0ZWQgQ2VydGlmaWNhdGUwHQYDVR0OBBYE
FDsOSjXSm/AY/pioXwNiRkS8f3NJMB8GA1UdIwQYMBaAFJAjzyWFqHNBQTIL4TUr
mQhQUu50MA0GCSqGSIb3DQEBCwUAA4GBAAv2rcTMAaAuk7iFVVLHgEHMVjg2t2TY
SiakpwdwhqkYV+im1WYk0GPn9nmLx/DspJHUZoZfF8gvJXGsmJjsfKGXS53CLQZ2
LODk7gCiIfaxORMBJbgGPkxDL0UC235T6yN5m0a2VjTp4imVbxqtRvOodOZeW6DX
24DFvMMMd2f+
-----END CERTIFICATE-----
