Certificate:
    Data:
        Version: 3 (0x2)
        Serial Number: 268435609 (0x10000099)
    Signature Algorithm: sha256WithRSAEncryption
        Issuer: CN=CA1_sha256_1024_65537_v3_ca
        Validity
            Not Before: Mar  7 15:17:39 2018 GMT
            Not After : Mar  4 15:17:39 2028 GMT
        Subject: CN=SRK4_sha256_1024_65537_v3_ca
        Subject Public Key Info:
            Public Key Algorithm: rsaEncryption
                Public-Key: (1024 bit)
                Modulus:
                    00:cf:90:ff:44:9c:64:de:ed:aa:4f:0b:23:50:28:
                    97:d2:02:54:b2:39:5f:a8:7d:a7:60:e5:c1:93:31:
                    d1:74:ee:84:a0:1d:61:5e:16:07:49:80:ae:1a:ad:
                    8e:14:e1:90:43:9f:c4:02:42:f2:29:f3:85:96:f2:
                    c1:41:82:04:10:96:aa:96:90:21:15:39:80:ca:2d:
                    8f:de:69:49:c3:d8:8b:78:6d:5a:fa:6b:82:19:bd:
                    9b:00:c3:23:7f:20:f1:5c:1f:fa:ee:73:71:c9:98:
                    1b:3b:68:ec:d9:3e:01:02:8c:98:01:b6:97:3b:37:
                    30:53:07:e2:d7:e9:92:46:d9
                Exponent: 65537 (0x10001)
        X509v3 extensions:
            X509v3 Subject Key Identifier: 
                27:78:77:BB:9F:57:CC:C0:39:ED:68:BF:AA:9A:BD:7D:48:BA:9F:E8
            X509v3 Authority Key Identifier: 
                keyid:7F:53:52:60:D4:FB:9A:CB:5A:17:84:AB:D2:A5:1E:57:23:F4:F9:7E
                DirName:/CN=CA1_sha256_1024_65537_v3_ca
                serial:B4:18:7B:AF:A4:8F:68:D1

            X509v3 Basic Constraints: critical
                CA:TRUE
            X509v3 Key Usage: 
                Certificate Sign
    Signature Algorithm: sha256WithRSAEncryption
         1f:f7:8c:de:15:42:02:c2:34:d3:a6:64:19:08:ce:ba:33:6e:
         a2:3e:68:8d:a0:2c:f9:9b:4d:29:ea:ec:50:a8:78:dd:33:60:
         a2:e5:6a:c4:86:ab:b1:93:18:72:15:bd:ab:8b:29:ee:9c:8c:
         7e:5e:81:72:00:e7:c9:e9:c9:c7:ea:60:05:58:25:d6:3a:30:
         11:44:e9:7b:57:2b:b3:3b:b0:72:24:1d:e3:85:49:46:11:c1:
         c6:27:5b:93:b4:d8:58:61:37:bd:71:f0:54:43:5c:bf:87:2b:
         23:ef:fe:d1:6f:b3:61:5e:15:6a:76:d0:ff:db:cd:85:ed:e9:
         d3:99
-----BEGIN CERTIFICATE-----
MIICXzCCAcigAwIBAgIEEAAAmTANBgkqhkiG9w0BAQsFADAmMSQwIgYDVQQDFBtD
QTFfc2hhMjU2XzEwMjRfNjU1MzdfdjNfY2EwHhcNMTgwMzA3MTUxNzM5WhcNMjgw
MzA0MTUxNzM5WjAnMSUwIwYDVQQDDBxTUks0X3NoYTI1Nl8xMDI0XzY1NTM3X3Yz
X2NhMIGfMA0GCSqGSIb3DQEBAQUAA4GNADCBiQKBgQDPkP9EnGTe7apPCyNQKJfS
AlSyOV+ofadg5cGTMdF07oSgHWFeFgdJgK4arY4U4ZBDn8QCQvIp84WW8sFBggQQ
lqqWkCEVOYDKLY/eaUnD2It4bVr6a4IZvZsAwyN/IPFcH/ruc3HJmBs7aOzZPgEC
jJgBtpc7NzBTB+LX6ZJG2QIDAQABo4GYMIGVMB0GA1UdDgQWBBQneHe7n1fMwDnt
aL+qmr19SLqf6DBWBgNVHSMETzBNgBR/U1Jg1Puay1oXhKvSpR5XI/T5fqEqpCgw
JjEkMCIGA1UEAxQbQ0ExX3NoYTI1Nl8xMDI0XzY1NTM3X3YzX2NhggkAtBh7r6SP
aNEwDwYDVR0TAQH/BAUwAwEB/zALBgNVHQ8EBAMCAgQwDQYJKoZIhvcNAQELBQAD
gYEAH/eM3hVCAsI006ZkGQjOujNuoj5ojaAs+ZtNKersUKh43TNgouVqxIarsZMY
chW9q4sp7pyMfl6BcgDnyenJx+pgBVgl1jowEUTpe1crszuwciQd44VJRhHBxidb
k7TYWGE3vXHwVENcv4crI+/+0W+zYV4VanbQ/9vNhe3p05k=
-----END CERTIFICATE-----
