Certificate:
    Data:
        Version: 3 (0x2)
        Serial Number: 268435623 (0x100000a7)
    Signature Algorithm: sha256WithRSAEncryption
        Issuer: CN=SRK4_sha256_2048_65537_v3_ca
        Validity
            Not Before: Mar  7 15:17:41 2018 GMT
            Not After : Mar  4 15:17:41 2028 GMT
        Subject: CN=IMG4_1_sha256_2048_65537_v3_usr
        Subject Public Key Info:
            Public Key Algorithm: rsaEncryption
                Public-Key: (2048 bit)
                Modulus:
                    00:c7:39:c6:19:81:57:6a:31:eb:89:23:e8:a8:a5:
                    b9:45:a6:87:14:6a:7e:b8:c7:81:d9:b6:bb:70:29:
                    33:24:66:34:ee:1c:1e:ee:f3:a5:6a:f6:c0:42:23:
                    3c:ef:e5:93:2a:f5:e2:ca:3f:a1:e0:54:6b:b1:08:
                    a7:ad:be:79:8c:3a:b9:68:12:4a:c7:47:13:b8:74:
                    ca:3a:d0:44:6e:8d:f8:e2:c8:8e:82:5f:7d:9b:08:
                    de:12:e6:0a:e8:e6:5f:5c:fa:fd:fd:35:e7:2b:8e:
                    e0:29:08:08:15:7e:2c:a5:b2:8c:df:d9:b2:c2:b7:
                    da:5f:7a:bf:01:4f:28:d0:c4:76:ab:e2:b2:5c:b0:
                    ad:ff:01:30:ef:70:48:31:1b:11:fa:c6:73:5a:63:
                    74:ce:d3:41:36:f9:9f:32:2c:15:92:c9:8c:07:7d:
                    fc:8d:84:41:03:ba:67:ee:d2:d3:be:ff:4f:dc:dd:
                    f7:1a:9f:d8:00:49:d0:21:14:fe:09:b9:c0:9f:76:
                    fb:6c:51:90:a4:52:1e:3f:65:38:a7:91:f3:bd:cc:
                    ec:c6:e4:bf:c0:2f:7c:09:31:13:4b:b0:83:05:ec:
                    1b:22:7d:03:41:11:71:8f:d7:f7:e2:e8:28:36:40:
                    65:cb:28:87:7a:fa:c1:32:7c:ed:0f:29:87:25:8b:
                    6b:93
                Exponent: 65537 (0x10001)
        X509v3 extensions:
            X509v3 Basic Constraints: 
                CA:FALSE
            Netscape Comment: 
                OpenSSL Generated Certificate
            X509v3 Subject Key Identifier: 
                C5:B6:30:79:FD:B2:45:DB:C1:B9:1C:E5:3E:6D:77:6C:AD:AA:2A:8D
            X509v3 Authority Key Identifier: 
                keyid:D8:78:C1:EF:70:78:22:55:A5:B7:FC:70:D0:69:D9:1E:74:58:E8:D2

    Signature Algorithm: sha256WithRSAEncryption
         18:bd:f8:a3:88:57:22:50:2c:d0:cd:94:df:e3:7e:d9:14:e5:
         3c:37:2f:5a:16:1d:2b:66:f0:93:be:e1:5c:b6:51:64:67:34:
         de:e4:60:5a:b5:9b:1a:70:33:68:dd:04:ec:46:8a:dd:23:d8:
         df:a3:d1:80:d9:af:bb:6c:06:52:41:4a:71:f2:38:bf:79:22:
         fd:ae:8c:c7:ee:e8:b8:09:96:9e:45:ee:ca:49:4d:c4:ef:54:
         65:c7:0b:05:5b:87:eb:60:5a:bc:fb:17:41:37:4d:35:42:a2:
         2e:8f:29:b0:49:1a:c0:84:06:12:af:62:41:65:d9:66:69:86:
         9e:e9:ea:83:02:7b:a5:d9:ac:29:72:7d:b8:0b:44:bf:00:68:
         8d:22:04:d9:ba:78:18:e4:c3:6d:b0:b9:d8:bf:fa:c7:73:75:
         06:25:af:1d:5e:52:a4:c8:71:0b:4c:73:0f:31:3f:ec:53:79:
         50:65:b1:dd:02:d8:90:e7:ed:ec:95:0d:2a:a3:51:c7:e7:50:
         65:94:75:fc:82:af:86:d7:c8:7c:26:84:a6:78:94:4b:d5:74:
         4c:bb:47:b4:60:40:c0:d0:ef:81:db:39:56:f1:0a:f5:4a:e4:
         58:9a:98:21:57:83:c9:8f:ed:a2:b9:b3:0e:a6:76:b2:e9:cd:
         2c:52:cb:be
-----BEGIN CERTIFICATE-----
MIIDSjCCAjKgAwIBAgIEEAAApzANBgkqhkiG9w0BAQsFADAnMSUwIwYDVQQDDBxT
Uks0X3NoYTI1Nl8yMDQ4XzY1NTM3X3YzX2NhMB4XDTE4MDMwNzE1MTc0MVoXDTI4
MDMwNDE1MTc0MVowKjEoMCYGA1UEAwwfSU1HNF8xX3NoYTI1Nl8yMDQ4XzY1NTM3
X3YzX3VzcjCCASIwDQYJKoZIhvcNAQEBBQADggEPADCCAQoCggEBAMc5xhmBV2ox
64kj6KiluUWmhxRqfrjHgdm2u3ApMyRmNO4cHu7zpWr2wEIjPO/lkyr14so/oeBU
a7EIp62+eYw6uWgSSsdHE7h0yjrQRG6N+OLIjoJffZsI3hLmCujmX1z6/f015yuO
4CkICBV+LKWyjN/ZssK32l96vwFPKNDEdqvislywrf8BMO9wSDEbEfrGc1pjdM7T
QTb5nzIsFZLJjAd9/I2EQQO6Z+7S077/T9zd9xqf2ABJ0CEU/gm5wJ92+2xRkKRS
Hj9lOKeR873M7Mbkv8AvfAkxE0uwgwXsGyJ9A0ERcY/X9+LoKDZAZcsoh3r6wTJ8
7Q8phyWLa5MCAwEAAaN7MHkwCQYDVR0TBAIwADAsBglghkgBhvhCAQ0EHxYdT3Bl
blNTTCBHZW5lcmF0ZWQgQ2VydGlmaWNhdGUwHQYDVR0OBBYEFMW2MHn9skXbwbkc
5T5td2ytqiqNMB8GA1UdIwQYMBaAFNh4we9weCJVpbf8cNBp2R50WOjSMA0GCSqG
SIb3DQEBCwUAA4IBAQAYvfijiFciUCzQzZTf437ZFOU8Ny9aFh0rZvCTvuFctlFk
ZzTe5GBatZsacDNo3QTsRordI9jfo9GA2a+7bAZSQUpx8ji/eSL9rozH7ui4CZae
Re7KSU3E71RlxwsFW4frYFq8+xdBN001QqIujymwSRrAhAYSr2JBZdlmaYae6eqD
Anul2awpcn24C0S/AGiNIgTZungY5MNtsLnYv/rHc3UGJa8dXlKkyHELTHMPMT/s
U3lQZbHdAtiQ5+3slQ0qo1HH51BllHX8gq+G18h8JoSmeJRL1XRMu0e0YEDA0O+B
2zlW8Qr1SuRYmpghV4PJj+2iubMOpnay6c0sUsu+
-----END CERTIFICATE-----
