Certificate:
    Data:
        Version: 3 (0x2)
        Serial Number: 268435631 (0x100000af)
    Signature Algorithm: sha256WithRSAEncryption
        Issuer: CN=SRK3_sha256_4096_65537_v3_ca
        Validity
            Not Before: Mar  7 15:17:46 2018 GMT
            Not After : Mar  4 15:17:46 2028 GMT
        Subject: CN=CSF3_1_sha256_4096_65537_v3_usr
        Subject Public Key Info:
            Public Key Algorithm: rsaEncryption
                Public-Key: (4096 bit)
                Modulus:
                    00:9d:d1:42:9f:2d:bd:f4:e4:dd:69:25:13:5f:fb:
                    4a:40:ad:9d:e8:20:7d:62:27:77:65:d0:b2:53:67:
                    35:e6:ab:07:b1:3f:ba:07:f1:3c:25:41:9a:52:0a:
                    70:fd:84:ee:c3:cb:7c:cb:e6:f5:60:82:00:47:10:
                    63:ec:e5:91:c9:b3:1f:68:c6:21:bd:ee:16:ac:ba:
                    19:bc:12:85:ae:0a:b2:d0:98:fd:86:ad:05:d4:38:
                    b9:2d:3b:d7:f0:76:00:78:82:88:89:b8:20:93:5a:
                    e2:2a:18:18:dd:08:8b:46:1c:5c:ee:ee:59:15:fe:
                    5f:34:bb:84:27:0a:10:3a:af:46:67:a3:9a:71:3e:
                    27:99:e4:1f:d0:c7:d5:e0:4d:ac:54:f3:ef:6a:ce:
                    15:06:f0:90:c0:94:77:3d:a7:ff:8f:19:6a:e1:6f:
                    96:1a:a0:58:53:0d:7e:19:cb:e3:de:1c:4f:b1:ee:
                    29:70:5a:8e:10:2a:85:a2:d7:9b:71:8f:6d:0e:a1:
                    c6:88:32:04:ac:53:58:fe:6e:99:52:c5:03:b0:80:
                    28:28:82:3c:8e:4d:3e:06:da:a7:98:b4:68:c2:59:
                    43:60:73:4f:7f:44:a2:30:cd:a8:37:8f:65:f5:5c:
                    44:f7:20:ca:8c:39:3f:4b:82:f3:cb:6f:49:08:78:
                    7c:99:48:27:55:77:64:8e:9c:a2:c7:3e:55:00:25:
                    9f:f3:32:50:0e:3f:3a:a7:5d:8b:ab:02:b7:cb:b9:
                    02:a5:35:20:02:06:5b:7b:0c:67:d7:d9:e0:3f:1e:
                    38:42:cf:96:ec:2d:62:bb:2c:38:75:d1:86:df:aa:
                    50:b4:65:86:d3:13:5f:04:8a:dc:d3:f9:61:17:71:
                    27:d6:53:85:d7:bd:a0:47:b1:cf:ce:5a:f6:eb:d8:
                    67:cf:dc:cf:9a:69:a3:1b:a8:ab:20:58:51:54:88:
                    54:11:a7:ee:a0:7a:29:1b:cd:4b:9a:0f:19:30:d5:
                    f4:a5:18:2b:1f:b1:7e:3e:6e:8b:60:08:2f:01:30:
                    24:26:0e:3a:23:0e:18:7f:43:30:45:d2:b0:56:05:
                    d1:54:9d:3a:11:5a:f1:36:41:c8:96:dc:77:4a:fa:
                    e5:f7:20:cb:4c:ed:2d:60:66:ae:16:88:0a:f6:35:
                    1b:56:a2:6d:85:2e:a7:6f:20:a1:58:08:88:25:1b:
                    6b:6d:3b:7b:34:c6:db:fd:2f:6b:3e:d4:45:26:68:
                    58:7a:ef:a3:d4:85:dc:f6:86:ef:5a:d6:cc:54:ae:
                    d6:e6:47:65:06:cd:ba:23:2f:d7:87:96:e4:f6:9a:
                    7c:87:66:b5:32:63:d0:a6:e1:f4:d7:5b:6d:30:80:
                    a1:01:53
                Exponent: 65537 (0x10001)
        X509v3 extensions:
            X509v3 Basic Constraints: 
                CA:FALSE
            Netscape Comment: 
                OpenSSL Generated Certificate
            X509v3 Subject Key Identifier: 
                BA:FC:86:11:7E:CE:C6:DC:DD:8B:DA:0A:93:6E:08:CF:10:C1:59:84
            X509v3 Authority Key Identifier: 
                keyid:B9:68:16:4F:86:6E:BD:C2:FB:3A:3A:4C:8D:F2:0D:2F:1B:64:C6:C6

    Signature Algorithm: sha256WithRSAEncryption
         69:3e:1c:11:54:d0:8b:e8:19:f1:df:b7:6b:13:f3:75:16:27:
         2c:d8:73:0c:4c:fc:1f:c6:2b:09:3a:4e:56:48:41:ee:75:7b:
         08:85:83:bf:2e:b1:b0:0b:da:19:42:aa:3e:39:75:b1:c8:dd:
         6d:f0:0d:43:9c:a1:2b:42:86:1e:14:29:e9:a7:5d:d4:36:3a:
         fb:5c:0c:f8:21:1e:5a:a7:0f:3d:3e:2a:17:2b:e1:44:19:65:
         a4:05:fd:be:43:57:ee:57:00:98:5a:90:08:9f:72:6c:92:a4:
         3e:57:47:28:8c:45:38:a7:d0:92:4e:24:38:2e:61:4e:11:4a:
         17:8f:02:98:fa:f6:3f:92:8f:6a:80:c9:67:96:ed:81:a1:10:
         24:ef:45:c9:5a:e0:9e:f4:40:86:dd:f3:fe:31:33:18:82:96:
         d8:cf:f7:cb:12:00:4e:f6:57:30:07:3e:06:65:30:90:df:e0:
         67:a1:c4:b9:4a:e4:e8:ca:82:0b:77:d8:7a:5a:ad:b9:a4:5f:
         9f:d3:9e:1b:ae:ac:7a:b0:3a:ec:ad:68:4b:85:51:4c:98:ee:
         ed:fd:cd:90:07:df:40:e2:8b:71:84:7d:1e:2f:01:c2:10:ab:
         c0:6f:0e:cb:b0:44:92:67:a3:63:d3:33:53:8e:5c:9f:bd:76:
         4d:d6:2a:90:1f:20:d0:e4:a2:e7:a2:9c:64:fb:c3:d5:09:f5:
         30:59:ae:9d:df:cf:20:66:50:4d:a1:ea:c5:ea:df:8e:23:21:
         47:b2:22:d6:8b:06:b5:33:d5:ba:11:73:a5:97:9f:3f:22:7e:
         7c:a3:25:63:9c:b0:5c:3e:47:e3:8d:d6:23:d5:70:75:8a:a1:
         df:08:fb:cc:cd:54:2a:4d:da:50:ba:f3:4b:04:c7:7a:a6:49:
         3a:5d:d9:0c:6a:33:57:b5:14:bc:ae:e5:85:c2:49:68:c2:b1:
         23:0d:8c:67:59:35:ac:33:db:97:69:8f:09:cb:a0:6f:9d:3d:
         cb:cf:f3:5c:57:80:e1:4f:da:da:22:85:bb:bf:ad:0f:14:e7:
         dd:75:21:36:80:34:e7:aa:2c:0f:af:d8:0d:76:f3:56:9a:98:
         72:8d:64:90:99:56:cc:04:05:70:1c:aa:c2:6e:94:f0:4a:3e:
         ba:e5:1c:10:f6:f2:26:58:d5:12:ae:01:76:e4:2e:c1:68:0d:
         81:b8:19:b6:77:d0:f6:ff:cd:ad:0d:55:24:c8:dd:d9:38:eb:
         03:30:8c:89:2c:00:9e:25:ab:1c:ea:7a:d0:27:fa:73:d3:dd:
         e9:ed:5b:a2:3a:45:70:8a:5f:6e:8a:0b:ef:a4:bf:98:f6:ec:
         05:3c:49:af:58:49:73:ce
-----BEGIN CERTIFICATE-----
MIIFSjCCAzKgAwIBAgIEEAAArzANBgkqhkiG9w0BAQsFADAnMSUwIwYDVQQDDBxT
UkszX3NoYTI1Nl80MDk2XzY1NTM3X3YzX2NhMB4XDTE4MDMwNzE1MTc0NloXDTI4
MDMwNDE1MTc0NlowKjEoMCYGA1UEAwwfQ1NGM18xX3NoYTI1Nl80MDk2XzY1NTM3
X3YzX3VzcjCCAiIwDQYJKoZIhvcNAQEBBQADggIPADCCAgoCggIBAJ3RQp8tvfTk
3WklE1/7SkCtneggfWInd2XQslNnNearB7E/ugfxPCVBmlIKcP2E7sPLfMvm9WCC
AEcQY+zlkcmzH2jGIb3uFqy6GbwSha4KstCY/YatBdQ4uS071/B2AHiCiIm4IJNa
4ioYGN0Ii0YcXO7uWRX+XzS7hCcKEDqvRmejmnE+J5nkH9DH1eBNrFTz72rOFQbw
kMCUdz2n/48ZauFvlhqgWFMNfhnL494cT7HuKXBajhAqhaLXm3GPbQ6hxogyBKxT
WP5umVLFA7CAKCiCPI5NPgbap5i0aMJZQ2BzT39EojDNqDePZfVcRPcgyow5P0uC
88tvSQh4fJlIJ1V3ZI6cosc+VQAln/MyUA4/Oqddi6sCt8u5AqU1IAIGW3sMZ9fZ
4D8eOELPluwtYrssOHXRht+qULRlhtMTXwSK3NP5YRdxJ9ZThde9oEexz85a9uvY
Z8/cz5ppoxuoqyBYUVSIVBGn7qB6KRvNS5oPGTDV9KUYKx+xfj5ui2AILwEwJCYO
OiMOGH9DMEXSsFYF0VSdOhFa8TZByJbcd0r65fcgy0ztLWBmrhaICvY1G1aibYUu
p28goVgIiCUba207ezTG2/0vaz7URSZoWHrvo9SF3PaG71rWzFSu1uZHZQbNuiMv
14eW5PaafIdmtTJj0Kbh9NdbbTCAoQFTAgMBAAGjezB5MAkGA1UdEwQCMAAwLAYJ
YIZIAYb4QgENBB8WHU9wZW5TU0wgR2VuZXJhdGVkIENlcnRpZmljYXRlMB0GA1Ud
DgQWBBS6/IYRfs7G3N2L2gqTbgjPEMFZhDAfBgNVHSMEGDAWgBS5aBZPhm69wvs6
OkyN8g0vG2TGxjANBgkqhkiG9w0BAQsFAAOCAgEAaT4cEVTQi+gZ8d+3axPzdRYn
LNhzDEz8H8YrCTpOVkhB7nV7CIWDvy6xsAvaGUKqPjl1scjdbfANQ5yhK0KGHhQp
6add1DY6+1wM+CEeWqcPPT4qFyvhRBllpAX9vkNX7lcAmFqQCJ9ybJKkPldHKIxF
OKfQkk4kOC5hThFKF48CmPr2P5KPaoDJZ5btgaEQJO9FyVrgnvRAht3z/jEzGIKW
2M/3yxIATvZXMAc+BmUwkN/gZ6HEuUrk6MqCC3fYelqtuaRfn9OeG66serA67K1o
S4VRTJju7f3NkAffQOKLcYR9Hi8BwhCrwG8Oy7BEkmejY9MzU45cn712TdYqkB8g
0OSi56KcZPvD1Qn1MFmund/PIGZQTaHqxerfjiMhR7Ii1osGtTPVuhFzpZefPyJ+
fKMlY5ywXD5H443WI9VwdYqh3wj7zM1UKk3aULrzSwTHeqZJOl3ZDGozV7UUvK7l
hcJJaMKxIw2MZ1k1rDPbl2mPCcugb509y8/zXFeA4U/a2iKFu7+tDxTn3XUhNoA0
56osD6/YDXbzVpqYco1kkJlWzAQFcByqwm6U8Eo+uuUcEPbyJljVEq4BduQuwWgN
gbgZtnfQ9v/NrQ1VJMjd2TjrAzCMiSwAniWrHOp60Cf6c9Pd6e1bojpFcIpfbooL
76S/mPbsBTxJr1hJc84=
-----END CERTIFICATE-----
