Certificate:
    Data:
        Version: 3 (0x2)
        Serial Number: 268435602 (0x10000092)
    Signature Algorithm: sha256WithRSAEncryption
        Issuer: CN=SRK1_sha256_1024_65537_v3_ca
        Validity
            Not Before: Mar  7 15:17:38 2018 GMT
            Not After : Mar  4 15:17:38 2028 GMT
        Subject: CN=IMG1_1_sha256_1024_65537_v3_usr
        Subject Public Key Info:
            Public Key Algorithm: rsaEncryption
                Public-Key: (1024 bit)
                Modulus:
                    00:c4:22:45:ca:17:1c:dc:e3:2a:2d:64:e0:f5:bb:
                    2a:ae:85:f1:14:26:2b:7a:88:d8:15:8e:1f:4d:10:
                    19:9f:6a:da:92:d5:69:84:8a:a5:71:e0:95:5e:83:
                    71:f2:ba:f1:a9:dc:ed:09:86:9d:37:45:f2:81:21:
                    db:b0:e7:e5:45:f9:7e:3b:13:35:8c:fb:85:f2:14:
                    64:e5:f7:89:61:2f:62:17:28:3e:35:73:33:f7:dd:
                    ad:36:5a:c6:7c:9c:be:fb:55:1c:ec:36:a7:8f:fc:
                    7d:b5:2e:2a:86:6c:8f:83:f9:03:be:79:70:24:4c:
                    1f:0b:9f:b6:c6:91:04:11:cf
                Exponent: 65537 (0x10001)
        X509v3 extensions:
            X509v3 Basic Constraints: 
                CA:FALSE
            Netscape Comment: 
                OpenSSL Generated Certificate
            X509v3 Subject Key Identifier: 
                04:02:2E:07:DC:0C:FF:0B:1C:E7:31:63:B4:0C:AE:0D:33:3E:8A:4A
            X509v3 Authority Key Identifier: 
                keyid:9A:96:DA:7B:B9:11:27:0D:D4:75:45:51:83:26:C5:90:DD:08:40:43

    Signature Algorithm: sha256WithRSAEncryption
         9c:7a:3e:1a:cb:fb:7e:38:85:b0:04:ae:2d:c9:c0:57:69:76:
         42:ff:0a:36:54:48:be:25:49:56:3e:4a:a3:4a:79:a5:fd:e8:
         4e:c4:03:35:ba:47:95:13:9c:cd:72:79:f2:43:de:76:ba:99:
         a2:03:47:bb:d1:de:d3:a4:1d:b5:84:a7:97:ed:21:f4:36:1b:
         6d:5e:d3:f3:52:69:99:69:ad:a8:38:e0:03:a7:61:f6:bb:23:
         03:46:66:40:f6:96:dc:7f:60:89:58:f7:5a:3f:23:5b:17:0e:
         6f:e8:9d:1d:01:1e:10:19:f8:da:a6:c6:04:83:89:34:f0:ba:
         18:a8
-----BEGIN CERTIFICATE-----
MIICRTCCAa6gAwIBAgIEEAAAkjANBgkqhkiG9w0BAQsFADAnMSUwIwYDVQQDDBxT
UksxX3NoYTI1Nl8xMDI0XzY1NTM3X3YzX2NhMB4XDTE4MDMwNzE1MTczOFoXDTI4
MDMwNDE1MTczOFowKjEoMCYGA1UEAwwfSU1HMV8xX3NoYTI1Nl8xMDI0XzY1NTM3
X3YzX3VzcjCBnzANBgkqhkiG9w0BAQEFAAOBjQAwgYkCgYEAxCJFyhcc3OMqLWTg
9bsqroXxFCYreojYFY4fTRAZn2raktVphIqlceCVXoNx8rrxqdztCYadN0XygSHb
sOflRfl+OxM1jPuF8hRk5feJYS9iFyg+NXMz992tNlrGfJy++1Uc7Danj/x9tS4q
hmyPg/kDvnlwJEwfC5+2xpEEEc8CAwEAAaN7MHkwCQYDVR0TBAIwADAsBglghkgB
hvhCAQ0EHxYdT3BlblNTTCBHZW5lcmF0ZWQgQ2VydGlmaWNhdGUwHQYDVR0OBBYE
FAQCLgfcDP8LHOcxY7QMrg0zPopKMB8GA1UdIwQYMBaAFJqW2nu5EScN1HVFUYMm
xZDdCEBDMA0GCSqGSIb3DQEBCwUAA4GBAJx6PhrL+344hbAEri3JwFdpdkL/CjZU
SL4lSVY+SqNKeaX96E7EAzW6R5UTnM1yefJD3na6maIDR7vR3tOkHbWEp5ftIfQ2
G21e0/NSaZlprag44AOnYfa7IwNGZkD2ltx/YIlY91o/I1sXDm/onR0BHhAZ+Nqm
xgSDiTTwuhio
-----END CERTIFICATE-----
