Certificate:
    Data:
        Version: 3 (0x2)
        Serial Number: 268435625 (0x100000a9)
    Signature Algorithm: sha256WithRSAEncryption
        Issuer: CN=SRK1_sha256_4096_65537_v3_ca
        Validity
            Not Before: Mar  7 15:17:43 2018 GMT
            Not After : Mar  4 15:17:43 2028 GMT
        Subject: CN=CSF1_1_sha256_4096_65537_v3_usr
        Subject Public Key Info:
            Public Key Algorithm: rsaEncryption
                Public-Key: (4096 bit)
                Modulus:
                    00:b3:22:bc:ac:c9:7c:e7:28:75:02:8a:54:96:16:
                    50:e8:c4:86:20:f9:59:d4:cf:f5:b1:3a:37:d7:9b:
                    d3:83:dc:a8:43:fa:54:19:dd:fc:f3:db:e2:24:ac:
                    ec:b0:ae:2f:4b:92:5c:a3:ef:49:c6:0f:97:02:da:
                    8e:5d:f0:40:b9:dd:ca:3c:ce:8d:7a:88:21:bc:ae:
                    68:85:cf:f8:98:2b:30:d8:31:75:16:bb:52:c2:a8:
                    b3:8b:6a:ea:45:20:88:08:e7:40:49:67:c9:be:9a:
                    76:9e:0b:5e:ac:14:0a:c4:66:49:d9:f7:1a:aa:ca:
                    2a:38:71:a8:22:2c:fd:5b:f0:01:bb:a8:57:0e:31:
                    36:da:c2:58:eb:82:e7:26:ee:29:ab:d3:51:65:26:
                    66:94:6a:e3:5f:88:04:8a:68:6e:d7:fe:46:59:fd:
                    dd:a3:ba:83:d9:68:59:3a:ed:bd:7b:2b:e8:f4:14:
                    d5:76:60:85:d6:5e:69:64:ce:18:09:30:72:21:7e:
                    0c:12:5d:8a:d7:ad:43:60:e7:5b:ff:ce:5c:d2:d0:
                    a8:07:b1:e0:4e:4b:f8:db:b4:fc:b6:8f:5c:67:c6:
                    f1:28:dc:f5:59:d6:a0:47:bf:45:41:dd:de:6e:5a:
                    3b:a6:19:47:4e:5e:e8:a0:e4:26:6d:00:1f:8a:75:
                    bc:e1:e1:d9:2a:f8:5c:46:db:d9:ff:e0:05:3d:79:
                    ba:a3:e5:10:ad:c0:33:d4:20:18:b1:02:7c:6c:a7:
                    bb:7d:07:9d:9f:b6:d9:f8:d7:d2:33:4b:a2:8b:53:
                    ca:59:a3:4b:84:64:6b:46:d4:f6:f4:41:68:50:cb:
                    50:72:1b:69:89:51:93:de:5f:a8:ed:b1:da:5d:fd:
                    3d:91:64:3a:80:b6:cf:76:77:2e:3a:26:60:da:11:
                    bf:ff:78:41:9e:c8:8a:e1:0f:0c:3e:1a:50:4a:71:
                    3d:dd:bb:43:27:a0:06:72:d0:c7:b9:b3:67:1c:97:
                    60:6b:6d:99:b8:95:9e:15:94:5b:7f:90:79:91:51:
                    86:8a:27:da:a7:09:b5:ef:d7:70:bd:0d:e1:ad:ea:
                    4b:13:2e:87:9b:71:22:6c:f5:87:1f:91:9b:57:4c:
                    56:d5:73:64:23:83:f0:be:f9:6f:75:24:fe:2a:e6:
                    b8:a0:8c:ca:09:8d:5e:f2:c6:fb:b7:6c:91:30:de:
                    da:1a:bf:05:4f:03:2e:95:3f:1a:71:01:3a:a1:16:
                    81:04:08:ef:77:1a:41:6a:5a:22:26:6a:91:0b:a6:
                    9c:e6:ec:37:9d:81:80:77:b3:ba:c4:d9:02:8f:c7:
                    3a:a2:f2:c5:89:d9:02:7e:43:35:6f:68:e8:ab:47:
                    f5:3f:a1
                Exponent: 65537 (0x10001)
        X509v3 extensions:
            X509v3 Basic Constraints: 
                CA:FALSE
            Netscape Comment: 
                OpenSSL Generated Certificate
            X509v3 Subject Key Identifier: 
                20:17:74:73:A9:AA:9D:69:06:89:C9:F6:5B:DB:4A:79:09:5C:E0:FA
            X509v3 Authority Key Identifier: 
                keyid:32:51:1B:AB:57:5C:66:DD:63:A6:A1:8F:58:1A:E1:0F:A8:7D:00:A3

    Signature Algorithm: sha256WithRSAEncryption
         4f:76:0b:95:7e:10:8c:85:b6:70:de:47:07:ac:e1:44:05:d1:
         5d:6f:c5:12:a9:09:13:03:0e:dd:57:07:f6:69:2b:54:d8:0a:
         84:a2:f5:f8:41:fa:4b:02:05:ee:39:59:a6:e5:55:e0:ae:b1:
         41:b1:32:af:8d:af:e9:9b:56:54:cf:0b:da:db:0e:55:91:8f:
         d9:24:c3:d7:37:a0:db:f6:56:a1:a0:78:c7:87:60:a0:25:fb:
         2a:6f:e0:ee:7f:a9:ae:bd:99:80:e4:32:c2:98:3b:04:f5:7a:
         1f:b3:dd:05:5a:d1:59:20:a0:88:12:b3:44:fe:55:86:e6:d2:
         06:9a:9b:1e:b7:64:8c:ba:14:67:c3:84:80:dd:ef:06:a4:6b:
         9e:25:51:c8:72:a0:07:6e:f0:1f:06:ff:ab:fc:7e:47:b8:1f:
         b1:9f:f4:d3:22:09:19:95:29:f6:35:65:22:b6:d1:d7:42:42:
         cf:d2:b8:ce:b5:19:bf:4c:f7:05:d7:3c:05:fc:67:99:9a:d3:
         09:ef:2d:74:03:c7:3b:88:ef:b0:b4:5e:31:3e:18:7a:31:bf:
         99:5c:10:69:3a:ee:b6:cb:14:06:02:6a:8f:42:17:67:b2:3f:
         44:ca:e0:f8:24:73:58:71:0d:f0:bf:3d:55:b6:04:14:7e:7c:
         8b:95:3c:11:5e:94:9c:ff:27:ff:39:9f:95:19:f9:db:66:4a:
         19:b1:d8:60:e5:a1:18:29:fa:f3:5e:1a:8b:38:8e:a6:53:ac:
         4b:dd:d0:d7:ba:5e:98:67:28:74:d7:8f:a7:d4:76:aa:c2:35:
         c6:4e:36:7b:9f:10:87:fe:eb:48:9a:d9:f4:b4:13:1e:0a:6c:
         9d:5f:34:68:cd:a9:42:d0:e8:5d:43:72:e2:cb:a0:05:b9:83:
         b4:f1:1f:0f:a2:fd:54:13:cc:37:63:ae:26:da:44:72:68:56:
         22:dc:3d:91:42:d2:d2:63:89:a3:78:30:11:fc:1d:b0:5a:8d:
         38:cd:ba:5e:b0:b2:7b:e2:f2:fd:9e:d9:ad:ba:2b:30:59:e8:
         63:e5:96:8b:8d:73:c0:29:96:19:85:ea:fb:6a:d4:1e:79:14:
         96:d4:01:6d:74:1d:4a:7a:5e:7a:d0:a4:1a:87:c7:fe:bb:c0:
         8d:6e:33:d3:37:58:6b:fa:4c:52:b3:3e:10:49:5a:4e:0d:13:
         5e:8a:14:31:42:e6:3a:9d:b1:e5:ba:15:ee:91:5e:b6:9f:9c:
         9a:68:f4:fd:04:12:f7:01:4b:c8:41:d9:e1:a1:ac:84:58:cd:
         dc:41:69:c4:e7:b8:d5:1a:db:3c:cb:78:95:84:77:89:54:2f:
         e9:bb:9c:d0:b5:18:42:8d
-----BEGIN CERTIFICATE-----
MIIFSjCCAzKgAwIBAgIEEAAAqTANBgkqhkiG9w0BAQsFADAnMSUwIwYDVQQDDBxT
UksxX3NoYTI1Nl80MDk2XzY1NTM3X3YzX2NhMB4XDTE4MDMwNzE1MTc0M1oXDTI4
MDMwNDE1MTc0M1owKjEoMCYGA1UEAwwfQ1NGMV8xX3NoYTI1Nl80MDk2XzY1NTM3
X3YzX3VzcjCCAiIwDQYJKoZIhvcNAQEBBQADggIPADCCAgoCggIBALMivKzJfOco
dQKKVJYWUOjEhiD5WdTP9bE6N9eb04PcqEP6VBnd/PPb4iSs7LCuL0uSXKPvScYP
lwLajl3wQLndyjzOjXqIIbyuaIXP+JgrMNgxdRa7UsKos4tq6kUgiAjnQElnyb6a
dp4LXqwUCsRmSdn3GqrKKjhxqCIs/VvwAbuoVw4xNtrCWOuC5ybuKavTUWUmZpRq
41+IBIpobtf+Rln93aO6g9loWTrtvXsr6PQU1XZghdZeaWTOGAkwciF+DBJditet
Q2DnW//OXNLQqAex4E5L+Nu0/LaPXGfG8Sjc9VnWoEe/RUHd3m5aO6YZR05e6KDk
Jm0AH4p1vOHh2Sr4XEbb2f/gBT15uqPlEK3AM9QgGLECfGynu30HnZ+22fjX0jNL
ootTylmjS4Rka0bU9vRBaFDLUHIbaYlRk95fqO2x2l39PZFkOoC2z3Z3LjomYNoR
v/94QZ7IiuEPDD4aUEpxPd27QyegBnLQx7mzZxyXYGttmbiVnhWUW3+QeZFRhoon
2qcJte/XcL0N4a3qSxMuh5txImz1hx+Rm1dMVtVzZCOD8L75b3Uk/irmuKCMygmN
XvLG+7dskTDe2hq/BU8DLpU/GnEBOqEWgQQI73caQWpaIiZqkQumnObsN52BgHez
usTZAo/HOqLyxYnZAn5DNW9o6KtH9T+hAgMBAAGjezB5MAkGA1UdEwQCMAAwLAYJ
YIZIAYb4QgENBB8WHU9wZW5TU0wgR2VuZXJhdGVkIENlcnRpZmljYXRlMB0GA1Ud
DgQWBBQgF3RzqaqdaQaJyfZb20p5CVzg+jAfBgNVHSMEGDAWgBQyURurV1xm3WOm
oY9YGuEPqH0AozANBgkqhkiG9w0BAQsFAAOCAgEAT3YLlX4QjIW2cN5HB6zhRAXR
XW/FEqkJEwMO3VcH9mkrVNgKhKL1+EH6SwIF7jlZpuVV4K6xQbEyr42v6ZtWVM8L
2tsOVZGP2STD1zeg2/ZWoaB4x4dgoCX7Km/g7n+prr2ZgOQywpg7BPV6H7PdBVrR
WSCgiBKzRP5VhubSBpqbHrdkjLoUZ8OEgN3vBqRrniVRyHKgB27wHwb/q/x+R7gf
sZ/00yIJGZUp9jVlIrbR10JCz9K4zrUZv0z3Bdc8BfxnmZrTCe8tdAPHO4jvsLRe
MT4YejG/mVwQaTrutssUBgJqj0IXZ7I/RMrg+CRzWHEN8L89VbYEFH58i5U8EV6U
nP8n/zmflRn522ZKGbHYYOWhGCn6814aiziOplOsS93Q17pemGcodNePp9R2qsI1
xk42e58Qh/7rSJrZ9LQTHgpsnV80aM2pQtDoXUNy4sugBbmDtPEfD6L9VBPMN2Ou
JtpEcmhWItw9kULS0mOJo3gwEfwdsFqNOM26XrCye+Ly/Z7ZrborMFnoY+WWi41z
wCmWGYXq+2rUHnkUltQBbXQdSnpeetCkGofH/rvAjW4z0zdYa/pMUrM+EElaTg0T
XooUMULmOp2x5boV7pFetp+cmmj0/QQS9wFLyEHZ4aGshFjN3EFpxOe41RrbPMt4
lYR3iVQv6buc0LUYQo0=
-----END CERTIFICATE-----
