Certificate:
    Data:
        Version: 3 (0x2)
        Serial Number: 268435635 (0x100000b3)
    Signature Algorithm: sha256WithRSAEncryption
        Issuer: CN=SRK4_sha256_4096_65537_v3_ca
        Validity
            Not Before: Mar  7 15:17:49 2018 GMT
            Not After : Mar  4 15:17:49 2028 GMT
        Subject: CN=IMG4_1_sha256_4096_65537_v3_usr
        Subject Public Key Info:
            Public Key Algorithm: rsaEncryption
                Public-Key: (4096 bit)
                Modulus:
                    00:98:d8:1f:3e:c0:f4:34:74:79:7d:9c:03:33:c1:
                    29:65:d8:5e:08:d3:4c:8c:2f:0b:4f:e8:89:36:13:
                    98:6d:df:7d:8c:50:9b:74:bb:d9:7b:48:b1:ab:63:
                    97:89:27:f3:c0:97:6c:a3:bb:af:36:89:c5:80:a7:
                    d3:9b:58:28:56:69:5a:33:03:18:07:a4:36:cc:36:
                    34:33:de:08:dc:f3:f3:c5:19:96:d8:ad:c5:22:1f:
                    e8:fd:71:8b:da:80:af:48:4e:fe:93:dc:d2:6d:6b:
                    a4:1a:2c:1f:9a:13:3f:b5:c6:af:54:60:6f:e5:43:
                    8c:5c:8d:38:b3:1c:90:f4:65:fb:18:30:ac:15:bf:
                    4c:f4:98:00:b8:79:9e:3f:51:c5:ab:8f:77:b4:f3:
                    13:c6:12:45:ec:7a:95:0b:13:a6:e8:5d:31:47:3a:
                    00:8d:4e:2e:31:e8:59:fa:fd:70:9d:4e:d5:fd:a2:
                    4f:6c:d1:01:cf:8c:f6:e4:38:78:a9:47:fb:8e:cb:
                    e3:45:96:c5:fe:0d:d4:d4:01:8c:0d:14:e5:04:65:
                    a3:3f:0a:0b:26:d2:74:39:3d:b7:f5:57:2e:58:23:
                    1d:da:c7:98:21:60:4b:25:9f:0f:bd:a0:19:5e:d7:
                    7c:c0:06:b4:45:02:5b:17:e3:a5:44:7a:40:25:53:
                    52:97:de:b9:e3:fe:94:6a:41:b3:ce:18:de:e4:e3:
                    6b:71:79:b9:63:82:55:7b:d0:5e:3b:d3:7e:19:e0:
                    8d:9d:a1:17:9e:b3:ca:d6:81:8e:54:c2:5a:56:66:
                    18:42:07:c0:40:13:b2:da:01:ee:2a:d1:8d:1d:f2:
                    16:6b:bb:c8:28:c0:24:97:a3:fd:c2:09:eb:89:5e:
                    58:44:51:df:ce:a9:b4:29:84:70:29:7d:70:fe:82:
                    4b:0b:44:59:37:40:68:14:e2:de:19:96:21:59:6c:
                    69:67:e3:ab:8c:69:73:e2:31:b1:2a:5d:e5:86:6e:
                    cd:c3:17:68:af:be:49:ec:fb:e1:83:73:8d:7d:8f:
                    8b:7e:07:b3:13:10:43:95:ee:96:a6:86:97:fc:bc:
                    b5:88:ac:72:db:a6:d0:b4:8c:8d:0b:43:12:68:57:
                    a8:56:a7:3b:f1:a6:3b:68:29:3c:39:cd:9e:a9:56:
                    23:5a:d1:28:35:7c:ac:77:c5:6b:b6:3b:9c:46:6a:
                    cc:d1:77:14:77:9e:41:ca:a6:67:18:0d:db:b7:79:
                    59:ab:c9:d9:5a:44:e6:ab:ad:9f:18:38:34:fe:7d:
                    cb:86:a0:61:cd:f9:88:78:23:ee:2c:31:25:c6:6c:
                    bb:d0:c0:b2:76:c7:2a:b4:f1:47:71:41:4d:8f:41:
                    27:ae:53
                Exponent: 65537 (0x10001)
        X509v3 extensions:
            X509v3 Basic Constraints: 
                CA:FALSE
            Netscape Comment: 
                OpenSSL Generated Certificate
            X509v3 Subject Key Identifier: 
                D7:2F:D1:FB:6C:0A:43:AB:39:3B:37:3C:B2:2A:B2:DE:4C:B2:06:9C
            X509v3 Authority Key Identifier: 
                keyid:74:CA:30:A1:C1:1D:F4:D3:A9:03:1F:AF:A7:97:D7:0F:6D:E2:52:F2

    Signature Algorithm: sha256WithRSAEncryption
         5f:e0:a4:49:b9:ab:98:6e:d9:61:0e:f7:7d:15:37:5a:8d:7f:
         1c:f4:db:bc:ed:48:80:92:2b:a4:a3:98:c5:d7:09:65:c8:24:
         3e:f1:fd:24:04:27:9e:3f:ee:3c:e7:7c:32:4e:cd:26:9b:7d:
         f2:cb:3d:ee:54:b0:68:71:27:6a:1b:d3:58:2d:44:a4:43:25:
         e1:25:20:4a:48:5e:c5:88:b2:76:6f:b9:2d:11:8e:68:e5:c1:
         1a:a9:40:fb:63:e4:04:cd:ac:67:b3:24:eb:c7:0d:07:ab:38:
         36:d5:90:2e:d2:e9:81:f0:df:48:0b:88:3a:fa:de:d8:d7:c0:
         79:cc:e8:79:e0:56:f8:fd:5f:a9:dd:d9:c6:c6:10:d1:14:7c:
         db:63:f3:3a:03:3b:97:57:19:3e:e8:83:57:1b:3f:94:aa:6a:
         04:51:df:cd:75:25:88:1a:b6:d7:39:ab:a9:02:6d:5e:2d:52:
         78:af:86:52:56:4e:4a:a9:f8:78:32:cd:10:8c:a8:c7:ed:3e:
         b8:1e:7c:9f:7a:b1:72:5d:ac:24:44:16:62:f9:30:74:9b:57:
         e1:97:96:7d:7c:1b:01:21:ac:b3:c1:14:0c:f9:67:c1:7f:17:
         2a:ee:43:96:e4:4d:f8:42:7b:a2:71:f6:57:3d:eb:0a:4b:ae:
         90:19:7a:74:35:71:58:40:1a:62:c1:77:e6:36:09:89:66:ec:
         6b:89:c6:d9:05:ec:f1:72:74:7a:b2:4d:ac:bc:4f:92:f5:61:
         f9:58:51:2b:66:08:96:90:df:48:23:7d:aa:40:81:68:fb:a7:
         7e:87:34:1a:b9:07:c3:48:fc:de:a0:f6:93:83:e9:96:72:e1:
         4d:ab:4a:28:82:bb:ef:d5:90:4b:95:63:4d:6a:8e:ab:d0:87:
         9d:f0:86:d2:8b:96:15:87:8b:36:93:60:f8:92:f3:b2:82:07:
         a9:7b:d3:74:50:ac:d4:cf:22:08:13:0b:89:d5:ef:2f:98:1b:
         61:50:a1:e9:82:3e:09:46:89:c1:fa:4b:06:ce:70:78:b2:37:
         8e:63:8e:8f:55:b3:fe:1d:ce:40:49:ce:34:e3:a1:64:f2:f0:
         6d:2e:7e:e5:e2:bc:84:ac:4e:05:be:db:dc:85:ca:27:d0:d7:
         7b:af:0f:85:c2:57:48:4a:46:9f:6f:6a:1a:e8:84:5f:75:27:
         0a:63:36:b1:9d:10:fd:0b:dd:12:03:7e:12:da:a3:c0:fe:21:
         a3:bd:0d:a6:a2:b1:87:d8:25:7d:05:89:85:3e:c5:81:d5:87:
         40:03:32:45:3e:8d:90:67:8b:7b:69:d4:86:93:55:56:36:44:
         41:71:90:f3:ba:d3:0e:a6
-----BEGIN CERTIFICATE-----
MIIFSjCCAzKgAwIBAgIEEAAAszANBgkqhkiG9w0BAQsFADAnMSUwIwYDVQQDDBxT
Uks0X3NoYTI1Nl80MDk2XzY1NTM3X3YzX2NhMB4XDTE4MDMwNzE1MTc0OVoXDTI4
MDMwNDE1MTc0OVowKjEoMCYGA1UEAwwfSU1HNF8xX3NoYTI1Nl80MDk2XzY1NTM3
X3YzX3VzcjCCAiIwDQYJKoZIhvcNAQEBBQADggIPADCCAgoCggIBAJjYHz7A9DR0
eX2cAzPBKWXYXgjTTIwvC0/oiTYTmG3ffYxQm3S72XtIsatjl4kn88CXbKO7rzaJ
xYCn05tYKFZpWjMDGAekNsw2NDPeCNzz88UZltitxSIf6P1xi9qAr0hO/pPc0m1r
pBosH5oTP7XGr1Rgb+VDjFyNOLMckPRl+xgwrBW/TPSYALh5nj9RxauPd7TzE8YS
Rex6lQsTpuhdMUc6AI1OLjHoWfr9cJ1O1f2iT2zRAc+M9uQ4eKlH+47L40WWxf4N
1NQBjA0U5QRloz8KCybSdDk9t/VXLlgjHdrHmCFgSyWfD72gGV7XfMAGtEUCWxfj
pUR6QCVTUpfeueP+lGpBs84Y3uTja3F5uWOCVXvQXjvTfhngjZ2hF56zytaBjlTC
WlZmGEIHwEATstoB7irRjR3yFmu7yCjAJJej/cIJ64leWERR386ptCmEcCl9cP6C
SwtEWTdAaBTi3hmWIVlsaWfjq4xpc+IxsSpd5YZuzcMXaK++Sez74YNzjX2Pi34H
sxMQQ5XulqaGl/y8tYisctum0LSMjQtDEmhXqFanO/GmO2gpPDnNnqlWI1rRKDV8
rHfFa7Y7nEZqzNF3FHeeQcqmZxgN27d5WavJ2VpE5qutnxg4NP59y4agYc35iHgj
7iwxJcZsu9DAsnbHKrTxR3FBTY9BJ65TAgMBAAGjezB5MAkGA1UdEwQCMAAwLAYJ
YIZIAYb4QgENBB8WHU9wZW5TU0wgR2VuZXJhdGVkIENlcnRpZmljYXRlMB0GA1Ud
DgQWBBTXL9H7bApDqzk7NzyyKrLeTLIGnDAfBgNVHSMEGDAWgBR0yjChwR3006kD
H6+nl9cPbeJS8jANBgkqhkiG9w0BAQsFAAOCAgEAX+CkSbmrmG7ZYQ73fRU3Wo1/
HPTbvO1IgJIrpKOYxdcJZcgkPvH9JAQnnj/uPOd8Mk7NJpt98ss97lSwaHEnahvT
WC1EpEMl4SUgSkhexYiydm+5LRGOaOXBGqlA+2PkBM2sZ7Mk68cNB6s4NtWQLtLp
gfDfSAuIOvre2NfAeczoeeBW+P1fqd3ZxsYQ0RR822PzOgM7l1cZPuiDVxs/lKpq
BFHfzXUliBq21zmrqQJtXi1SeK+GUlZOSqn4eDLNEIyox+0+uB58n3qxcl2sJEQW
YvkwdJtX4ZeWfXwbASGss8EUDPlnwX8XKu5DluRN+EJ7onH2Vz3rCkuukBl6dDVx
WEAaYsF35jYJiWbsa4nG2QXs8XJ0erJNrLxPkvVh+VhRK2YIlpDfSCN9qkCBaPun
foc0GrkHw0j83qD2k4PplnLhTatKKIK779WQS5VjTWqOq9CHnfCG0ouWFYeLNpNg
+JLzsoIHqXvTdFCs1M8iCBMLidXvL5gbYVCh6YI+CUaJwfpLBs5weLI3jmOOj1Wz
/h3OQEnONOOhZPLwbS5+5eK8hKxOBb7b3IXKJ9DXe68PhcJXSEpGn29qGuiEX3Un
CmM2sZ0Q/QvdEgN+EtqjwP4ho70NpqKxh9glfQWJhT7FgdWHQAMyRT6NkGeLe2nU
hpNVVjZEQXGQ87rTDqY=
-----END CERTIFICATE-----
