Certificate:
    Data:
        Version: 3 (0x2)
        Serial Number: 268435608 (0x10000098)
    Signature Algorithm: sha256WithRSAEncryption
        Issuer: CN=SRK3_sha256_1024_65537_v3_ca
        Validity
            Not Before: Mar  7 15:17:39 2018 GMT
            Not After : Mar  4 15:17:39 2028 GMT
        Subject: CN=IMG3_1_sha256_1024_65537_v3_usr
        Subject Public Key Info:
            Public Key Algorithm: rsaEncryption
                Public-Key: (1024 bit)
                Modulus:
                    00:a0:83:ac:85:18:3f:01:24:fc:a5:4d:21:fe:13:
                    49:96:d6:38:ab:7c:80:28:f1:87:87:8f:c8:95:2d:
                    99:19:8f:05:36:ea:ad:25:52:95:5f:89:b5:c8:6f:
                    f1:9c:ee:5a:93:09:a2:08:e0:ac:8c:fd:1a:37:eb:
                    bc:78:30:03:6e:dd:39:6b:22:c9:87:14:e5:ed:ce:
                    18:ed:70:6f:36:7a:10:12:8b:bf:5d:b2:3c:48:19:
                    4d:30:94:25:e7:ca:21:bf:0e:31:ac:be:6a:29:09:
                    69:c9:bf:d8:03:e8:44:a8:da:ff:f5:4a:eb:fc:7c:
                    8f:26:13:25:4c:89:7a:d9:b1
                Exponent: 65537 (0x10001)
        X509v3 extensions:
            X509v3 Basic Constraints: 
                CA:FALSE
            Netscape Comment: 
                OpenSSL Generated Certificate
            X509v3 Subject Key Identifier: 
                BB:01:D5:E8:8D:AF:32:1A:4F:20:C7:99:DE:33:70:84:A2:46:43:D8
            X509v3 Authority Key Identifier: 
                keyid:07:A7:80:EE:12:0E:9B:6E:F8:5A:EF:20:DF:B9:FC:A8:40:54:47:D7

    Signature Algorithm: sha256WithRSAEncryption
         78:b5:ba:6c:e7:45:78:f4:d7:ec:18:4c:97:5e:8b:ce:b3:d0:
         a5:8e:55:08:7d:ea:c4:07:c3:06:1b:a0:6f:af:1c:75:4b:a8:
         4c:1d:50:0a:c7:49:48:9a:b2:62:f1:67:b8:fd:5d:fb:6f:4f:
         60:b4:9a:68:8e:be:19:65:dc:c8:57:07:6a:db:ba:63:00:94:
         c5:5f:ac:34:b4:b9:c6:71:71:a1:64:fb:bd:69:2a:d1:db:cb:
         54:d9:68:14:72:3c:40:55:d0:10:ac:66:fb:7c:85:23:50:f7:
         fc:b5:a7:b8:e1:ee:13:c8:1d:55:3b:5e:f9:20:4a:f9:2d:c5:
         dc:d5
-----BEGIN CERTIFICATE-----
MIICRTCCAa6gAwIBAgIEEAAAmDANBgkqhkiG9w0BAQsFADAnMSUwIwYDVQQDDBxT
UkszX3NoYTI1Nl8xMDI0XzY1NTM3X3YzX2NhMB4XDTE4MDMwNzE1MTczOVoXDTI4
MDMwNDE1MTczOVowKjEoMCYGA1UEAwwfSU1HM18xX3NoYTI1Nl8xMDI0XzY1NTM3
X3YzX3VzcjCBnzANBgkqhkiG9w0BAQEFAAOBjQAwgYkCgYEAoIOshRg/AST8pU0h
/hNJltY4q3yAKPGHh4/IlS2ZGY8FNuqtJVKVX4m1yG/xnO5akwmiCOCsjP0aN+u8
eDADbt05ayLJhxTl7c4Y7XBvNnoQEou/XbI8SBlNMJQl58ohvw4xrL5qKQlpyb/Y
A+hEqNr/9Urr/HyPJhMlTIl62bECAwEAAaN7MHkwCQYDVR0TBAIwADAsBglghkgB
hvhCAQ0EHxYdT3BlblNTTCBHZW5lcmF0ZWQgQ2VydGlmaWNhdGUwHQYDVR0OBBYE
FLsB1eiNrzIaTyDHmd4zcISiRkPYMB8GA1UdIwQYMBaAFAengO4SDptu+FrvIN+5
/KhAVEfXMA0GCSqGSIb3DQEBCwUAA4GBAHi1umznRXj01+wYTJdei86z0KWOVQh9
6sQHwwYboG+vHHVLqEwdUArHSUiasmLxZ7j9XftvT2C0mmiOvhll3MhXB2rbumMA
lMVfrDS0ucZxcaFk+71pKtHby1TZaBRyPEBV0BCsZvt8hSNQ9/y1p7jh7hPIHVU7
XvkgSvktxdzV
-----END CERTIFICATE-----
