Certificate:
    Data:
        Version: 3 (0x2)
        Serial Number: 268435612 (0x1000009c)
    Signature Algorithm: sha256WithRSAEncryption
        Issuer: CN=CA1_sha256_2048_65537_v3_ca
        Validity
            Not Before: Mar  7 15:17:39 2018 GMT
            Not After : Mar  4 15:17:39 2028 GMT
        Subject: CN=SRK1_sha256_2048_65537_v3_ca
        Subject Public Key Info:
            Public Key Algorithm: rsaEncryption
                Public-Key: (2048 bit)
                Modulus:
                    00:cd:79:a6:99:9f:4f:d9:03:36:06:13:91:76:19:
                    c9:61:22:86:61:05:fc:31:e0:76:5e:10:0c:42:cc:
                    8d:1c:56:0b:f7:2c:45:ac:4a:69:96:b1:b0:f7:c2:
                    67:c8:50:e7:b6:a6:d6:c4:1e:43:91:0f:63:a4:94:
                    32:4e:32:a7:36:60:55:29:ec:57:89:aa:57:55:0f:
                    de:e3:c2:cb:3e:3f:e4:04:53:ef:cd:5a:0d:ab:e9:
                    3d:c6:04:17:82:79:e2:26:e6:80:e5:ca:61:45:c5:
                    24:67:03:5b:4f:5c:1b:f1:db:f0:dc:0c:6a:79:ce:
                    66:eb:25:85:c8:de:ca:9a:62:cb:14:ea:dd:eb:16:
                    ab:35:52:4a:d5:02:52:bf:45:91:38:4f:d1:18:88:
                    c9:7d:94:e5:3b:a5:82:99:f0:08:05:b8:38:27:ec:
                    5f:b5:5a:5f:71:8d:98:1e:4e:a8:61:3c:a5:b9:5b:
                    c2:ee:9e:6f:fb:ea:32:85:85:67:81:37:63:c9:78:
                    c5:21:50:27:84:ad:70:31:31:92:8c:0a:aa:e8:a1:
                    34:6e:76:8b:ae:42:96:48:38:5e:39:c7:f5:4c:40:
                    16:52:34:67:c9:d9:45:c0:ed:da:94:5d:41:75:b5:
                    32:11:61:74:b4:c5:2b:72:95:ec:46:8d:d3:cd:55:
                    4d:35
                Exponent: 65537 (0x10001)
        X509v3 extensions:
            X509v3 Subject Key Identifier: 
                53:DB:B8:37:66:41:1C:D6:A1:A2:D3:7A:BA:0D:27:99:9C:7E:69:07
            X509v3 Authority Key Identifier: 
                keyid:60:30:54:59:4B:86:39:A3:CA:CE:E5:B5:DC:D3:51:32:58:88:47:F3
                DirName:/CN=CA1_sha256_2048_65537_v3_ca
                serial:8D:E8:34:F6:CB:57:0C:B5

            X509v3 Basic Constraints: critical
                CA:TRUE
            X509v3 Key Usage: 
                Certificate Sign
    Signature Algorithm: sha256WithRSAEncryption
         1a:82:1f:9f:b1:15:0e:a9:03:06:82:07:dc:fb:7a:59:4e:19:
         ff:b7:b6:e8:84:32:2d:5a:5b:19:dd:11:bc:82:fe:d4:16:c8:
         67:f2:f5:72:d5:73:ac:2b:21:0a:15:15:fc:62:46:bc:82:f4:
         fa:e3:ee:b5:27:c3:b7:84:9e:d5:4b:b6:55:37:11:35:d1:de:
         a3:fd:bf:b7:47:70:62:7f:95:2a:62:45:2d:4f:29:62:42:3e:
         b3:cc:ee:79:fc:0e:43:0f:76:53:27:04:35:2c:03:07:bc:e9:
         f9:89:ab:18:77:41:5f:45:2f:27:67:f0:8c:9f:a9:78:1a:48:
         60:95:90:26:3f:b9:cd:1b:31:31:a9:2b:8a:ff:16:d4:4e:36:
         36:6f:d9:8b:c4:9e:54:16:63:8e:52:58:75:85:3c:3b:cc:ee:
         be:3d:fa:2b:3e:a9:79:ba:ad:9f:ca:6b:2f:5c:c1:50:e7:36:
         a6:5f:8a:0d:00:13:e0:2b:b1:30:ae:cf:ee:b7:f5:ad:ca:68:
         2f:e1:c3:d5:f9:21:fe:d3:63:b4:8d:98:c9:96:c7:79:98:c1:
         f8:7c:31:84:b8:3e:c7:9a:c5:c8:36:85:9b:fe:18:86:f2:3a:
         c2:7b:34:57:bc:e4:49:9b:4c:46:66:1a:6b:bc:b3:09:9e:0f:
         a6:e9:c6:db
-----BEGIN CERTIFICATE-----
MIIDZDCCAkygAwIBAgIEEAAAnDANBgkqhkiG9w0BAQsFADAmMSQwIgYDVQQDFBtD
QTFfc2hhMjU2XzIwNDhfNjU1MzdfdjNfY2EwHhcNMTgwMzA3MTUxNzM5WhcNMjgw
MzA0MTUxNzM5WjAnMSUwIwYDVQQDDBxTUksxX3NoYTI1Nl8yMDQ4XzY1NTM3X3Yz
X2NhMIIBIjANBgkqhkiG9w0BAQEFAAOCAQ8AMIIBCgKCAQEAzXmmmZ9P2QM2BhOR
dhnJYSKGYQX8MeB2XhAMQsyNHFYL9yxFrEpplrGw98JnyFDntqbWxB5DkQ9jpJQy
TjKnNmBVKexXiapXVQ/e48LLPj/kBFPvzVoNq+k9xgQXgnniJuaA5cphRcUkZwNb
T1wb8dvw3Axqec5m6yWFyN7KmmLLFOrd6xarNVJK1QJSv0WROE/RGIjJfZTlO6WC
mfAIBbg4J+xftVpfcY2YHk6oYTyluVvC7p5v++oyhYVngTdjyXjFIVAnhK1wMTGS
jAqq6KE0bnaLrkKWSDheOcf1TEAWUjRnydlFwO3alF1BdbUyEWF0tMUrcpXsRo3T
zVVNNQIDAQABo4GYMIGVMB0GA1UdDgQWBBRT27g3ZkEc1qGi03q6DSeZnH5pBzBW
BgNVHSMETzBNgBRgMFRZS4Y5o8rO5bXc01EyWIhH86EqpCgwJjEkMCIGA1UEAxQb
Q0ExX3NoYTI1Nl8yMDQ4XzY1NTM3X3YzX2NhggkAjeg09stXDLUwDwYDVR0TAQH/
BAUwAwEB/zALBgNVHQ8EBAMCAgQwDQYJKoZIhvcNAQELBQADggEBABqCH5+xFQ6p
AwaCB9z7ellOGf+3tuiEMi1aWxndEbyC/tQWyGfy9XLVc6wrIQoVFfxiRryC9Prj
7rUnw7eEntVLtlU3ETXR3qP9v7dHcGJ/lSpiRS1PKWJCPrPM7nn8DkMPdlMnBDUs
Awe86fmJqxh3QV9FLydn8IyfqXgaSGCVkCY/uc0bMTGpK4r/FtRONjZv2YvEnlQW
Y45SWHWFPDvM7r49+is+qXm6rZ/Kay9cwVDnNqZfig0AE+ArsTCuz+639a3KaC/h
w9X5If7TY7SNmMmWx3mYwfh8MYS4Pseaxcg2hZv+GIbyOsJ7NFe85EmbTEZmGmu8
swmeD6bpxts=
-----END CERTIFICATE-----
