Certificate:
    Data:
        Version: 3 (0x2)
        Serial Number: 268435633 (0x100000b1)
    Signature Algorithm: sha256WithRSAEncryption
        Issuer: CN=CA1_sha256_4096_65537_v3_ca
        Validity
            Not Before: Mar  7 15:17:48 2018 GMT
            Not After : Mar  4 15:17:48 2028 GMT
        Subject: CN=SRK4_sha256_4096_65537_v3_ca
        Subject Public Key Info:
            Public Key Algorithm: rsaEncryption
                Public-Key: (4096 bit)
                Modulus:
                    00:c8:a6:7e:3a:8f:69:91:85:42:5f:e5:ea:ab:54:
                    1d:a0:59:30:18:19:fc:ee:58:b0:f2:ab:6a:f8:b1:
                    af:51:4f:a5:45:2e:aa:4c:94:14:2a:63:71:c5:aa:
                    c2:5f:bc:7f:62:d7:c5:69:ae:7c:70:e8:8f:4a:58:
                    d4:80:a7:fa:ab:93:e4:1f:4c:3b:41:25:03:c7:fb:
                    1c:4d:df:04:4f:fc:90:1e:96:5e:e0:aa:e0:05:42:
                    8e:ac:3a:71:90:2b:24:5e:c1:68:19:d1:08:1d:14:
                    27:11:05:08:4a:1d:74:36:19:4e:96:3a:85:b7:55:
                    a7:8d:5e:43:66:f1:7f:ca:55:0d:9f:52:04:3b:cc:
                    ca:88:d7:fe:9f:bd:52:19:dc:6b:50:d7:12:6c:32:
                    f7:2c:e9:36:94:7e:2a:56:9d:dc:bf:67:0f:50:76:
                    f2:1b:d1:ac:c7:1b:0a:29:be:4e:6f:43:39:fc:09:
                    82:60:74:94:2c:52:c4:43:f1:c1:ee:2b:b1:78:da:
                    19:f2:0b:60:88:6f:3d:1c:00:8c:46:26:26:01:02:
                    2b:14:d6:91:47:ee:80:4b:69:10:9e:41:16:2e:20:
                    e3:8b:28:57:17:c5:58:13:3b:66:f4:49:6f:1a:d9:
                    4d:15:2b:f5:b2:70:ba:b2:4e:a7:cf:35:47:b7:5f:
                    12:a0:f4:0e:4d:d9:40:2a:53:d4:1d:d5:e4:71:a4:
                    d2:21:73:b4:34:fd:b2:0f:78:38:00:71:ef:8e:bc:
                    12:d4:cc:6e:18:da:ac:2a:39:8e:f6:3e:27:27:58:
                    fd:b7:4d:a6:83:6c:ee:2c:27:d4:70:99:60:0c:d3:
                    11:5f:87:cb:17:93:eb:b6:56:28:e6:9d:49:e1:32:
                    f3:e3:99:5a:a4:cb:16:71:a0:5b:36:bc:86:5f:c2:
                    cf:d6:72:06:bb:b7:e1:e1:f6:2b:35:25:9b:60:dc:
                    58:ab:a0:52:dc:ec:94:98:3d:43:bb:71:61:a9:03:
                    22:df:6c:25:cc:a9:4f:76:17:71:af:a4:f2:ef:39:
                    9a:1d:42:23:91:ef:bb:ee:21:2e:34:40:a0:74:4b:
                    af:e7:83:09:89:5c:75:24:80:cc:13:ab:76:b4:f3:
                    e0:4e:b2:9b:71:3f:20:67:64:61:c3:9e:49:5a:21:
                    58:78:c9:ba:f5:0e:53:0e:3c:65:4d:89:36:b7:0e:
                    6c:b4:08:ec:a2:bb:76:b2:af:d1:4d:f5:3f:b3:84:
                    ee:79:cb:40:8d:3a:c4:6a:2a:2f:f8:2f:d8:bd:ac:
                    38:0c:85:3e:7d:be:e9:2f:07:46:06:77:bf:26:4e:
                    be:68:a3:5e:d5:46:cc:e4:5c:6e:6c:78:31:9d:a8:
                    d0:75:7d
                Exponent: 65537 (0x10001)
        X509v3 extensions:
            X509v3 Subject Key Identifier: 
                74:CA:30:A1:C1:1D:F4:D3:A9:03:1F:AF:A7:97:D7:0F:6D:E2:52:F2
            X509v3 Authority Key Identifier: 
                keyid:15:FC:12:D5:34:E0:8B:3B:EE:68:7C:33:4F:B1:64:71:1A:1A:34:BB
                DirName:/CN=CA1_sha256_4096_65537_v3_ca
                serial:DA:6F:CF:A4:45:78:E7:82

            X509v3 Basic Constraints: critical
                CA:TRUE
            X509v3 Key Usage: 
                Certificate Sign
    Signature Algorithm: sha256WithRSAEncryption
         34:9c:e8:20:ba:51:0b:11:06:bb:a6:78:83:86:d3:d5:86:c9:
         2b:d4:f8:5f:12:f7:1a:f3:32:f8:2a:66:8b:3d:67:33:ab:24:
         d1:2b:ab:76:b1:fd:75:ff:61:36:44:2c:d0:ce:2b:89:ef:bc:
         47:ec:b5:bd:e4:bb:83:8f:79:f3:54:b3:35:f9:ff:8d:07:c4:
         ed:17:1c:75:b2:86:ae:d8:8d:4a:11:4d:23:c9:d2:7e:b4:e2:
         e9:85:95:f7:b9:3a:25:66:c9:92:0e:d0:dd:3f:cd:db:d9:e6:
         17:3c:a7:1f:a3:04:03:5a:d8:75:08:c0:63:25:72:8b:c5:5d:
         b0:61:6f:b7:c7:a9:bb:cb:f2:5d:f9:40:53:96:44:bf:4c:c1:
         d6:f3:0e:c0:ae:fd:d5:0f:74:07:d8:2a:c8:bd:6f:61:ac:5d:
         5f:a1:54:2b:0d:25:2a:c2:19:a0:af:d2:3e:ae:34:09:c2:57:
         e6:9f:b7:05:6c:60:8d:30:ac:54:34:95:4b:52:67:f7:49:da:
         ef:f1:5e:1c:9c:1b:9a:ea:6d:f6:7f:63:1c:d4:53:35:b9:c3:
         0a:44:77:6b:fc:a9:51:98:c8:8e:2d:7b:5e:08:49:91:4c:c1:
         69:89:80:48:8a:de:74:ba:b4:91:df:c5:9e:92:ef:35:fe:d6:
         95:26:61:77:ca:19:f3:74:ed:99:3a:77:cf:20:4a:02:ed:c9:
         a6:6d:35:6e:74:d6:fd:61:de:bc:30:6f:7f:cf:80:e9:ba:09:
         3d:b0:4b:65:46:ff:db:94:5e:74:2a:b5:f1:f9:68:4e:ef:c7:
         b8:d7:84:3e:20:a2:9b:c1:7e:c3:6b:31:33:dd:0a:af:17:50:
         69:47:0a:9f:df:86:b2:a8:1b:66:03:0e:db:fa:10:53:12:68:
         f3:a4:f3:9b:70:3f:be:0a:b5:d1:6d:fe:b3:cb:11:5d:b7:72:
         32:2e:34:66:45:a7:c8:1e:24:1c:20:c6:16:b3:db:64:3f:96:
         4b:0b:2b:b8:8e:5a:62:17:9d:9f:3f:51:96:f7:45:0b:ce:61:
         e8:f8:02:0f:22:2d:c2:43:72:a9:c2:f6:32:29:3a:eb:cb:63:
         cb:c2:9e:ed:15:a6:46:13:95:c1:74:a6:a2:52:3f:40:7c:67:
         d0:c1:e1:3e:df:03:72:65:91:fb:59:f3:d1:4f:42:af:12:78:
         93:d3:60:bb:f4:d9:71:fe:2b:80:6f:2e:b8:dd:3f:df:b6:e5:
         4d:46:68:fe:cb:6c:61:d1:f9:c3:ff:78:e6:0b:17:a0:5d:bb:
         4e:9e:98:df:d1:ac:96:bd:9f:78:d0:fc:b6:9e:c4:e5:ee:f0:
         85:5c:10:da:04:5c:93:3b
-----BEGIN CERTIFICATE-----
MIIFZDCCA0ygAwIBAgIEEAAAsTANBgkqhkiG9w0BAQsFADAmMSQwIgYDVQQDFBtD
QTFfc2hhMjU2XzQwOTZfNjU1MzdfdjNfY2EwHhcNMTgwMzA3MTUxNzQ4WhcNMjgw
MzA0MTUxNzQ4WjAnMSUwIwYDVQQDDBxTUks0X3NoYTI1Nl80MDk2XzY1NTM3X3Yz
X2NhMIICIjANBgkqhkiG9w0BAQEFAAOCAg8AMIICCgKCAgEAyKZ+Oo9pkYVCX+Xq
q1QdoFkwGBn87liw8qtq+LGvUU+lRS6qTJQUKmNxxarCX7x/YtfFaa58cOiPSljU
gKf6q5PkH0w7QSUDx/scTd8ET/yQHpZe4KrgBUKOrDpxkCskXsFoGdEIHRQnEQUI
Sh10NhlOljqFt1WnjV5DZvF/ylUNn1IEO8zKiNf+n71SGdxrUNcSbDL3LOk2lH4q
Vp3cv2cPUHbyG9GsxxsKKb5Ob0M5/AmCYHSULFLEQ/HB7iuxeNoZ8gtgiG89HACM
RiYmAQIrFNaRR+6AS2kQnkEWLiDjiyhXF8VYEztm9ElvGtlNFSv1snC6sk6nzzVH
t18SoPQOTdlAKlPUHdXkcaTSIXO0NP2yD3g4AHHvjrwS1MxuGNqsKjmO9j4nJ1j9
t02mg2zuLCfUcJlgDNMRX4fLF5PrtlYo5p1J4TLz45lapMsWcaBbNryGX8LP1nIG
u7fh4fYrNSWbYNxYq6BS3OyUmD1Du3FhqQMi32wlzKlPdhdxr6Ty7zmaHUIjke+7
7iEuNECgdEuv54MJiVx1JIDME6t2tPPgTrKbcT8gZ2Rhw55JWiFYeMm69Q5TDjxl
TYk2tw5stAjsort2sq/RTfU/s4TuectAjTrEaiov+C/Yvaw4DIU+fb7pLwdGBne/
Jk6+aKNe1UbM5FxubHgxnajQdX0CAwEAAaOBmDCBlTAdBgNVHQ4EFgQUdMowocEd
9NOpAx+vp5fXD23iUvIwVgYDVR0jBE8wTYAUFfwS1TTgizvuaHwzT7FkcRoaNLuh
KqQoMCYxJDAiBgNVBAMUG0NBMV9zaGEyNTZfNDA5Nl82NTUzN192M19jYYIJANpv
z6RFeOeCMA8GA1UdEwEB/wQFMAMBAf8wCwYDVR0PBAQDAgIEMA0GCSqGSIb3DQEB
CwUAA4ICAQA0nOggulELEQa7pniDhtPVhskr1PhfEvca8zL4KmaLPWczqyTRK6t2
sf11/2E2RCzQziuJ77xH7LW95LuDj3nzVLM1+f+NB8TtFxx1soau2I1KEU0jydJ+
tOLphZX3uTolZsmSDtDdP83b2eYXPKcfowQDWth1CMBjJXKLxV2wYW+3x6m7y/Jd
+UBTlkS/TMHW8w7Arv3VD3QH2CrIvW9hrF1foVQrDSUqwhmgr9I+rjQJwlfmn7cF
bGCNMKxUNJVLUmf3Sdrv8V4cnBua6m32f2Mc1FM1ucMKRHdr/KlRmMiOLXteCEmR
TMFpiYBIit50urSR38Weku81/taVJmF3yhnzdO2ZOnfPIEoC7cmmbTVudNb9Yd68
MG9/z4Dpugk9sEtlRv/blF50KrXx+WhO78e414Q+IKKbwX7DazEz3QqvF1BpRwqf
34ayqBtmAw7b+hBTEmjzpPObcD++CrXRbf6zyxFdt3IyLjRmRafIHiQcIMYWs9tk
P5ZLCyu4jlpiF52fP1GW90ULzmHo+AIPIi3CQ3KpwvYyKTrry2PLwp7tFaZGE5XB
dKaiUj9AfGfQweE+3wNyZZH7WfPRT0KvEniT02C79Nlx/iuAby643T/ftuVNRmj+
y2xh0fnD/3jmCxegXbtOnpjf0ayWvZ940Py2nsTl7vCFXBDaBFyTOw==
-----END CERTIFICATE-----
