Certificate:
    Data:
        Version: 3 (0x2)
        Serial Number: 268435618 (0x100000a2)
    Signature Algorithm: sha256WithRSAEncryption
        Issuer: CN=CA1_sha256_2048_65537_v3_ca
        Validity
            Not Before: Mar  7 15:17:40 2018 GMT
            Not After : Mar  4 15:17:40 2028 GMT
        Subject: CN=SRK3_sha256_2048_65537_v3_ca
        Subject Public Key Info:
            Public Key Algorithm: rsaEncryption
                Public-Key: (2048 bit)
                Modulus:
                    00:d0:7e:e7:2b:da:f1:e0:40:70:96:1b:22:7e:15:
                    67:62:28:28:7b:cb:4f:52:85:99:58:cf:22:b2:98:
                    44:51:11:11:52:ad:af:00:6a:ea:4f:b4:37:fa:7d:
                    39:75:76:02:22:af:ef:b6:72:c8:46:56:b1:81:5a:
                    73:0d:b0:b6:f8:07:6a:81:06:ea:3e:4c:5b:5e:49:
                    ac:91:bc:99:b4:6a:84:40:24:cf:b5:9c:6b:b1:b3:
                    ee:bd:54:2b:5b:b7:fa:81:c5:ac:20:92:7f:84:08:
                    00:b4:fc:cc:08:83:42:3f:2a:b1:3c:42:ac:f9:97:
                    b1:9a:48:98:5a:67:93:f6:77:ab:9e:5e:5d:aa:08:
                    ab:0b:f6:4e:9c:73:7a:88:ef:71:33:59:26:3e:5d:
                    9a:05:18:5a:89:15:3f:65:91:f9:b1:03:86:7b:51:
                    5f:7a:a3:ee:67:6c:c6:50:68:ae:53:89:3a:24:0c:
                    83:7c:cb:8f:a9:4f:1b:40:7b:2f:5c:ce:00:43:7a:
                    8e:8a:1c:83:b5:b0:0d:02:ea:f8:53:72:8a:99:b6:
                    51:de:88:ea:d3:0d:db:d6:dc:24:a8:ce:d5:b4:ac:
                    70:a6:ce:5c:78:fb:1a:7c:bd:c9:db:ca:62:b1:cc:
                    b2:24:2c:f0:7a:cb:35:ce:84:f2:5b:aa:f8:8c:74:
                    19:bb
                Exponent: 65537 (0x10001)
        X509v3 extensions:
            X509v3 Subject Key Identifier: 
                EF:94:CF:46:05:20:E2:A2:49:0A:D8:C2:0D:23:40:00:C7:A9:50:54
            X509v3 Authority Key Identifier: 
                keyid:60:30:54:59:4B:86:39:A3:CA:CE:E5:B5:DC:D3:51:32:58:88:47:F3
                DirName:/CN=CA1_sha256_2048_65537_v3_ca
                serial:8D:E8:34:F6:CB:57:0C:B5

            X509v3 Basic Constraints: critical
                CA:TRUE
            X509v3 Key Usage: 
                Certificate Sign
    Signature Algorithm: sha256WithRSAEncryption
         2b:f2:ea:a6:6b:4a:6b:89:45:36:cb:e2:02:38:36:43:2c:96:
         96:9e:02:92:72:54:0d:d4:03:1f:27:0b:e4:74:40:18:69:fb:
         4b:29:a1:64:b2:76:87:2a:14:ae:8c:14:30:cf:63:58:a9:a9:
         19:bb:88:7a:05:a8:7c:86:a5:ef:8e:aa:25:91:7b:47:e9:35:
         3b:a7:58:eb:6f:31:81:06:02:9a:1d:09:6e:4f:ef:a3:ae:0a:
         08:45:79:2c:7e:af:10:a5:fe:80:e3:bf:71:c0:5c:2a:29:d8:
         eb:3f:1e:59:ca:3d:c3:bd:4e:f4:26:94:63:58:f8:46:17:6e:
         57:57:18:1a:43:68:67:ea:f0:fe:c5:63:c4:03:08:3e:f8:3c:
         1e:1a:26:6a:24:7d:39:65:83:68:e6:12:3f:a3:c2:04:f8:57:
         2f:33:15:a7:08:aa:e6:35:08:c9:7e:1c:2e:14:44:a3:d0:d9:
         fb:58:f6:df:0e:05:95:52:be:bb:02:e5:89:cc:a0:97:3f:21:
         09:74:1c:90:76:c0:e5:68:06:7b:45:31:3a:4b:a9:35:52:cf:
         51:d2:61:00:1d:fa:59:97:2a:fb:39:8f:cc:a7:9f:76:d0:08:
         83:be:2d:a6:9f:21:f6:c2:08:08:78:7f:c2:0f:74:1f:a7:8e:
         3f:ea:99:92
-----BEGIN CERTIFICATE-----
MIIDZDCCAkygAwIBAgIEEAAAojANBgkqhkiG9w0BAQsFADAmMSQwIgYDVQQDFBtD
QTFfc2hhMjU2XzIwNDhfNjU1MzdfdjNfY2EwHhcNMTgwMzA3MTUxNzQwWhcNMjgw
MzA0MTUxNzQwWjAnMSUwIwYDVQQDDBxTUkszX3NoYTI1Nl8yMDQ4XzY1NTM3X3Yz
X2NhMIIBIjANBgkqhkiG9w0BAQEFAAOCAQ8AMIIBCgKCAQEA0H7nK9rx4EBwlhsi
fhVnYigoe8tPUoWZWM8isphEURERUq2vAGrqT7Q3+n05dXYCIq/vtnLIRlaxgVpz
DbC2+AdqgQbqPkxbXkmskbyZtGqEQCTPtZxrsbPuvVQrW7f6gcWsIJJ/hAgAtPzM
CINCPyqxPEKs+ZexmkiYWmeT9nernl5dqgirC/ZOnHN6iO9xM1kmPl2aBRhaiRU/
ZZH5sQOGe1FfeqPuZ2zGUGiuU4k6JAyDfMuPqU8bQHsvXM4AQ3qOihyDtbANAur4
U3KKmbZR3ojq0w3b1twkqM7VtKxwps5cePsafL3J28piscyyJCzwess1zoTyW6r4
jHQZuwIDAQABo4GYMIGVMB0GA1UdDgQWBBTvlM9GBSDiokkK2MINI0AAx6lQVDBW
BgNVHSMETzBNgBRgMFRZS4Y5o8rO5bXc01EyWIhH86EqpCgwJjEkMCIGA1UEAxQb
Q0ExX3NoYTI1Nl8yMDQ4XzY1NTM3X3YzX2NhggkAjeg09stXDLUwDwYDVR0TAQH/
BAUwAwEB/zALBgNVHQ8EBAMCAgQwDQYJKoZIhvcNAQELBQADggEBACvy6qZrSmuJ
RTbL4gI4NkMslpaeApJyVA3UAx8nC+R0QBhp+0spoWSydocqFK6MFDDPY1ipqRm7
iHoFqHyGpe+OqiWRe0fpNTunWOtvMYEGApodCW5P76OuCghFeSx+rxCl/oDjv3HA
XCop2Os/HlnKPcO9TvQmlGNY+EYXbldXGBpDaGfq8P7FY8QDCD74PB4aJmokfTll
g2jmEj+jwgT4Vy8zFacIquY1CMl+HC4URKPQ2ftY9t8OBZVSvrsC5YnMoJc/IQl0
HJB2wOVoBntFMTpLqTVSz1HSYQAd+lmXKvs5j8ynn3bQCIO+LaafIfbCCAh4f8IP
dB+njj/qmZI=
-----END CERTIFICATE-----
