Certificate:
    Data:
        Version: 3 (0x2)
        Serial Number: 268435622 (0x100000a6)
    Signature Algorithm: sha256WithRSAEncryption
        Issuer: CN=SRK4_sha256_2048_65537_v3_ca
        Validity
            Not Before: Mar  7 15:17:41 2018 GMT
            Not After : Mar  4 15:17:41 2028 GMT
        Subject: CN=CSF4_1_sha256_2048_65537_v3_usr
        Subject Public Key Info:
            Public Key Algorithm: rsaEncryption
                Public-Key: (2048 bit)
                Modulus:
                    00:c1:09:42:a2:d5:5b:33:5c:ba:01:b5:4b:18:2d:
                    3e:9f:be:ab:0d:c6:1a:cd:d0:5f:6f:3a:2c:ca:f1:
                    c9:29:b4:60:9b:b6:94:11:6b:80:9b:0a:68:40:96:
                    dc:18:e9:2c:19:84:9b:dd:cf:2b:15:01:bf:c9:02:
                    64:1b:93:73:13:cd:e3:bf:bf:2e:0e:f9:71:a1:d7:
                    2f:5c:c1:a0:b9:78:11:e8:94:77:4b:38:fd:89:ac:
                    0d:ab:eb:ca:50:3c:df:4c:82:2a:36:da:4a:a6:63:
                    c7:8b:de:7f:b1:44:3b:87:6b:44:f4:87:5b:94:7a:
                    31:77:d4:ae:53:71:cd:41:30:28:22:16:e7:bc:7d:
                    b7:4d:5e:ec:78:b6:c2:97:5e:32:aa:56:59:8e:ca:
                    c4:a1:a9:39:28:b4:c9:10:10:9a:d9:ac:ae:06:58:
                    bf:9c:19:03:e9:de:9b:80:b2:46:7b:5d:fd:bd:1e:
                    e0:ef:a0:0d:2f:96:c7:43:6b:e7:7a:65:f5:df:47:
                    a1:58:07:d5:f0:58:1f:b7:8d:82:34:08:0f:45:e3:
                    0e:59:59:38:e9:f1:31:1a:25:90:13:d9:ad:da:9d:
                    a5:6e:aa:cb:a8:b6:2c:6a:15:a5:8d:0b:4f:d4:90:
                    c7:e5:8d:e2:38:be:0c:14:b1:1f:88:b2:57:64:37:
                    31:65
                Exponent: 65537 (0x10001)
        X509v3 extensions:
            X509v3 Basic Constraints: 
                CA:FALSE
            Netscape Comment: 
                OpenSSL Generated Certificate
            X509v3 Subject Key Identifier: 
                76:07:5C:11:A7:38:9E:F4:B2:E3:74:A5:AB:AD:CF:92:58:2B:91:1A
            X509v3 Authority Key Identifier: 
                keyid:D8:78:C1:EF:70:78:22:55:A5:B7:FC:70:D0:69:D9:1E:74:58:E8:D2

    Signature Algorithm: sha256WithRSAEncryption
         98:a0:38:eb:21:f3:c1:5c:97:be:8a:0f:0b:5f:b7:e9:03:4d:
         75:99:8c:f6:19:53:1e:56:cf:c2:3e:25:44:ef:b3:c0:72:56:
         02:04:3d:8c:93:59:cb:40:87:a1:1c:76:14:05:15:bc:d1:47:
         3a:20:af:83:60:1f:5f:13:98:1c:dd:4c:d1:e7:9f:ec:31:11:
         98:96:98:1a:4b:d2:af:b8:4a:ae:36:96:22:ad:d0:1e:16:47:
         a6:92:49:b6:ae:1a:3e:ba:57:5c:6d:b9:5c:36:f4:bb:8c:c5:
         cb:0b:7b:8b:87:88:bc:e7:d9:8c:4b:e9:b6:20:aa:41:a2:7b:
         91:20:8c:ec:76:8a:e3:e3:74:f3:13:79:9c:58:2c:0a:4b:5d:
         31:26:3a:8f:cc:11:fe:7e:ca:1c:c7:32:a8:89:84:94:49:46:
         1e:7b:75:80:22:d7:f0:48:02:0c:11:88:ba:d9:c5:59:01:58:
         09:c3:bc:60:d5:a6:37:d7:4a:7a:4b:c0:af:03:ae:e8:8c:99:
         ae:38:cd:02:68:3e:69:8f:7a:4d:02:34:b5:56:d0:67:32:52:
         94:84:ac:e9:a0:21:98:2d:d4:10:91:05:63:c9:98:1d:e8:d2:
         30:ee:a3:ac:a0:90:96:79:c1:f4:e9:20:da:e0:cb:3b:68:6e:
         53:3d:25:a9
-----BEGIN CERTIFICATE-----
MIIDSjCCAjKgAwIBAgIEEAAApjANBgkqhkiG9w0BAQsFADAnMSUwIwYDVQQDDBxT
Uks0X3NoYTI1Nl8yMDQ4XzY1NTM3X3YzX2NhMB4XDTE4MDMwNzE1MTc0MVoXDTI4
MDMwNDE1MTc0MVowKjEoMCYGA1UEAwwfQ1NGNF8xX3NoYTI1Nl8yMDQ4XzY1NTM3
X3YzX3VzcjCCASIwDQYJKoZIhvcNAQEBBQADggEPADCCAQoCggEBAMEJQqLVWzNc
ugG1SxgtPp++qw3GGs3QX286LMrxySm0YJu2lBFrgJsKaECW3BjpLBmEm93PKxUB
v8kCZBuTcxPN47+/Lg75caHXL1zBoLl4EeiUd0s4/YmsDavrylA830yCKjbaSqZj
x4vef7FEO4drRPSHW5R6MXfUrlNxzUEwKCIW57x9t01e7Hi2wpdeMqpWWY7KxKGp
OSi0yRAQmtmsrgZYv5wZA+nem4CyRntd/b0e4O+gDS+Wx0Nr53pl9d9HoVgH1fBY
H7eNgjQID0XjDllZOOnxMRolkBPZrdqdpW6qy6i2LGoVpY0LT9SQx+WN4ji+DBSx
H4iyV2Q3MWUCAwEAAaN7MHkwCQYDVR0TBAIwADAsBglghkgBhvhCAQ0EHxYdT3Bl
blNTTCBHZW5lcmF0ZWQgQ2VydGlmaWNhdGUwHQYDVR0OBBYEFHYHXBGnOJ70suN0
pautz5JYK5EaMB8GA1UdIwQYMBaAFNh4we9weCJVpbf8cNBp2R50WOjSMA0GCSqG
SIb3DQEBCwUAA4IBAQCYoDjrIfPBXJe+ig8LX7fpA011mYz2GVMeVs/CPiVE77PA
clYCBD2Mk1nLQIehHHYUBRW80Uc6IK+DYB9fE5gc3UzR55/sMRGYlpgaS9KvuEqu
NpYirdAeFkemkkm2rho+uldcbblcNvS7jMXLC3uLh4i859mMS+m2IKpBonuRIIzs
dorj43TzE3mcWCwKS10xJjqPzBH+fsocxzKoiYSUSUYee3WAItfwSAIMEYi62cVZ
AVgJw7xg1aY310p6S8CvA67ojJmuOM0CaD5pj3pNAjS1VtBnMlKUhKzpoCGYLdQQ
kQVjyZgd6NIw7qOsoJCWecH06SDa4Ms7aG5TPSWp
-----END CERTIFICATE-----
