Certificate:
    Data:
        Version: 3 (0x2)
        Serial Number: 268435632 (0x100000b0)
    Signature Algorithm: sha256WithRSAEncryption
        Issuer: CN=SRK3_sha256_4096_65537_v3_ca
        Validity
            Not Before: Mar  7 15:17:47 2018 GMT
            Not After : Mar  4 15:17:47 2028 GMT
        Subject: CN=IMG3_1_sha256_4096_65537_v3_usr
        Subject Public Key Info:
            Public Key Algorithm: rsaEncryption
                Public-Key: (4096 bit)
                Modulus:
                    00:ab:35:7e:23:3c:5d:84:e4:75:fe:5a:03:76:7e:
                    cc:32:20:f1:92:71:48:75:b5:ab:3e:ed:38:d2:ba:
                    37:a2:0c:74:5e:18:17:e0:56:e5:73:b7:28:9d:e3:
                    8f:9d:4f:47:e4:aa:df:73:4c:05:8c:30:d4:57:26:
                    e9:80:d8:8c:cc:4a:53:e6:fe:55:a8:8f:b4:bc:05:
                    89:8a:53:2a:fa:5c:d0:5d:ce:3b:50:0f:45:d2:2a:
                    4c:88:14:e6:9e:09:2b:54:84:b3:4e:8b:f8:ea:2e:
                    4d:ce:27:32:36:89:f1:3b:fb:ac:cc:1e:d9:f0:5c:
                    93:74:f8:6a:eb:8f:f9:45:b7:5e:b5:32:4e:64:23:
                    29:f1:28:b7:0d:d8:9f:ed:b7:17:aa:85:9e:74:36:
                    87:dc:02:18:25:9d:82:32:b1:59:9b:f7:94:70:78:
                    d6:f8:17:00:9f:8a:05:97:31:86:de:39:48:2c:f5:
                    a2:8b:47:9e:e1:ae:78:c5:62:9f:57:58:0a:86:db:
                    f0:6e:10:d1:86:a6:ba:53:be:25:e6:41:44:71:5b:
                    a7:2f:2f:74:4d:ae:e4:6e:0a:db:b3:0a:8a:0f:fd:
                    96:9d:1f:99:81:9e:ae:a3:5f:3e:48:b2:ea:97:41:
                    56:46:b1:56:43:6f:c1:a9:bd:cc:57:b0:43:ef:c1:
                    32:d7:41:e8:fa:a9:60:22:b5:a4:2f:ac:ec:5a:80:
                    db:31:c0:22:37:42:7d:10:1c:aa:b2:3a:3a:28:02:
                    31:81:d3:af:cf:d0:cd:00:8b:5d:bc:17:7b:5f:2e:
                    29:ba:51:c8:6d:db:7d:ce:07:23:7b:d0:9d:eb:a0:
                    e8:1a:40:9d:07:2e:3b:3e:95:19:ef:ef:a9:16:8c:
                    a5:6a:67:99:c6:72:42:65:3d:89:29:14:88:6e:2c:
                    72:52:04:3d:8c:c2:a5:a3:d8:05:c9:a9:08:b2:a6:
                    77:ab:73:ea:16:90:32:d1:22:51:ec:58:f3:4f:e8:
                    9b:83:ad:19:58:5d:dd:d2:3f:d3:70:c7:a7:64:a7:
                    c0:3d:c9:6a:50:9b:18:ca:65:46:fa:df:27:20:e0:
                    7c:30:89:79:02:85:a3:10:ce:a3:f7:11:8e:51:4c:
                    45:74:fc:84:f1:08:43:3e:37:1e:fb:61:1b:db:60:
                    df:b5:f4:0f:cd:4d:1b:75:b2:f0:78:22:28:60:a5:
                    09:d3:cb:4a:66:86:15:c1:c9:c9:37:b8:fc:37:8e:
                    8f:67:29:97:e1:ec:9e:64:18:0b:18:0b:df:5e:78:
                    75:28:1e:4e:f6:48:45:fc:0e:66:6c:5f:93:64:94:
                    0c:86:b7:66:8d:11:06:60:ad:61:f7:3e:74:de:ee:
                    08:89:a3
                Exponent: 65537 (0x10001)
        X509v3 extensions:
            X509v3 Basic Constraints: 
                CA:FALSE
            Netscape Comment: 
                OpenSSL Generated Certificate
            X509v3 Subject Key Identifier: 
                9B:C0:F1:0D:D7:4C:94:1F:91:77:5B:52:B8:7B:D3:54:06:90:0D:7B
            X509v3 Authority Key Identifier: 
                keyid:B9:68:16:4F:86:6E:BD:C2:FB:3A:3A:4C:8D:F2:0D:2F:1B:64:C6:C6

    Signature Algorithm: sha256WithRSAEncryption
         b2:39:93:e9:3f:00:9a:7d:1b:18:fc:79:29:d4:8b:5e:db:b5:
         43:f6:08:cc:aa:c8:c8:da:2a:b1:94:ab:82:9a:0f:57:4f:c9:
         20:ad:59:9c:31:81:34:ce:77:b4:d5:a3:16:04:f6:35:7c:0f:
         4a:e7:6c:cf:b7:18:94:6b:02:1a:5f:32:ea:1d:cb:23:c4:83:
         27:13:84:10:30:77:9b:c2:80:5d:0b:bb:01:ba:5e:25:72:b4:
         ca:ee:fc:11:3e:96:c6:64:8d:48:49:2a:66:8a:65:22:e0:e1:
         26:07:b3:cc:cd:eb:c2:2a:09:13:b2:c9:1f:b3:7f:d4:98:2f:
         a1:38:6d:78:ee:03:7f:e4:96:ee:0e:1b:6b:7e:e7:14:40:27:
         57:50:2f:ca:d3:1e:b2:ae:37:17:c9:67:2c:a5:c6:e9:45:a5:
         b8:3f:87:45:43:31:c1:f4:aa:ae:04:5e:95:6a:79:8c:15:dc:
         93:d7:40:26:5d:70:01:62:60:ad:3e:46:32:2f:38:b6:46:d5:
         89:14:13:04:de:43:e8:b1:1a:37:86:5c:4d:d0:05:8c:e3:e2:
         28:6a:f2:7e:6d:21:84:ed:23:72:c6:33:68:7d:0d:05:e4:2b:
         91:bf:63:df:db:ba:da:91:c4:3d:63:62:a2:e6:bb:43:97:9d:
         e0:30:d6:5a:f2:87:76:fc:8c:ca:66:82:cf:fe:a3:e5:ea:8e:
         19:d1:f5:b1:bd:18:ea:94:f0:65:81:d3:a4:0b:37:26:ca:1d:
         01:c7:e5:4f:ae:12:e2:35:9f:21:a9:9c:c0:cc:45:b7:cf:d2:
         2b:ef:5d:7d:7b:80:fc:5e:48:72:b2:0f:41:5d:23:fe:4f:96:
         93:3e:d3:81:26:94:6d:da:a3:26:50:4c:92:9a:30:37:7b:c2:
         0f:f1:18:a0:67:79:a8:aa:e0:66:15:5b:64:2e:96:12:5d:1a:
         8b:68:3b:70:09:2c:d6:90:3f:1e:41:bc:5e:d2:36:f1:63:3e:
         cf:67:0a:dc:e7:7d:97:09:9c:c3:c2:e0:e2:15:50:ae:0d:eb:
         3b:1f:85:65:27:56:e4:eb:66:b2:3f:2b:ca:e8:e0:8f:28:c8:
         c0:b8:d1:08:19:32:0d:3d:e8:5d:88:b1:fb:b1:c5:fb:c8:8d:
         2f:e0:5f:12:0e:9d:65:91:f6:6b:84:ce:93:6b:b3:6c:f1:c1:
         5b:78:e5:22:c1:a3:23:84:2f:52:ba:7a:4a:a8:43:89:ca:95:
         6d:52:ff:f2:8f:48:91:5b:30:87:83:53:b0:1e:4b:f5:02:90:
         82:54:64:c1:6b:62:5e:d1:4c:d6:e8:72:30:98:8d:94:8e:f8:
         33:89:5b:3d:99:f9:9a:19
-----BEGIN CERTIFICATE-----
MIIFSjCCAzKgAwIBAgIEEAAAsDANBgkqhkiG9w0BAQsFADAnMSUwIwYDVQQDDBxT
UkszX3NoYTI1Nl80MDk2XzY1NTM3X3YzX2NhMB4XDTE4MDMwNzE1MTc0N1oXDTI4
MDMwNDE1MTc0N1owKjEoMCYGA1UEAwwfSU1HM18xX3NoYTI1Nl80MDk2XzY1NTM3
X3YzX3VzcjCCAiIwDQYJKoZIhvcNAQEBBQADggIPADCCAgoCggIBAKs1fiM8XYTk
df5aA3Z+zDIg8ZJxSHW1qz7tONK6N6IMdF4YF+BW5XO3KJ3jj51PR+Sq33NMBYww
1Fcm6YDYjMxKU+b+VaiPtLwFiYpTKvpc0F3OO1APRdIqTIgU5p4JK1SEs06L+Oou
Tc4nMjaJ8Tv7rMwe2fBck3T4auuP+UW3XrUyTmQjKfEotw3Yn+23F6qFnnQ2h9wC
GCWdgjKxWZv3lHB41vgXAJ+KBZcxht45SCz1ootHnuGueMVin1dYCobb8G4Q0Yam
ulO+JeZBRHFbpy8vdE2u5G4K27MKig/9lp0fmYGerqNfPkiy6pdBVkaxVkNvwam9
zFewQ+/BMtdB6PqpYCK1pC+s7FqA2zHAIjdCfRAcqrI6OigCMYHTr8/QzQCLXbwX
e18uKbpRyG3bfc4HI3vQneug6BpAnQcuOz6VGe/vqRaMpWpnmcZyQmU9iSkUiG4s
clIEPYzCpaPYBcmpCLKmd6tz6haQMtEiUexY80/om4OtGVhd3dI/03DHp2SnwD3J
alCbGMplRvrfJyDgfDCJeQKFoxDOo/cRjlFMRXT8hPEIQz43HvthG9tg37X0D81N
G3Wy8HgiKGClCdPLSmaGFcHJyTe4/DeOj2cpl+HsnmQYCxgL3154dSgeTvZIRfwO
Zmxfk2SUDIa3Zo0RBmCtYfc+dN7uCImjAgMBAAGjezB5MAkGA1UdEwQCMAAwLAYJ
YIZIAYb4QgENBB8WHU9wZW5TU0wgR2VuZXJhdGVkIENlcnRpZmljYXRlMB0GA1Ud
DgQWBBSbwPEN10yUH5F3W1K4e9NUBpANezAfBgNVHSMEGDAWgBS5aBZPhm69wvs6
OkyN8g0vG2TGxjANBgkqhkiG9w0BAQsFAAOCAgEAsjmT6T8Amn0bGPx5KdSLXtu1
Q/YIzKrIyNoqsZSrgpoPV0/JIK1ZnDGBNM53tNWjFgT2NXwPSudsz7cYlGsCGl8y
6h3LI8SDJxOEEDB3m8KAXQu7AbpeJXK0yu78ET6WxmSNSEkqZoplIuDhJgezzM3r
wioJE7LJH7N/1JgvoThteO4Df+SW7g4ba37nFEAnV1AvytMesq43F8lnLKXG6UWl
uD+HRUMxwfSqrgRelWp5jBXck9dAJl1wAWJgrT5GMi84tkbViRQTBN5D6LEaN4Zc
TdAFjOPiKGryfm0hhO0jcsYzaH0NBeQrkb9j39u62pHEPWNioua7Q5ed4DDWWvKH
dvyMymaCz/6j5eqOGdH1sb0Y6pTwZYHTpAs3JsodAcflT64S4jWfIamcwMxFt8/S
K+9dfXuA/F5IcrIPQV0j/k+Wkz7TgSaUbdqjJlBMkpowN3vCD/EYoGd5qKrgZhVb
ZC6WEl0ai2g7cAks1pA/HkG8XtI28WM+z2cK3Od9lwmcw8Lg4hVQrg3rOx+FZSdW
5Otmsj8ryujgjyjIwLjRCBkyDT3oXYix+7HF+8iNL+BfEg6dZZH2a4TOk2uzbPHB
W3jlIsGjI4QvUrp6SqhDicqVbVL/8o9IkVswh4NTsB5L9QKQglRkwWtiXtFM1uhy
MJiNlI74M4lbPZn5mhk=
-----END CERTIFICATE-----
