Certificate:
    Data:
        Version: 3 (0x2)
        Serial Number: 268435610 (0x1000009a)
    Signature Algorithm: sha256WithRSAEncryption
        Issuer: CN=SRK4_sha256_1024_65537_v3_ca
        Validity
            Not Before: Mar  7 15:17:39 2018 GMT
            Not After : Mar  4 15:17:39 2028 GMT
        Subject: CN=CSF4_1_sha256_1024_65537_v3_usr
        Subject Public Key Info:
            Public Key Algorithm: rsaEncryption
                Public-Key: (1024 bit)
                Modulus:
                    00:e9:51:8e:4c:ae:a7:62:1d:93:c3:15:06:ab:02:
                    55:ee:8b:80:5a:1c:f7:57:57:2a:47:67:e9:ad:e7:
                    27:c7:f9:d9:e9:77:26:9f:11:c1:f1:28:18:ab:88:
                    a9:5a:42:bf:ce:fa:8d:65:69:bc:c2:88:1f:0f:5f:
                    a1:86:ea:5a:41:7d:ed:d9:6e:cd:98:8f:c8:18:5c:
                    9a:72:96:87:ca:83:65:e4:37:24:b4:d8:cc:87:b4:
                    ff:ae:40:c5:0f:a0:cf:94:53:97:30:ad:c1:96:18:
                    33:ac:be:ae:fe:a7:ea:8f:cd:00:71:8c:1d:57:2f:
                    bc:f7:f8:96:1c:55:19:49:25
                Exponent: 65537 (0x10001)
        X509v3 extensions:
            X509v3 Basic Constraints: 
                CA:FALSE
            Netscape Comment: 
                OpenSSL Generated Certificate
            X509v3 Subject Key Identifier: 
                4C:C7:99:B1:E9:4A:7C:2B:61:69:CF:89:73:E8:88:85:DB:47:19:25
            X509v3 Authority Key Identifier: 
                keyid:27:78:77:BB:9F:57:CC:C0:39:ED:68:BF:AA:9A:BD:7D:48:BA:9F:E8

    Signature Algorithm: sha256WithRSAEncryption
         43:37:21:fb:16:c7:aa:c5:2b:f4:fc:e3:42:56:c5:17:ea:01:
         e5:ff:b4:81:a7:6f:d2:32:b3:62:a8:96:50:42:7b:c5:97:7e:
         dd:ce:35:11:31:6b:85:26:e6:66:4d:1f:52:4c:de:da:75:20:
         34:5a:57:d3:43:0c:a7:de:4c:01:03:a7:7b:4d:09:bd:18:99:
         05:f7:41:71:72:73:9b:31:a1:c8:00:b2:f5:95:b0:75:9d:46:
         ab:e0:0a:18:a7:54:61:54:69:27:e7:3e:61:dd:a8:91:2d:61:
         b3:35:f4:50:a2:3e:a8:03:86:07:d6:63:af:cc:9b:32:77:4f:
         ae:82
-----BEGIN CERTIFICATE-----
MIICRTCCAa6gAwIBAgIEEAAAmjANBgkqhkiG9w0BAQsFADAnMSUwIwYDVQQDDBxT
Uks0X3NoYTI1Nl8xMDI0XzY1NTM3X3YzX2NhMB4XDTE4MDMwNzE1MTczOVoXDTI4
MDMwNDE1MTczOVowKjEoMCYGA1UEAwwfQ1NGNF8xX3NoYTI1Nl8xMDI0XzY1NTM3
X3YzX3VzcjCBnzANBgkqhkiG9w0BAQEFAAOBjQAwgYkCgYEA6VGOTK6nYh2TwxUG
qwJV7ouAWhz3V1cqR2fprecnx/nZ6XcmnxHB8SgYq4ipWkK/zvqNZWm8wogfD1+h
hupaQX3t2W7NmI/IGFyacpaHyoNl5DcktNjMh7T/rkDFD6DPlFOXMK3BlhgzrL6u
/qfqj80AcYwdVy+89/iWHFUZSSUCAwEAAaN7MHkwCQYDVR0TBAIwADAsBglghkgB
hvhCAQ0EHxYdT3BlblNTTCBHZW5lcmF0ZWQgQ2VydGlmaWNhdGUwHQYDVR0OBBYE
FEzHmbHpSnwrYWnPiXPoiIXbRxklMB8GA1UdIwQYMBaAFCd4d7ufV8zAOe1ov6qa
vX1Iup/oMA0GCSqGSIb3DQEBCwUAA4GBAEM3IfsWx6rFK/T840JWxRfqAeX/tIGn
b9Iys2KollBCe8WXft3ONRExa4Um5mZNH1JM3tp1IDRaV9NDDKfeTAEDp3tNCb0Y
mQX3QXFyc5sxocgAsvWVsHWdRqvgChinVGFUaSfnPmHdqJEtYbM19FCiPqgDhgfW
Y6/MmzJ3T66C
-----END CERTIFICATE-----
