Certificate:
    Data:
        Version: 3 (0x2)
        Serial Number: 268435600 (0x10000090)
    Signature Algorithm: sha256WithRSAEncryption
        Issuer: CN=CA1_sha256_1024_65537_v3_ca
        Validity
            Not Before: Mar  7 15:17:38 2018 GMT
            Not After : Mar  4 15:17:38 2028 GMT
        Subject: CN=SRK1_sha256_1024_65537_v3_ca
        Subject Public Key Info:
            Public Key Algorithm: rsaEncryption
                Public-Key: (1024 bit)
                Modulus:
                    00:ac:b8:0a:9c:4d:99:5e:c9:f2:29:2d:2b:7e:79:
                    0d:74:e0:5e:8b:d9:2b:e0:89:9e:5c:63:3b:1d:8b:
                    cf:ac:c4:9b:c3:53:f6:f1:3b:04:ce:e6:14:74:3f:
                    29:b6:7a:4e:e6:1e:00:30:54:8b:7f:b2:8b:75:fa:
                    d1:94:6c:7f:1c:f1:d2:11:7e:f2:b8:ec:6e:28:c9:
                    4a:c7:4a:7e:e2:36:c2:5b:d1:16:bc:15:f6:d6:c4:
                    91:c6:61:bb:1b:0d:74:e9:aa:18:05:bd:a2:a6:05:
                    87:53:86:5b:88:5d:ad:ed:61:37:53:5e:ee:64:36:
                    93:dc:7b:a5:36:be:2c:7d:1b
                Exponent: 65537 (0x10001)
        X509v3 extensions:
            X509v3 Subject Key Identifier: 
                9A:96:DA:7B:B9:11:27:0D:D4:75:45:51:83:26:C5:90:DD:08:40:43
            X509v3 Authority Key Identifier: 
                keyid:7F:53:52:60:D4:FB:9A:CB:5A:17:84:AB:D2:A5:1E:57:23:F4:F9:7E
                DirName:/CN=CA1_sha256_1024_65537_v3_ca
                serial:B4:18:7B:AF:A4:8F:68:D1

            X509v3 Basic Constraints: critical
                CA:TRUE
            X509v3 Key Usage: 
                Certificate Sign
    Signature Algorithm: sha256WithRSAEncryption
         a4:19:f2:1e:c4:77:8b:05:6a:3d:e6:62:ef:55:0d:87:23:97:
         31:8f:f7:09:77:c9:7b:d8:7e:70:fd:90:1b:06:6b:13:c5:b8:
         57:86:e0:b2:d4:81:df:c5:05:49:84:88:8f:74:d2:d6:71:05:
         49:3c:e8:2c:b5:8e:f3:15:8a:d5:4a:86:05:21:eb:ed:f4:a3:
         29:a3:d2:56:a2:2b:49:bf:6f:ee:b5:05:15:8a:ab:85:4d:d8:
         e4:24:2f:a6:73:e4:c8:91:a5:83:37:8c:6d:e0:af:32:7b:bc:
         ca:32:02:5a:02:43:eb:07:55:e0:57:7c:92:92:da:c6:c3:e8:
         40:58
-----BEGIN CERTIFICATE-----
MIICXzCCAcigAwIBAgIEEAAAkDANBgkqhkiG9w0BAQsFADAmMSQwIgYDVQQDFBtD
QTFfc2hhMjU2XzEwMjRfNjU1MzdfdjNfY2EwHhcNMTgwMzA3MTUxNzM4WhcNMjgw
MzA0MTUxNzM4WjAnMSUwIwYDVQQDDBxTUksxX3NoYTI1Nl8xMDI0XzY1NTM3X3Yz
X2NhMIGfMA0GCSqGSIb3DQEBAQUAA4GNADCBiQKBgQCsuAqcTZleyfIpLSt+eQ10
4F6L2SvgiZ5cYzsdi8+sxJvDU/bxOwTO5hR0Pym2ek7mHgAwVIt/sot1+tGUbH8c
8dIRfvK47G4oyUrHSn7iNsJb0Ra8FfbWxJHGYbsbDXTpqhgFvaKmBYdThluIXa3t
YTdTXu5kNpPce6U2vix9GwIDAQABo4GYMIGVMB0GA1UdDgQWBBSaltp7uREnDdR1
RVGDJsWQ3QhAQzBWBgNVHSMETzBNgBR/U1Jg1Puay1oXhKvSpR5XI/T5fqEqpCgw
JjEkMCIGA1UEAxQbQ0ExX3NoYTI1Nl8xMDI0XzY1NTM3X3YzX2NhggkAtBh7r6SP
aNEwDwYDVR0TAQH/BAUwAwEB/zALBgNVHQ8EBAMCAgQwDQYJKoZIhvcNAQELBQAD
gYEApBnyHsR3iwVqPeZi71UNhyOXMY/3CXfJe9h+cP2QGwZrE8W4V4bgstSB38UF
SYSIj3TS1nEFSTzoLLWO8xWK1UqGBSHr7fSjKaPSVqIrSb9v7rUFFYqrhU3Y5CQv
pnPkyJGlgzeMbeCvMnu8yjICWgJD6wdV4Fd8kpLaxsPoQFg=
-----END CERTIFICATE-----
