Certificate:
    Data:
        Version: 3 (0x2)
        Serial Number: 268435565 (0x1000006d)
    Signature Algorithm: sha256WithRSAEncryption
        Issuer: CN=SRK1_sha256_1024_65537_v3_ca
        Validity
            Not Before: Mar  7 15:15:47 2018 GMT
            Not After : Mar  4 15:15:47 2028 GMT
        Subject: CN=CSF1_1_sha256_1024_65537_v3_usr
        Subject Public Key Info:
            Public Key Algorithm: rsaEncryption
                Public-Key: (1024 bit)
                Modulus:
                    00:ac:08:35:b6:cd:15:22:d1:aa:10:bc:a3:6d:99:
                    06:7d:a5:72:b4:ff:cc:c2:6d:a6:55:db:b5:49:7c:
                    c6:20:e6:58:6e:3f:83:cd:1d:2a:c8:40:b7:81:c6:
                    a3:ce:f1:89:a1:51:c2:6a:ad:02:62:c6:0a:1f:48:
                    46:1a:36:79:b9:42:fe:6b:06:85:17:45:09:2c:73:
                    d9:df:3f:60:8f:8e:b0:38:6f:39:6c:00:a5:79:17:
                    af:54:25:86:51:bf:35:3e:f3:16:44:cc:e6:08:b1:
                    4e:e5:63:eb:c9:f4:b4:5a:0d:e4:fb:89:d1:57:5a:
                    77:25:d8:d4:4b:7d:22:be:f7
                Exponent: 65537 (0x10001)
        X509v3 extensions:
            X509v3 Basic Constraints: 
                CA:FALSE
            Netscape Comment: 
                OpenSSL Generated Certificate
            X509v3 Subject Key Identifier: 
                50:FB:EC:45:3D:7F:07:B6:B2:0B:CC:D3:A5:46:A0:C6:75:0B:E2:54
            X509v3 Authority Key Identifier: 
                keyid:29:33:0D:C4:2A:A7:BA:C6:A5:E1:1E:CB:32:7A:53:DC:D3:47:DC:F3

    Signature Algorithm: sha256WithRSAEncryption
         81:2b:3f:a6:19:69:3c:64:2f:d4:b9:14:d0:b6:43:b1:d5:06:
         fc:b2:14:27:50:d2:de:1b:15:64:72:bc:6c:fe:9e:03:6e:7f:
         76:57:16:00:cc:43:1e:c8:86:0d:c4:81:b7:9b:ff:05:11:67:
         a9:97:09:d0:78:fa:90:75:80:40:3a:c3:2f:c4:69:fa:bb:a8:
         db:3a:75:cb:c4:d6:89:22:5d:06:7c:e6:62:1a:b1:4a:19:98:
         aa:0b:83:d3:68:4c:58:16:34:92:40:87:5c:86:a0:6e:c0:1a:
         10:a9:ff:88:da:c7:c0:f4:a0:d8:ae:88:ab:d0:81:5f:23:c3:
         0a:bd
-----BEGIN CERTIFICATE-----
MIICRTCCAa6gAwIBAgIEEAAAbTANBgkqhkiG9w0BAQsFADAnMSUwIwYDVQQDDBxT
UksxX3NoYTI1Nl8xMDI0XzY1NTM3X3YzX2NhMB4XDTE4MDMwNzE1MTU0N1oXDTI4
MDMwNDE1MTU0N1owKjEoMCYGA1UEAwwfQ1NGMV8xX3NoYTI1Nl8xMDI0XzY1NTM3
X3YzX3VzcjCBnzANBgkqhkiG9w0BAQEFAAOBjQAwgYkCgYEArAg1ts0VItGqELyj
bZkGfaVytP/Mwm2mVdu1SXzGIOZYbj+DzR0qyEC3gcajzvGJoVHCaq0CYsYKH0hG
GjZ5uUL+awaFF0UJLHPZ3z9gj46wOG85bACleRevVCWGUb81PvMWRMzmCLFO5WPr
yfS0Wg3k+4nRV1p3JdjUS30ivvcCAwEAAaN7MHkwCQYDVR0TBAIwADAsBglghkgB
hvhCAQ0EHxYdT3BlblNTTCBHZW5lcmF0ZWQgQ2VydGlmaWNhdGUwHQYDVR0OBBYE
FFD77EU9fwe2sgvM06VGoMZ1C+JUMB8GA1UdIwQYMBaAFCkzDcQqp7rGpeEeyzJ6
U9zTR9zzMA0GCSqGSIb3DQEBCwUAA4GBAIErP6YZaTxkL9S5FNC2Q7HVBvyyFCdQ
0t4bFWRyvGz+ngNuf3ZXFgDMQx7Ihg3Egbeb/wURZ6mXCdB4+pB1gEA6wy/Eafq7
qNs6dcvE1okiXQZ85mIasUoZmKoLg9NoTFgWNJJAh1yGoG7AGhCp/4jax8D0oNiu
iKvQgV8jwwq9
-----END CERTIFICATE-----
