Certificate:
    Data:
        Version: 3 (0x2)
        Serial Number: 268435589 (0x10000085)
    Signature Algorithm: sha256WithRSAEncryption
        Issuer: CN=SRK1_sha256_4096_65537_v3_ca
        Validity
            Not Before: Mar  7 15:15:51 2018 GMT
            Not After : Mar  4 15:15:51 2028 GMT
        Subject: CN=CSF1_1_sha256_4096_65537_v3_usr
        Subject Public Key Info:
            Public Key Algorithm: rsaEncryption
                Public-Key: (4096 bit)
                Modulus:
                    00:d0:a6:ea:96:e4:5b:33:ab:c3:14:94:cd:6a:ed:
                    c8:05:5e:56:85:ce:6a:44:c3:69:d8:58:f3:3c:2f:
                    25:8c:77:2d:0c:a9:4f:4f:37:a6:54:35:1c:ab:6e:
                    90:15:1c:54:52:2a:d0:d9:a8:cd:cf:06:00:a9:00:
                    ee:4d:ba:09:80:93:eb:aa:26:53:6c:9b:97:98:9a:
                    c3:bd:2b:16:44:e3:44:85:77:76:98:2d:0b:7f:48:
                    3c:b5:ac:c5:f6:f6:69:c1:9e:5f:15:27:75:ff:c9:
                    e2:d8:a0:1f:d1:1a:cf:71:79:74:0a:22:7d:48:3e:
                    6d:2b:1c:a3:df:bf:7c:fc:6c:92:82:29:f9:3d:a7:
                    ef:a4:f5:f6:aa:e5:29:72:5d:45:bd:e1:61:4e:56:
                    4f:06:c3:ae:0f:73:31:0b:59:a1:8f:5c:03:4f:9e:
                    d0:8c:df:98:5c:4a:ce:4d:ba:a7:1c:af:5b:ad:92:
                    4b:a7:b2:73:40:ef:92:0d:f6:80:27:d2:ff:9d:d0:
                    61:51:de:29:09:97:6e:3e:fd:d2:b2:ea:d8:0c:85:
                    90:78:78:41:fa:d9:36:89:7d:1a:a9:a6:4f:17:4c:
                    ff:a4:9e:09:40:ee:79:f4:68:ef:a2:9e:c9:39:30:
                    ce:75:ef:70:10:2c:ae:7b:d2:cd:6b:97:eb:cc:7d:
                    0b:63:cb:52:62:d9:9d:02:4c:92:8e:a2:1b:eb:79:
                    0f:f0:82:e1:3f:5a:db:ca:80:6a:7c:88:27:41:81:
                    f5:c9:9e:54:6f:50:a4:96:3c:c1:16:ee:2d:fd:9d:
                    2d:db:4b:5f:27:9d:17:ab:35:5d:a4:33:b6:c1:bd:
                    9b:be:33:b3:7f:22:12:8a:bf:22:59:ec:af:e0:09:
                    d0:9a:0a:37:ad:2c:17:97:3b:3f:5d:be:8c:30:7a:
                    36:b7:c5:c0:67:2f:ea:d8:c3:e1:f3:3e:cc:25:2d:
                    2f:55:d4:69:45:39:0f:c2:62:8f:e3:cd:27:99:98:
                    45:95:4e:30:a4:25:75:b1:4a:23:32:a4:58:89:35:
                    49:0d:f6:9d:86:cd:e1:01:cc:49:15:d1:de:ad:3e:
                    7c:e7:a5:e5:80:b0:50:03:3b:6f:e8:5d:f1:86:8e:
                    f4:b9:90:6d:7d:b9:3a:5c:32:c7:05:6f:63:28:d9:
                    37:70:01:98:68:89:a7:1c:f1:b2:89:85:40:cc:3c:
                    77:3e:cc:22:26:23:18:c4:e6:35:5b:ee:df:5a:f3:
                    f5:e8:92:52:78:40:b2:d2:d3:f7:be:16:d3:12:fa:
                    17:b4:74:d6:4a:c5:ed:26:e3:a5:9f:4c:bd:02:b5:
                    be:e5:a5:a1:b2:b2:47:6c:8e:43:00:d4:87:c6:12:
                    e3:e9:b3
                Exponent: 65537 (0x10001)
        X509v3 extensions:
            X509v3 Basic Constraints: 
                CA:FALSE
            Netscape Comment: 
                OpenSSL Generated Certificate
            X509v3 Subject Key Identifier: 
                28:0A:1C:00:10:8E:B4:44:27:18:5F:7D:FB:26:DC:CE:88:9A:0E:B9
            X509v3 Authority Key Identifier: 
                keyid:7C:7E:7D:BE:CA:5D:11:F2:2C:3D:FF:5E:60:A6:92:35:DE:D6:D4:2A

    Signature Algorithm: sha256WithRSAEncryption
         00:65:bb:30:d6:a8:a4:e3:95:bf:79:1a:f4:ce:18:ab:9c:2f:
         cd:55:25:f5:f9:2c:f8:c4:dd:40:53:25:84:42:16:78:e3:fe:
         91:e1:90:f7:9a:4a:87:42:f0:ec:3a:93:08:f1:f3:66:43:d8:
         82:79:88:02:00:fb:17:bf:70:a3:33:20:23:8c:d7:e8:cc:af:
         01:93:35:0a:5d:5a:fa:79:c4:0a:6b:1f:4d:0f:1b:b7:1a:d5:
         15:35:38:44:6c:8c:66:a7:83:bd:1d:24:07:cc:66:27:56:4f:
         c2:8b:07:44:78:42:b3:06:48:b3:6b:93:24:3a:f1:7a:65:89:
         c1:cf:56:3f:33:ea:af:34:93:4d:48:49:f8:08:e7:95:4b:53:
         c3:91:79:22:fa:4d:74:0d:a7:d3:95:3b:cb:03:03:2d:eb:22:
         bf:cf:d0:5e:95:fb:a8:1f:1a:be:12:db:c2:bd:5f:cc:b3:6a:
         07:b7:22:ad:d9:dc:a0:e2:97:8b:e8:8f:5d:1d:c1:5e:c9:be:
         dd:30:a4:2f:ed:09:3e:52:92:42:55:95:8c:3f:65:ad:c8:4e:
         ef:c2:e1:58:e5:64:93:05:f9:51:51:1e:22:ed:25:e9:e1:6d:
         a9:da:4d:ff:90:2d:d3:ee:fd:87:2b:2c:1d:4a:de:ed:50:8b:
         fb:6d:10:5e:b4:cb:4a:22:7d:34:af:f6:97:2a:69:87:f1:98:
         c0:da:95:c1:8d:ea:50:4d:ee:8a:07:e1:3f:55:fa:20:2a:fb:
         0a:52:2c:d7:c5:25:04:d8:43:00:df:f5:32:54:8a:f2:67:16:
         35:b9:ef:d4:ea:81:d5:11:7c:6b:f0:d9:97:aa:48:c2:c5:93:
         2f:ba:96:16:0c:81:9e:2f:c4:c9:f4:9c:25:37:24:64:05:97:
         63:5b:18:e4:2e:06:9b:fe:73:23:44:05:d4:d1:59:c8:b0:b1:
         d1:5e:72:d5:8f:63:6d:06:94:2c:12:66:d6:30:cb:a4:c0:5b:
         50:e8:37:8a:37:51:16:92:33:ce:b5:8b:89:81:3f:ca:02:22:
         36:91:85:9a:34:6a:10:fa:c6:62:9a:bc:0d:ef:30:46:fb:92:
         df:ed:17:fe:9c:3e:93:a1:1b:5a:a3:88:be:4c:88:a3:d0:9a:
         ce:e4:ca:d9:b4:36:00:a7:9b:7f:86:da:d0:c6:1e:f3:f0:fa:
         35:85:8d:f5:07:0c:b3:09:d1:6f:a2:2d:6b:95:c8:e0:91:d2:
         04:e5:08:41:b7:eb:30:5a:8b:79:68:94:c9:cc:ab:9d:da:86:
         15:51:67:ae:ff:20:d3:e6:8d:00:cb:07:30:c9:8e:14:44:7c:
         ec:a3:a4:39:8a:ef:bf:89
-----BEGIN CERTIFICATE-----
MIIFSjCCAzKgAwIBAgIEEAAAhTANBgkqhkiG9w0BAQsFADAnMSUwIwYDVQQDDBxT
UksxX3NoYTI1Nl80MDk2XzY1NTM3X3YzX2NhMB4XDTE4MDMwNzE1MTU1MVoXDTI4
MDMwNDE1MTU1MVowKjEoMCYGA1UEAwwfQ1NGMV8xX3NoYTI1Nl80MDk2XzY1NTM3
X3YzX3VzcjCCAiIwDQYJKoZIhvcNAQEBBQADggIPADCCAgoCggIBANCm6pbkWzOr
wxSUzWrtyAVeVoXOakTDadhY8zwvJYx3LQypT083plQ1HKtukBUcVFIq0Nmozc8G
AKkA7k26CYCT66omU2ybl5iaw70rFkTjRIV3dpgtC39IPLWsxfb2acGeXxUndf/J
4tigH9Eaz3F5dAoifUg+bSsco9+/fPxskoIp+T2n76T19qrlKXJdRb3hYU5WTwbD
rg9zMQtZoY9cA0+e0IzfmFxKzk26pxyvW62SS6eyc0Dvkg32gCfS/53QYVHeKQmX
bj790rLq2AyFkHh4QfrZNol9GqmmTxdM/6SeCUDuefRo76KeyTkwznXvcBAsrnvS
zWuX68x9C2PLUmLZnQJMko6iG+t5D/CC4T9a28qAanyIJ0GB9cmeVG9QpJY8wRbu
Lf2dLdtLXyedF6s1XaQztsG9m74zs38iEoq/Ilnsr+AJ0JoKN60sF5c7P12+jDB6
NrfFwGcv6tjD4fM+zCUtL1XUaUU5D8Jij+PNJ5mYRZVOMKQldbFKIzKkWIk1SQ32
nYbN4QHMSRXR3q0+fOel5YCwUAM7b+hd8YaO9LmQbX25OlwyxwVvYyjZN3ABmGiJ
pxzxsomFQMw8dz7MIiYjGMTmNVvu31rz9eiSUnhAstLT974W0xL6F7R01krF7Sbj
pZ9MvQK1vuWlobKyR2yOQwDUh8YS4+mzAgMBAAGjezB5MAkGA1UdEwQCMAAwLAYJ
YIZIAYb4QgENBB8WHU9wZW5TU0wgR2VuZXJhdGVkIENlcnRpZmljYXRlMB0GA1Ud
DgQWBBQoChwAEI60RCcYX337JtzOiJoOuTAfBgNVHSMEGDAWgBR8fn2+yl0R8iw9
/15gppI13tbUKjANBgkqhkiG9w0BAQsFAAOCAgEAAGW7MNaopOOVv3ka9M4Yq5wv
zVUl9fks+MTdQFMlhEIWeOP+keGQ95pKh0Lw7DqTCPHzZkPYgnmIAgD7F79wozMg
I4zX6MyvAZM1Cl1a+nnECmsfTQ8btxrVFTU4RGyMZqeDvR0kB8xmJ1ZPwosHRHhC
swZIs2uTJDrxemWJwc9WPzPqrzSTTUhJ+AjnlUtTw5F5IvpNdA2n05U7ywMDLesi
v8/QXpX7qB8avhLbwr1fzLNqB7cirdncoOKXi+iPXR3BXsm+3TCkL+0JPlKSQlWV
jD9lrchO78LhWOVkkwX5UVEeIu0l6eFtqdpN/5At0+79hyssHUre7VCL+20QXrTL
SiJ9NK/2lypph/GYwNqVwY3qUE3uigfhP1X6ICr7ClIs18UlBNhDAN/1MlSK8mcW
Nbnv1OqB1RF8a/DZl6pIwsWTL7qWFgyBni/EyfScJTckZAWXY1sY5C4Gm/5zI0QF
1NFZyLCx0V5y1Y9jbQaULBJm1jDLpMBbUOg3ijdRFpIzzrWLiYE/ygIiNpGFmjRq
EPrGYpq8De8wRvuS3+0X/pw+k6EbWqOIvkyIo9CazuTK2bQ2AKebf4ba0MYe8/D6
NYWN9QcMswnRb6Ita5XI4JHSBOUIQbfrMFqLeWiUycyrndqGFVFnrv8g0+aNAMsH
MMmOFER87KOkOYrvv4k=
-----END CERTIFICATE-----
