Certificate:
    Data:
        Version: 3 (0x2)
        Serial Number: 268435571 (0x10000073)
    Signature Algorithm: sha256WithRSAEncryption
        Issuer: CN=SRK3_sha256_1024_65537_v3_ca
        Validity
            Not Before: Mar  7 15:15:47 2018 GMT
            Not After : Mar  4 15:15:47 2028 GMT
        Subject: CN=CSF3_1_sha256_1024_65537_v3_usr
        Subject Public Key Info:
            Public Key Algorithm: rsaEncryption
                Public-Key: (1024 bit)
                Modulus:
                    00:eb:d0:b5:8d:c9:9a:fa:0b:4e:28:4e:c6:27:31:
                    96:96:ec:a3:5d:ff:c9:09:05:e0:1e:89:18:ed:a1:
                    56:b5:8d:a1:bc:d0:92:19:60:f8:17:3f:d8:16:10:
                    67:2d:18:26:01:8d:be:85:27:a4:83:0e:89:6a:76:
                    fc:6e:d3:08:9e:f4:d8:43:e9:4d:2f:8f:6f:40:84:
                    98:8d:0d:96:45:d9:b1:8c:6f:53:b1:31:3c:54:1f:
                    d2:6d:5b:c4:b1:91:23:4d:a6:80:4b:79:dd:a0:d4:
                    1a:c3:e1:17:ba:e5:71:7a:31:b3:75:95:d0:23:f0:
                    91:d3:f7:99:50:39:4d:98:c9
                Exponent: 65537 (0x10001)
        X509v3 extensions:
            X509v3 Basic Constraints: 
                CA:FALSE
            Netscape Comment: 
                OpenSSL Generated Certificate
            X509v3 Subject Key Identifier: 
                0B:42:E7:88:3A:69:13:D7:51:66:F3:06:1B:97:3B:DD:75:A1:C0:9F
            X509v3 Authority Key Identifier: 
                keyid:1D:4F:0E:2E:05:79:82:CB:70:47:2E:6F:18:C0:9A:76:5B:E2:38:99

    Signature Algorithm: sha256WithRSAEncryption
         3d:76:b9:b3:33:78:80:d6:47:5b:63:6e:7a:63:8e:f5:7d:07:
         0d:0b:49:d5:bd:ea:b8:20:25:9c:66:55:d5:99:bd:b8:02:f2:
         2c:86:42:d5:a1:9f:33:f3:fd:fb:a6:9e:8e:69:d7:0e:90:f7:
         75:0e:dc:d7:70:b1:18:0d:49:43:74:d2:49:5c:ae:58:d6:48:
         fc:c6:8a:a3:5a:97:3d:36:e3:51:18:b6:c6:f4:3b:18:0a:99:
         00:18:61:8e:8a:e4:4d:82:48:ab:65:00:fb:de:fc:ca:06:3a:
         76:1d:86:37:0a:49:98:67:63:19:b5:68:ac:60:31:d8:3d:0d:
         e5:5d
-----BEGIN CERTIFICATE-----
MIICRTCCAa6gAwIBAgIEEAAAczANBgkqhkiG9w0BAQsFADAnMSUwIwYDVQQDDBxT
UkszX3NoYTI1Nl8xMDI0XzY1NTM3X3YzX2NhMB4XDTE4MDMwNzE1MTU0N1oXDTI4
MDMwNDE1MTU0N1owKjEoMCYGA1UEAwwfQ1NGM18xX3NoYTI1Nl8xMDI0XzY1NTM3
X3YzX3VzcjCBnzANBgkqhkiG9w0BAQEFAAOBjQAwgYkCgYEA69C1jcma+gtOKE7G
JzGWluyjXf/JCQXgHokY7aFWtY2hvNCSGWD4Fz/YFhBnLRgmAY2+hSekgw6Janb8
btMInvTYQ+lNL49vQISYjQ2WRdmxjG9TsTE8VB/SbVvEsZEjTaaAS3ndoNQaw+EX
uuVxejGzdZXQI/CR0/eZUDlNmMkCAwEAAaN7MHkwCQYDVR0TBAIwADAsBglghkgB
hvhCAQ0EHxYdT3BlblNTTCBHZW5lcmF0ZWQgQ2VydGlmaWNhdGUwHQYDVR0OBBYE
FAtC54g6aRPXUWbzBhuXO911ocCfMB8GA1UdIwQYMBaAFB1PDi4FeYLLcEcubxjA
mnZb4jiZMA0GCSqGSIb3DQEBCwUAA4GBAD12ubMzeIDWR1tjbnpjjvV9Bw0LSdW9
6rggJZxmVdWZvbgC8iyGQtWhnzPz/fumno5p1w6Q93UO3NdwsRgNSUN00klcrljW
SPzGiqNalz0241EYtsb0OxgKmQAYYY6K5E2CSKtlAPve/MoGOnYdhjcKSZhnYxm1
aKxgMdg9DeVd
-----END CERTIFICATE-----
