Certificate:
    Data:
        Version: 3 (0x2)
        Serial Number: 268435595 (0x1000008b)
    Signature Algorithm: sha256WithRSAEncryption
        Issuer: CN=SRK3_sha256_4096_65537_v3_ca
        Validity
            Not Before: Mar  7 15:15:54 2018 GMT
            Not After : Mar  4 15:15:54 2028 GMT
        Subject: CN=CSF3_1_sha256_4096_65537_v3_usr
        Subject Public Key Info:
            Public Key Algorithm: rsaEncryption
                Public-Key: (4096 bit)
                Modulus:
                    00:a5:dd:b5:9e:f0:3e:6a:7d:ea:42:95:5a:66:bf:
                    64:f2:df:a4:01:73:96:e0:de:42:81:9f:c2:aa:90:
                    7e:9e:6c:cc:13:8d:fc:2c:0e:b1:cc:3b:03:b3:19:
                    2e:14:c2:aa:5f:af:f6:a1:89:17:b3:30:c8:e4:ab:
                    52:22:86:51:8f:97:c6:2b:8a:6b:1f:2b:21:90:9f:
                    44:5f:b1:76:42:8b:fa:9a:39:e6:6e:c6:68:c8:e5:
                    4f:d9:72:b3:fb:ce:d8:0f:19:8c:7e:9d:0c:aa:a4:
                    ec:e1:3c:9f:bf:32:7f:af:af:6b:3c:a3:12:f1:e3:
                    7d:2d:b5:3c:49:a5:ab:74:89:07:07:c6:bb:97:26:
                    8c:a4:be:bb:14:2c:b2:65:0a:2f:de:20:d4:eb:77:
                    db:00:01:d8:1b:00:61:23:fd:b2:31:51:59:38:0d:
                    ac:b9:bf:bc:53:d5:ce:d3:cf:31:67:09:d6:9e:2d:
                    60:c0:e6:62:d5:e5:31:21:14:93:8a:4d:25:0d:c2:
                    34:5b:62:be:f9:84:ae:74:98:70:6e:99:9b:7f:7e:
                    df:3c:e0:8c:38:3f:db:9c:5b:89:dd:92:ec:38:bb:
                    67:d8:43:7d:1e:cd:e4:43:1d:ae:a6:bd:c3:8c:a3:
                    e9:49:b7:7b:b4:27:54:14:82:14:db:05:6f:2c:29:
                    94:e3:4e:31:c4:15:be:65:48:9e:70:d5:74:c1:76:
                    3c:05:13:56:a3:b7:a6:99:21:d5:96:40:fa:66:50:
                    d1:96:13:99:02:be:34:78:aa:45:67:ae:a8:2d:d4:
                    de:fa:d8:8c:d0:d6:df:56:ae:31:f2:db:6e:ad:d1:
                    9d:db:26:73:7e:bd:db:5a:af:59:30:d2:a3:e8:d6:
                    c0:e3:f3:69:10:fa:c8:b2:7f:41:a8:6f:53:e7:03:
                    60:fd:e3:d9:19:e5:1e:09:37:24:b4:c4:69:11:5a:
                    b2:e1:ff:1a:3f:2e:d8:5d:88:ea:00:3e:7e:2d:23:
                    54:56:84:1e:e3:9a:4b:8c:91:04:df:21:32:d2:f2:
                    66:e6:62:a0:0c:be:71:7a:e7:ce:a6:ca:f4:90:00:
                    c7:b0:c4:04:f3:ff:b1:b5:8b:74:85:8f:97:e4:d6:
                    6d:4a:ac:48:d4:b5:57:a7:03:ec:c8:37:55:a3:48:
                    87:51:84:11:41:92:e0:58:9f:1f:39:41:96:19:ef:
                    b3:3b:52:a4:3a:cf:43:cb:a4:77:4c:a1:62:97:1c:
                    dd:be:c0:b8:78:a0:4c:ee:0b:81:ab:5e:24:d5:97:
                    70:f0:50:29:0b:0d:22:cc:ed:35:53:9a:39:7f:4b:
                    39:b2:85:38:27:27:1a:ee:7e:9e:10:7c:b7:76:70:
                    aa:5f:d3
                Exponent: 65537 (0x10001)
        X509v3 extensions:
            X509v3 Basic Constraints: 
                CA:FALSE
            Netscape Comment: 
                OpenSSL Generated Certificate
            X509v3 Subject Key Identifier: 
                13:CA:3C:56:A4:A3:96:40:B1:2A:A6:76:EC:E3:05:1C:1C:AA:1E:51
            X509v3 Authority Key Identifier: 
                keyid:92:8F:8A:F9:B2:A9:87:07:C0:7E:35:6E:48:7A:54:38:BB:A8:95:59

    Signature Algorithm: sha256WithRSAEncryption
         7c:7b:c7:0a:ac:13:52:c4:be:81:98:a0:b8:5f:da:a4:a3:3f:
         ea:69:33:df:75:b1:53:57:64:21:8a:1c:8b:c8:7e:0e:59:f8:
         cb:81:b7:8f:d0:bb:61:35:7c:7a:4e:5d:a3:32:5f:c9:87:c7:
         30:5e:9e:56:fc:50:56:08:56:53:0f:5e:00:d1:8e:88:12:06:
         25:7b:16:12:be:a5:dc:0f:22:c9:39:b2:df:a8:6b:d3:f9:1f:
         7b:e3:4b:4b:b6:c8:3e:b2:88:3c:61:56:78:0e:dd:45:9d:22:
         ec:63:9a:e8:a6:3a:69:f8:c0:00:e3:1a:1c:93:76:ee:02:89:
         b5:91:6c:96:b7:2a:00:31:4f:62:0c:4f:0f:5c:76:27:8f:05:
         21:c8:d4:92:41:e2:8c:ec:9b:ae:db:7b:1f:c6:1b:17:16:a0:
         74:86:73:b7:05:cf:39:5d:8f:1c:6d:65:95:ea:b4:40:cb:7f:
         5a:e1:82:a4:08:d0:0a:97:55:4f:c4:17:62:39:10:27:1f:20:
         16:e7:35:ba:02:17:72:a4:ed:b8:57:99:af:37:f7:82:dd:40:
         05:14:d2:6f:64:4a:3b:98:32:88:00:30:08:ca:0b:cf:7b:b6:
         79:7f:89:12:2f:62:48:d2:2f:5d:e3:23:98:f3:3e:3c:8a:80:
         31:59:2d:32:c2:7a:52:e8:3b:bd:f3:83:d0:9f:a3:0b:8f:95:
         dc:88:40:79:82:d6:6f:98:0e:16:24:e6:53:3f:a4:b3:9a:35:
         7e:d7:09:65:b4:39:7c:0e:05:f4:5b:28:d4:97:bc:6a:9a:ba:
         9f:85:c1:09:fa:66:72:35:27:34:0e:90:1d:84:91:16:13:34:
         0a:55:21:1f:3c:0c:09:40:75:b2:f3:77:b4:9d:0e:f0:cf:61:
         6e:7f:b0:78:3f:14:e4:75:04:c4:0a:84:df:17:d4:bf:93:e7:
         04:98:38:69:f2:9c:4e:db:7a:d1:9c:82:00:87:25:ba:9c:7d:
         54:3e:71:37:06:6c:87:70:db:23:9b:4b:f4:a9:99:a2:d5:fa:
         79:09:8f:61:42:49:ee:34:7d:a7:72:0d:92:d8:d9:d8:c8:81:
         bd:f3:71:2e:bc:2a:d7:6d:3d:a4:ad:71:d9:ac:f3:12:b8:d2:
         7a:07:ef:54:73:cf:51:a0:e3:37:8c:da:e1:08:34:b8:0b:80:
         41:d3:f9:19:c6:7b:d0:c1:9f:0f:fd:de:d8:d1:dd:2e:c6:52:
         b4:70:9f:8a:37:10:6e:5d:ac:48:58:68:f0:0d:fc:3a:a1:aa:
         f4:54:14:3c:3c:7a:9a:e5:72:43:d3:a0:3f:34:e5:20:a2:7f:
         0e:13:72:c7:82:7f:83:b3
-----BEGIN CERTIFICATE-----
MIIFSjCCAzKgAwIBAgIEEAAAizANBgkqhkiG9w0BAQsFADAnMSUwIwYDVQQDDBxT
UkszX3NoYTI1Nl80MDk2XzY1NTM3X3YzX2NhMB4XDTE4MDMwNzE1MTU1NFoXDTI4
MDMwNDE1MTU1NFowKjEoMCYGA1UEAwwfQ1NGM18xX3NoYTI1Nl80MDk2XzY1NTM3
X3YzX3VzcjCCAiIwDQYJKoZIhvcNAQEBBQADggIPADCCAgoCggIBAKXdtZ7wPmp9
6kKVWma/ZPLfpAFzluDeQoGfwqqQfp5szBON/CwOscw7A7MZLhTCql+v9qGJF7Mw
yOSrUiKGUY+XxiuKax8rIZCfRF+xdkKL+po55m7GaMjlT9lys/vO2A8ZjH6dDKqk
7OE8n78yf6+vazyjEvHjfS21PEmlq3SJBwfGu5cmjKS+uxQssmUKL94g1Ot32wAB
2BsAYSP9sjFRWTgNrLm/vFPVztPPMWcJ1p4tYMDmYtXlMSEUk4pNJQ3CNFtivvmE
rnSYcG6Zm39+3zzgjDg/25xbid2S7Di7Z9hDfR7N5EMdrqa9w4yj6Um3e7QnVBSC
FNsFbywplONOMcQVvmVInnDVdMF2PAUTVqO3ppkh1ZZA+mZQ0ZYTmQK+NHiqRWeu
qC3U3vrYjNDW31auMfLbbq3Rndsmc36921qvWTDSo+jWwOPzaRD6yLJ/QahvU+cD
YP3j2RnlHgk3JLTEaRFasuH/Gj8u2F2I6gA+fi0jVFaEHuOaS4yRBN8hMtLyZuZi
oAy+cXrnzqbK9JAAx7DEBPP/sbWLdIWPl+TWbUqsSNS1V6cD7Mg3VaNIh1GEEUGS
4FifHzlBlhnvsztSpDrPQ8ukd0yhYpcc3b7AuHigTO4LgateJNWXcPBQKQsNIszt
NVOaOX9LObKFOCcnGu5+nhB8t3Zwql/TAgMBAAGjezB5MAkGA1UdEwQCMAAwLAYJ
YIZIAYb4QgENBB8WHU9wZW5TU0wgR2VuZXJhdGVkIENlcnRpZmljYXRlMB0GA1Ud
DgQWBBQTyjxWpKOWQLEqpnbs4wUcHKoeUTAfBgNVHSMEGDAWgBSSj4r5sqmHB8B+
NW5IelQ4u6iVWTANBgkqhkiG9w0BAQsFAAOCAgEAfHvHCqwTUsS+gZiguF/apKM/
6mkz33WxU1dkIYoci8h+Dln4y4G3j9C7YTV8ek5dozJfyYfHMF6eVvxQVghWUw9e
ANGOiBIGJXsWEr6l3A8iyTmy36hr0/kfe+NLS7bIPrKIPGFWeA7dRZ0i7GOa6KY6
afjAAOMaHJN27gKJtZFslrcqADFPYgxPD1x2J48FIcjUkkHijOybrtt7H8YbFxag
dIZztwXPOV2PHG1lleq0QMt/WuGCpAjQCpdVT8QXYjkQJx8gFuc1ugIXcqTtuFeZ
rzf3gt1ABRTSb2RKO5gyiAAwCMoLz3u2eX+JEi9iSNIvXeMjmPM+PIqAMVktMsJ6
Uug7vfOD0J+jC4+V3IhAeYLWb5gOFiTmUz+ks5o1ftcJZbQ5fA4F9Fso1Je8apq6
n4XBCfpmcjUnNA6QHYSRFhM0ClUhHzwMCUB1svN3tJ0O8M9hbn+weD8U5HUExAqE
3xfUv5PnBJg4afKcTtt60ZyCAIclupx9VD5xNwZsh3DbI5tL9KmZotX6eQmPYUJJ
7jR9p3INktjZ2MiBvfNxLrwq1209pK1x2azzErjSegfvVHPPUaDjN4za4Qg0uAuA
QdP5GcZ70MGfD/3e2NHdLsZStHCfijcQbl2sSFho8A38OqGq9FQUPDx6muVyQ9Og
PzTlIKJ/DhNyx4J/g7M=
-----END CERTIFICATE-----
