Certificate:
    Data:
        Version: 3 (0x2)
        Serial Number: 268435583 (0x1000007f)
    Signature Algorithm: sha256WithRSAEncryption
        Issuer: CN=SRK3_sha256_2048_65537_v3_ca
        Validity
            Not Before: Mar  7 15:15:48 2018 GMT
            Not After : Mar  4 15:15:48 2028 GMT
        Subject: CN=CSF3_1_sha256_2048_65537_v3_usr
        Subject Public Key Info:
            Public Key Algorithm: rsaEncryption
                Public-Key: (2048 bit)
                Modulus:
                    00:b5:45:d4:ae:b2:78:e0:5e:ca:65:67:5d:66:6f:
                    12:de:a3:f8:cb:26:52:b6:40:96:d2:6c:98:5e:83:
                    72:9c:8f:3a:66:c9:42:25:5b:31:14:91:41:db:55:
                    32:22:0e:99:99:47:44:52:69:01:38:30:21:20:7f:
                    2b:b5:f8:22:97:ca:c5:63:9d:c2:96:fe:d1:30:b2:
                    75:30:a1:a5:a1:09:88:ac:53:75:73:6e:d7:de:1e:
                    20:09:af:49:7b:3a:46:f4:17:74:40:f7:d4:22:4c:
                    4d:f3:52:40:15:b4:94:10:9b:6f:9c:c0:da:eb:09:
                    09:40:7f:58:5e:fd:4d:9b:de:64:56:42:d4:1c:66:
                    5c:e3:ea:97:6d:90:86:b0:57:6d:0d:a9:45:90:2d:
                    70:c9:7b:12:ed:4a:7b:00:9e:29:e9:6a:0d:b4:dd:
                    e4:9b:54:08:95:b2:43:bd:65:8d:37:da:63:44:e8:
                    1a:c9:33:2d:2b:d1:2f:6c:1c:1a:d2:97:85:69:15:
                    d6:b5:f8:a7:2f:a6:6d:c9:79:89:60:3a:76:cd:97:
                    84:4f:4e:3d:bd:5b:94:69:9a:cb:e8:e6:92:d3:1f:
                    eb:b4:c5:df:d8:9d:66:22:67:39:d8:09:9a:bb:d6:
                    5e:13:5c:55:04:3f:9b:19:75:d3:40:32:6c:18:30:
                    00:1d
                Exponent: 65537 (0x10001)
        X509v3 extensions:
            X509v3 Basic Constraints: 
                CA:FALSE
            Netscape Comment: 
                OpenSSL Generated Certificate
            X509v3 Subject Key Identifier: 
                AA:09:9A:24:C0:0E:F8:47:87:1B:98:65:8E:72:74:EB:48:06:85:6D
            X509v3 Authority Key Identifier: 
                keyid:C2:08:BB:0B:75:B7:4F:4E:2E:C0:D2:C0:1C:E3:15:16:82:3B:D1:E5

    Signature Algorithm: sha256WithRSAEncryption
         37:96:ec:17:82:cc:15:2b:5b:15:00:f4:b8:c3:41:12:f2:d5:
         a0:95:a3:02:97:e4:27:16:88:51:62:bc:2c:d0:b8:cd:91:8c:
         7a:bf:40:6d:ea:70:6f:94:02:6a:49:9d:86:79:49:32:fb:90:
         a8:1a:47:5f:87:26:9b:b7:5f:73:8a:e5:12:e2:d8:7f:d1:6f:
         eb:18:26:e3:a4:40:04:5d:32:ac:3d:67:33:81:af:26:a6:e6:
         4b:58:1a:e6:af:3a:62:61:56:3c:f5:be:ac:e7:65:f8:6d:cc:
         44:e3:9f:52:63:95:a1:c2:8b:57:07:da:fe:b4:bd:b8:09:b5:
         b4:a2:d0:6f:3b:d6:58:88:5a:20:6a:cb:29:6a:75:bf:5f:3e:
         b6:65:0a:c0:79:da:a6:72:75:1b:ea:0d:ac:80:3b:a3:49:e0:
         2f:dc:d1:41:bb:c1:64:55:b7:79:f9:76:f0:ca:52:f8:f5:dc:
         e2:b0:51:fd:92:8c:5c:6c:af:da:a7:be:df:6f:26:6c:6a:e5:
         ec:47:75:b0:41:c2:8c:89:b2:40:de:3b:a0:a2:e5:d2:e1:c4:
         e0:aa:d5:62:ff:86:5a:2f:67:63:9b:59:79:12:91:d8:8a:2c:
         41:9b:3b:f0:65:08:10:08:bc:00:31:6c:1f:85:10:82:3c:cb:
         56:fa:1e:b8
-----BEGIN CERTIFICATE-----
MIIDSjCCAjKgAwIBAgIEEAAAfzANBgkqhkiG9w0BAQsFADAnMSUwIwYDVQQDDBxT
UkszX3NoYTI1Nl8yMDQ4XzY1NTM3X3YzX2NhMB4XDTE4MDMwNzE1MTU0OFoXDTI4
MDMwNDE1MTU0OFowKjEoMCYGA1UEAwwfQ1NGM18xX3NoYTI1Nl8yMDQ4XzY1NTM3
X3YzX3VzcjCCASIwDQYJKoZIhvcNAQEBBQADggEPADCCAQoCggEBALVF1K6yeOBe
ymVnXWZvEt6j+MsmUrZAltJsmF6DcpyPOmbJQiVbMRSRQdtVMiIOmZlHRFJpATgw
ISB/K7X4IpfKxWOdwpb+0TCydTChpaEJiKxTdXNu194eIAmvSXs6RvQXdED31CJM
TfNSQBW0lBCbb5zA2usJCUB/WF79TZveZFZC1BxmXOPql22QhrBXbQ2pRZAtcMl7
Eu1KewCeKelqDbTd5JtUCJWyQ71ljTfaY0ToGskzLSvRL2wcGtKXhWkV1rX4py+m
bcl5iWA6ds2XhE9OPb1blGmay+jmktMf67TF39idZiJnOdgJmrvWXhNcVQQ/mxl1
00AybBgwAB0CAwEAAaN7MHkwCQYDVR0TBAIwADAsBglghkgBhvhCAQ0EHxYdT3Bl
blNTTCBHZW5lcmF0ZWQgQ2VydGlmaWNhdGUwHQYDVR0OBBYEFKoJmiTADvhHhxuY
ZY5ydOtIBoVtMB8GA1UdIwQYMBaAFMIIuwt1t09OLsDSwBzjFRaCO9HlMA0GCSqG
SIb3DQEBCwUAA4IBAQA3luwXgswVK1sVAPS4w0ES8tWglaMCl+QnFohRYrws0LjN
kYx6v0Bt6nBvlAJqSZ2GeUky+5CoGkdfhyabt19ziuUS4th/0W/rGCbjpEAEXTKs
PWczga8mpuZLWBrmrzpiYVY89b6s52X4bcxE459SY5WhwotXB9r+tL24CbW0otBv
O9ZYiFogasspanW/Xz62ZQrAedqmcnUb6g2sgDujSeAv3NFBu8FkVbd5+XbwylL4
9dzisFH9koxcbK/ap77fbyZsauXsR3WwQcKMibJA3jugouXS4cTgqtVi/4ZaL2dj
m1l5EpHYiixBmzvwZQgQCLwAMWwfhRCCPMtW+h64
-----END CERTIFICATE-----
