Certificate:
    Data:
        Version: 3 (0x2)
        Serial Number: 268435574 (0x10000076)
    Signature Algorithm: sha256WithRSAEncryption
        Issuer: CN=SRK4_sha256_1024_65537_v3_ca
        Validity
            Not Before: Mar  7 15:15:47 2018 GMT
            Not After : Mar  4 15:15:47 2028 GMT
        Subject: CN=CSF4_1_sha256_1024_65537_v3_usr
        Subject Public Key Info:
            Public Key Algorithm: rsaEncryption
                Public-Key: (1024 bit)
                Modulus:
                    00:ba:b3:d4:e9:68:f7:e5:df:f8:0e:df:77:75:1b:
                    be:bc:0c:b9:1e:dc:85:12:ab:7d:3d:f3:5f:16:e8:
                    ea:03:77:ac:04:b7:cd:85:a4:23:36:65:f7:8a:09:
                    79:e0:e0:f8:93:2a:71:74:49:a8:9f:9b:b6:7c:27:
                    bb:9c:94:b4:b3:b1:19:11:c0:c4:b1:3b:81:e8:dd:
                    6f:98:12:ac:4c:aa:32:c8:fc:b0:27:98:0b:dd:45:
                    76:00:b8:1a:fb:42:ff:0d:00:68:5c:cf:84:52:d8:
                    4f:a3:51:48:42:af:43:65:8d:cb:05:58:e4:1f:da:
                    9d:9d:80:99:d0:e2:29:1f:7d
                Exponent: 65537 (0x10001)
        X509v3 extensions:
            X509v3 Basic Constraints: 
                CA:FALSE
            Netscape Comment: 
                OpenSSL Generated Certificate
            X509v3 Subject Key Identifier: 
                ED:10:A2:F0:5E:A1:FE:E1:40:A6:B0:55:5F:9E:EA:D7:E9:63:8A:EB
            X509v3 Authority Key Identifier: 
                keyid:1C:FF:B3:4A:AB:9E:78:38:8D:BB:33:7B:19:C2:35:22:57:D9:3E:58

    Signature Algorithm: sha256WithRSAEncryption
         a1:d1:c5:00:1d:5c:e3:de:f5:92:4c:e2:1b:09:f7:c0:18:46:
         4e:f1:1b:09:1d:17:39:11:f9:32:14:f0:08:7c:ea:7c:c9:be:
         df:d8:9a:74:e4:8b:55:eb:b0:7f:3d:ca:49:f1:d2:d2:fe:38:
         a2:03:ab:a8:b2:29:10:b0:5e:66:4d:dc:78:4d:86:40:55:bb:
         74:c3:e3:a4:99:81:d7:e2:f0:9b:75:0b:09:b3:cb:08:58:c3:
         f8:e7:15:b2:1c:f0:50:2e:d5:03:35:e4:c9:35:02:47:ff:2e:
         b3:2d:d6:2d:0c:93:37:88:4b:d8:f3:da:6c:0b:4a:fe:fd:93:
         90:4c
-----BEGIN CERTIFICATE-----
MIICRTCCAa6gAwIBAgIEEAAAdjANBgkqhkiG9w0BAQsFADAnMSUwIwYDVQQDDBxT
Uks0X3NoYTI1Nl8xMDI0XzY1NTM3X3YzX2NhMB4XDTE4MDMwNzE1MTU0N1oXDTI4
MDMwNDE1MTU0N1owKjEoMCYGA1UEAwwfQ1NGNF8xX3NoYTI1Nl8xMDI0XzY1NTM3
X3YzX3VzcjCBnzANBgkqhkiG9w0BAQEFAAOBjQAwgYkCgYEAurPU6Wj35d/4Dt93
dRu+vAy5HtyFEqt9PfNfFujqA3esBLfNhaQjNmX3igl54OD4kypxdEmon5u2fCe7
nJS0s7EZEcDEsTuB6N1vmBKsTKoyyPywJ5gL3UV2ALga+0L/DQBoXM+EUthPo1FI
Qq9DZY3LBVjkH9qdnYCZ0OIpH30CAwEAAaN7MHkwCQYDVR0TBAIwADAsBglghkgB
hvhCAQ0EHxYdT3BlblNTTCBHZW5lcmF0ZWQgQ2VydGlmaWNhdGUwHQYDVR0OBBYE
FO0QovBeof7hQKawVV+e6tfpY4rrMB8GA1UdIwQYMBaAFBz/s0qrnng4jbszexnC
NSJX2T5YMA0GCSqGSIb3DQEBCwUAA4GBAKHRxQAdXOPe9ZJM4hsJ98AYRk7xGwkd
FzkR+TIU8Ah86nzJvt/YmnTki1XrsH89yknx0tL+OKIDq6iyKRCwXmZN3HhNhkBV
u3TD46SZgdfi8Jt1CwmzywhYw/jnFbIc8FAu1QM15Mk1Akf/LrMt1i0MkzeIS9jz
2mwLSv79k5BM
-----END CERTIFICATE-----
