Certificate:
    Data:
        Version: 3 (0x2)
        Serial Number: 268435598 (0x1000008e)
    Signature Algorithm: sha256WithRSAEncryption
        Issuer: CN=SRK4_sha256_4096_65537_v3_ca
        Validity
            Not Before: Mar  7 15:15:56 2018 GMT
            Not After : Mar  4 15:15:56 2028 GMT
        Subject: CN=CSF4_1_sha256_4096_65537_v3_usr
        Subject Public Key Info:
            Public Key Algorithm: rsaEncryption
                Public-Key: (4096 bit)
                Modulus:
                    00:c8:d7:d9:16:65:56:1c:4d:7d:8f:cf:78:fc:46:
                    7b:70:fb:96:45:ce:dd:e5:19:3f:16:98:ed:be:c1:
                    2e:1d:04:e2:3d:85:48:a5:5c:a2:e0:57:5b:60:16:
                    5c:b1:97:a5:7b:d9:30:82:62:bd:38:92:15:f3:77:
                    d2:4f:43:85:84:75:39:fc:23:51:e4:a7:04:c9:e2:
                    09:db:d0:c1:aa:79:02:1a:12:87:52:cf:1f:a9:99:
                    7e:dc:13:08:30:33:33:f1:68:b2:2f:e2:4b:1a:dd:
                    a4:f1:cc:e5:af:a2:a6:f8:69:7e:74:5e:05:80:7d:
                    d3:ff:1a:7a:12:20:0b:71:6c:00:ae:64:ef:cb:0e:
                    a3:15:b8:68:95:8a:28:d5:92:e5:be:6c:ae:cb:00:
                    45:5c:5d:8e:09:8f:67:20:5f:c8:4b:9b:8b:40:7e:
                    35:1e:10:c9:d7:b7:37:d9:72:68:de:7a:c9:61:81:
                    d5:15:8e:03:14:ab:fb:31:9f:06:45:7f:19:7a:35:
                    de:8b:ec:68:4d:bd:c8:87:5a:32:df:a8:71:35:0c:
                    1e:01:08:3b:10:2b:96:51:98:74:e2:28:65:a3:43:
                    4e:d7:92:c0:c5:ac:39:02:38:de:bc:4b:88:ed:90:
                    35:9e:d9:0f:61:f2:65:46:8b:a5:bf:40:9f:9c:f8:
                    83:e2:64:b7:d6:30:9a:94:e8:70:2c:dd:b3:ad:04:
                    61:2f:9e:93:9f:58:bc:fe:86:95:5b:7e:53:f7:43:
                    45:f9:65:7d:91:9f:5d:6e:5b:21:9f:3c:83:07:05:
                    0a:9c:97:20:5d:87:5f:ee:ce:93:76:a6:06:d4:53:
                    8e:40:5d:f8:5b:dd:dc:fe:10:de:12:1e:e4:b3:80:
                    09:76:de:26:80:b3:3f:6a:d4:b0:70:fc:84:ea:7f:
                    fd:e3:ad:84:83:4c:d4:9a:08:15:40:de:d2:a1:73:
                    7c:f6:a1:0c:49:d8:3d:fb:e2:a1:74:7d:69:2d:08:
                    d8:e4:da:fe:59:49:51:5b:2b:3c:3f:fb:28:32:fe:
                    bb:cd:bf:6d:c2:f4:0a:33:56:cb:50:d2:e0:26:a4:
                    73:ad:56:04:43:75:4f:b9:a5:62:6b:4d:dc:04:ab:
                    b6:ee:76:64:d6:c6:9e:81:94:e1:e3:cf:3b:4f:1b:
                    43:a6:05:88:7c:ac:ef:2a:ee:43:96:e3:b9:e8:d2:
                    e7:08:59:38:91:a0:49:7f:11:12:4a:ab:d6:fb:df:
                    f5:16:da:b3:7a:db:23:05:6e:2d:2b:e8:b6:53:b9:
                    ee:c7:df:54:30:3e:7b:16:00:3c:11:d1:5f:cf:43:
                    74:2e:60:e0:8e:8b:6a:8f:24:0f:83:e6:bf:9f:d9:
                    71:b3:17
                Exponent: 65537 (0x10001)
        X509v3 extensions:
            X509v3 Basic Constraints: 
                CA:FALSE
            Netscape Comment: 
                OpenSSL Generated Certificate
            X509v3 Subject Key Identifier: 
                49:45:FA:4F:38:3E:A4:A9:D4:28:30:3A:A1:A9:F5:28:56:29:CB:13
            X509v3 Authority Key Identifier: 
                keyid:D0:C7:3C:ED:1A:79:37:15:CA:A7:EB:43:16:8E:8D:B7:78:5C:11:00

    Signature Algorithm: sha256WithRSAEncryption
         d2:e4:11:fa:e5:92:54:c3:44:e8:4a:4b:39:1f:6e:a9:67:bb:
         b4:f4:f8:35:89:4e:a7:10:a9:f4:54:70:94:11:c4:0c:97:71:
         99:5b:04:03:a4:82:51:32:7e:d3:67:05:08:63:c1:31:0e:f9:
         be:8e:a9:a0:5f:7b:94:2e:3e:9d:1a:0f:9b:cd:62:d2:f6:65:
         0d:24:4a:30:c8:9f:98:2a:30:73:f4:27:b4:b7:8e:d8:65:7b:
         46:33:48:f2:05:01:18:cc:e3:1d:b3:8a:a5:96:82:2d:d6:24:
         75:de:ac:84:e4:48:33:a3:fd:ec:29:78:4c:23:47:4d:6f:09:
         9d:d9:25:7a:d5:5c:b2:a5:0a:7c:62:2d:5b:09:06:a9:55:90:
         02:ef:df:26:97:85:e3:d7:ea:af:4d:06:94:03:30:61:65:55:
         05:dd:00:a1:74:5b:3f:cf:d2:36:1a:39:e5:dd:63:f5:ed:7e:
         84:23:ae:5f:8c:b7:9f:78:67:df:b8:2b:c2:d9:50:5c:77:45:
         a3:10:25:c6:e4:02:25:85:da:4b:28:b5:70:7a:a8:21:3e:b9:
         1c:fa:75:97:99:63:f6:50:7a:06:da:94:3a:b4:88:38:d9:29:
         40:a0:d4:72:d1:2f:30:5d:8c:6f:73:fd:a3:49:7f:a6:1e:db:
         b0:c4:04:c3:6b:ca:57:2b:d0:39:f3:6b:a9:81:43:8a:d4:c6:
         1a:d5:e7:ad:e4:c2:20:c9:3c:ce:f9:c6:12:cd:b0:46:63:d0:
         e7:3a:13:83:66:1e:9c:b1:cb:c4:4e:72:8e:78:aa:e5:fb:87:
         e7:6d:ec:44:b4:b4:75:77:56:55:db:88:3b:01:a8:2f:0a:c6:
         fd:64:33:27:13:9b:a2:73:45:44:3b:0e:79:6a:d5:e7:82:77:
         c3:0d:6e:66:1a:3c:64:80:6e:e1:f5:dd:d3:38:4a:99:3a:ed:
         d8:d0:36:17:24:70:e7:3e:50:ee:ee:33:38:09:14:58:66:64:
         8e:a3:89:09:b3:7c:f4:9d:20:af:e2:b7:3a:37:24:00:d2:68:
         97:14:d0:e5:00:d7:8a:49:99:b3:79:bb:c3:43:a9:bd:b1:86:
         8a:0d:d4:db:7c:ce:77:53:56:96:ec:da:ad:37:dd:52:34:ad:
         50:ce:aa:1f:8e:7e:28:ee:52:e6:bc:8f:50:0a:84:3e:5c:64:
         a3:1b:fe:6c:72:1c:b2:cb:91:e5:9b:5e:fe:6c:ba:c6:87:57:
         54:2a:00:1d:31:45:04:b3:f2:cd:75:86:e1:ec:f8:53:5c:d7:
         6e:2e:36:dd:f1:62:9f:89:b0:94:9a:ff:82:57:d4:02:a4:a5:
         2b:3b:b3:0a:56:d8:35:20
-----BEGIN CERTIFICATE-----
MIIFSjCCAzKgAwIBAgIEEAAAjjANBgkqhkiG9w0BAQsFADAnMSUwIwYDVQQDDBxT
Uks0X3NoYTI1Nl80MDk2XzY1NTM3X3YzX2NhMB4XDTE4MDMwNzE1MTU1NloXDTI4
MDMwNDE1MTU1NlowKjEoMCYGA1UEAwwfQ1NGNF8xX3NoYTI1Nl80MDk2XzY1NTM3
X3YzX3VzcjCCAiIwDQYJKoZIhvcNAQEBBQADggIPADCCAgoCggIBAMjX2RZlVhxN
fY/PePxGe3D7lkXO3eUZPxaY7b7BLh0E4j2FSKVcouBXW2AWXLGXpXvZMIJivTiS
FfN30k9DhYR1OfwjUeSnBMniCdvQwap5AhoSh1LPH6mZftwTCDAzM/Fosi/iSxrd
pPHM5a+ipvhpfnReBYB90/8aehIgC3FsAK5k78sOoxW4aJWKKNWS5b5srssARVxd
jgmPZyBfyEubi0B+NR4Qyde3N9lyaN56yWGB1RWOAxSr+zGfBkV/GXo13ovsaE29
yIdaMt+ocTUMHgEIOxArllGYdOIoZaNDTteSwMWsOQI43rxLiO2QNZ7ZD2HyZUaL
pb9An5z4g+Jkt9YwmpTocCzds60EYS+ek59YvP6GlVt+U/dDRfllfZGfXW5bIZ88
gwcFCpyXIF2HX+7Ok3amBtRTjkBd+Fvd3P4Q3hIe5LOACXbeJoCzP2rUsHD8hOp/
/eOthINM1JoIFUDe0qFzfPahDEnYPfvioXR9aS0I2OTa/llJUVsrPD/7KDL+u82/
bcL0CjNWy1DS4Cakc61WBEN1T7mlYmtN3ASrtu52ZNbGnoGU4ePPO08bQ6YFiHys
7yruQ5bjuejS5whZOJGgSX8REkqr1vvf9Rbas3rbIwVuLSvotlO57sffVDA+exYA
PBHRX89DdC5g4I6Lao8kD4Pmv5/ZcbMXAgMBAAGjezB5MAkGA1UdEwQCMAAwLAYJ
YIZIAYb4QgENBB8WHU9wZW5TU0wgR2VuZXJhdGVkIENlcnRpZmljYXRlMB0GA1Ud
DgQWBBRJRfpPOD6kqdQoMDqhqfUoVinLEzAfBgNVHSMEGDAWgBTQxzztGnk3Fcqn
60MWjo23eFwRADANBgkqhkiG9w0BAQsFAAOCAgEA0uQR+uWSVMNE6EpLOR9uqWe7
tPT4NYlOpxCp9FRwlBHEDJdxmVsEA6SCUTJ+02cFCGPBMQ75vo6poF97lC4+nRoP
m81i0vZlDSRKMMifmCowc/QntLeO2GV7RjNI8gUBGMzjHbOKpZaCLdYkdd6shORI
M6P97Cl4TCNHTW8JndkletVcsqUKfGItWwkGqVWQAu/fJpeF49fqr00GlAMwYWVV
Bd0AoXRbP8/SNho55d1j9e1+hCOuX4y3n3hn37grwtlQXHdFoxAlxuQCJYXaSyi1
cHqoIT65HPp1l5lj9lB6BtqUOrSIONkpQKDUctEvMF2Mb3P9o0l/ph7bsMQEw2vK
VyvQOfNrqYFDitTGGtXnreTCIMk8zvnGEs2wRmPQ5zoTg2YenLHLxE5yjniq5fuH
523sRLS0dXdWVduIOwGoLwrG/WQzJxObonNFRDsOeWrV54J3ww1uZho8ZIBu4fXd
0zhKmTrt2NA2FyRw5z5Q7u4zOAkUWGZkjqOJCbN89J0gr+K3OjckANJolxTQ5QDX
ikmZs3m7w0OpvbGGig3U23zOd1NWluzarTfdUjStUM6qH45+KO5S5ryPUAqEPlxk
oxv+bHIcssuR5Zte/my6xodXVCoAHTFFBLPyzXWG4ez4U1zXbi423fFin4mwlJr/
glfUAqSlKzuzClbYNSA=
-----END CERTIFICATE-----
