Certificate:
    Data:
        Version: 3 (0x2)
        Serial Number: 268435578 (0x1000007a)
    Signature Algorithm: sha256WithRSAEncryption
        Issuer: CN=SRK1_sha256_2048_65537_v3_ca
        Validity
            Not Before: Mar  7 15:15:48 2018 GMT
            Not After : Mar  4 15:15:48 2028 GMT
        Subject: CN=IMG1_1_sha256_2048_65537_v3_usr
        Subject Public Key Info:
            Public Key Algorithm: rsaEncryption
                Public-Key: (2048 bit)
                Modulus:
                    00:b4:46:73:90:55:58:2b:80:7c:a2:80:50:c6:c4:
                    38:ef:db:10:41:81:9c:5c:22:47:e0:87:c2:29:fe:
                    ee:72:85:46:42:15:4f:34:64:86:b2:51:65:47:e3:
                    ea:68:e8:f6:d5:d1:ec:43:7d:16:40:20:5c:d0:a5:
                    b9:01:f8:9d:8f:f5:0e:4b:40:b3:c2:48:bc:5a:bb:
                    ca:5b:c4:0a:33:3a:75:6b:bd:17:30:d1:7c:36:13:
                    28:87:d7:86:e0:f5:77:bc:98:21:40:09:3d:0b:e5:
                    da:09:f9:20:0d:91:5e:b6:a5:21:1c:39:5b:20:b8:
                    89:fe:78:4d:e7:09:e5:c1:7b:01:a6:05:19:83:a9:
                    3a:d2:25:85:74:1c:12:39:f4:f3:52:2f:1e:82:33:
                    20:7a:b3:85:ae:68:5d:7d:fd:37:be:3e:2c:d3:49:
                    91:32:dd:1f:7a:b2:25:d3:7f:12:ff:0c:34:60:6c:
                    20:dc:52:e8:d7:84:7f:a0:ee:a0:a6:7b:b0:05:4b:
                    a3:44:11:d5:0a:0d:92:84:2b:93:fc:98:65:a0:58:
                    ba:0b:58:0b:1e:6a:bd:6d:35:93:eb:1a:e2:39:88:
                    5b:95:1e:65:51:7e:af:df:e3:cf:f0:f5:d0:4f:b9:
                    dd:37:f8:2c:98:f5:b3:6a:22:fe:c1:82:b2:3d:01:
                    ff:d1
                Exponent: 65537 (0x10001)
        X509v3 extensions:
            X509v3 Basic Constraints: 
                CA:FALSE
            Netscape Comment: 
                OpenSSL Generated Certificate
            X509v3 Subject Key Identifier: 
                A7:4D:BF:A7:F5:20:8A:25:97:6A:0D:CF:8D:5C:D2:58:41:76:58:C2
            X509v3 Authority Key Identifier: 
                keyid:D8:7E:22:7E:B4:84:CC:F8:04:B0:B5:19:5E:13:73:E3:8B:6E:E6:48

    Signature Algorithm: sha256WithRSAEncryption
         09:43:39:ab:b6:00:d7:6e:3b:49:ec:3f:20:c8:d0:b4:5b:cd:
         10:6e:e5:8a:51:c1:7d:ed:a3:a2:e6:7a:27:87:cd:0e:93:b1:
         8f:5d:e1:98:01:9e:ba:93:ec:84:ec:c6:47:2f:4e:8b:9e:1b:
         88:eb:df:e2:f3:f8:a4:e3:83:ae:2d:e7:5d:0f:cd:3b:0a:89:
         f3:bb:81:51:26:d0:ec:be:de:d1:37:25:fa:45:e5:ef:70:80:
         25:42:81:35:42:1e:a4:d9:b9:fb:44:15:62:0a:f3:30:cd:99:
         fb:e1:36:da:00:42:40:7d:a5:ce:da:c9:89:73:f5:b2:3d:90:
         ad:44:01:ee:c6:d6:ac:28:55:b1:72:27:78:3e:02:2d:ca:2b:
         fa:07:4b:40:10:7d:7e:e6:d0:79:e1:77:c1:d4:04:68:d0:81:
         ce:7c:14:f6:cf:6b:21:f4:a7:93:f5:1f:8a:85:54:e7:0b:79:
         4d:54:ff:92:df:5a:5d:07:8e:68:93:58:bb:e4:47:e0:d7:cd:
         7e:71:29:c6:77:41:4a:a2:20:f5:5d:6a:fd:b7:34:a4:d4:14:
         28:c2:4a:fe:ed:7b:ae:f1:de:f8:2e:ee:6d:05:4f:26:45:53:
         86:13:5b:71:0a:ed:1e:ef:1f:24:c8:71:c3:3a:1f:cb:cd:4f:
         51:8a:8e:92
-----BEGIN CERTIFICATE-----
MIIDSjCCAjKgAwIBAgIEEAAAejANBgkqhkiG9w0BAQsFADAnMSUwIwYDVQQDDBxT
UksxX3NoYTI1Nl8yMDQ4XzY1NTM3X3YzX2NhMB4XDTE4MDMwNzE1MTU0OFoXDTI4
MDMwNDE1MTU0OFowKjEoMCYGA1UEAwwfSU1HMV8xX3NoYTI1Nl8yMDQ4XzY1NTM3
X3YzX3VzcjCCASIwDQYJKoZIhvcNAQEBBQADggEPADCCAQoCggEBALRGc5BVWCuA
fKKAUMbEOO/bEEGBnFwiR+CHwin+7nKFRkIVTzRkhrJRZUfj6mjo9tXR7EN9FkAg
XNCluQH4nY/1DktAs8JIvFq7ylvECjM6dWu9FzDRfDYTKIfXhuD1d7yYIUAJPQvl
2gn5IA2RXralIRw5WyC4if54TecJ5cF7AaYFGYOpOtIlhXQcEjn081IvHoIzIHqz
ha5oXX39N74+LNNJkTLdH3qyJdN/Ev8MNGBsINxS6NeEf6DuoKZ7sAVLo0QR1QoN
koQrk/yYZaBYugtYCx5qvW01k+sa4jmIW5UeZVF+r9/jz/D10E+53Tf4LJj1s2oi
/sGCsj0B/9ECAwEAAaN7MHkwCQYDVR0TBAIwADAsBglghkgBhvhCAQ0EHxYdT3Bl
blNTTCBHZW5lcmF0ZWQgQ2VydGlmaWNhdGUwHQYDVR0OBBYEFKdNv6f1IIoll2oN
z41c0lhBdljCMB8GA1UdIwQYMBaAFNh+In60hMz4BLC1GV4Tc+OLbuZIMA0GCSqG
SIb3DQEBCwUAA4IBAQAJQzmrtgDXbjtJ7D8gyNC0W80QbuWKUcF97aOi5nonh80O
k7GPXeGYAZ66k+yE7MZHL06LnhuI69/i8/ik44OuLeddD807Conzu4FRJtDsvt7R
NyX6ReXvcIAlQoE1Qh6k2bn7RBViCvMwzZn74TbaAEJAfaXO2smJc/WyPZCtRAHu
xtasKFWxcid4PgItyiv6B0tAEH1+5tB54XfB1ARo0IHOfBT2z2sh9KeT9R+KhVTn
C3lNVP+S31pdB45ok1i75Efg181+cSnGd0FKoiD1XWr9tzSk1BQowkr+7Xuu8d74
Lu5tBU8mRVOGE1txCu0e7x8kyHHDOh/LzU9Rio6S
-----END CERTIFICATE-----
