Certificate:
    Data:
        Version: 3 (0x2)
        Serial Number: 268435566 (0x1000006e)
    Signature Algorithm: sha256WithRSAEncryption
        Issuer: CN=SRK1_sha256_1024_65537_v3_ca
        Validity
            Not Before: Mar  7 15:15:47 2018 GMT
            Not After : Mar  4 15:15:47 2028 GMT
        Subject: CN=IMG1_1_sha256_1024_65537_v3_usr
        Subject Public Key Info:
            Public Key Algorithm: rsaEncryption
                Public-Key: (1024 bit)
                Modulus:
                    00:e1:17:82:24:08:a1:c5:b5:5a:f9:bf:bf:45:9d:
                    a2:4d:08:cd:86:19:71:da:77:7d:9a:36:a2:bb:f0:
                    0e:1b:2d:30:da:2e:fd:47:92:58:76:1e:41:37:92:
                    1b:81:d8:3f:b4:6a:49:53:10:54:62:29:c9:f5:51:
                    d4:bf:99:ae:d4:7a:41:f1:8a:50:e4:0a:58:20:40:
                    d4:5c:69:c3:1c:e9:a0:95:84:7f:9b:29:ba:a2:3c:
                    5b:a0:4b:2e:02:bf:40:2e:97:e7:af:e7:51:0b:3f:
                    a8:fe:6c:ae:5e:05:bd:6f:82:d9:25:b9:f5:5a:3c:
                    52:81:46:2d:59:68:36:48:5f
                Exponent: 65537 (0x10001)
        X509v3 extensions:
            X509v3 Basic Constraints: 
                CA:FALSE
            Netscape Comment: 
                OpenSSL Generated Certificate
            X509v3 Subject Key Identifier: 
                BC:AB:32:3A:97:09:B0:CB:C9:56:33:EA:6D:63:73:06:6B:28:9B:F7
            X509v3 Authority Key Identifier: 
                keyid:29:33:0D:C4:2A:A7:BA:C6:A5:E1:1E:CB:32:7A:53:DC:D3:47:DC:F3

    Signature Algorithm: sha256WithRSAEncryption
         5b:40:1b:68:d3:ce:8d:50:26:2b:d6:98:c8:43:9f:85:a6:4e:
         ae:4a:ec:a8:4d:9d:bc:48:3d:a2:2d:41:23:9b:51:4b:ce:a7:
         51:e3:54:f9:e1:da:fa:71:2f:5c:61:1d:f6:e1:97:31:c6:1a:
         85:5a:2d:ab:9c:7e:20:48:74:5e:47:71:09:b8:77:ad:da:55:
         63:31:58:42:1c:6d:0e:a6:f7:20:a9:67:42:ae:9d:f1:1b:67:
         b3:45:7a:58:d0:6c:94:89:ec:9a:e7:77:8f:eb:64:36:bc:5a:
         96:3d:ad:ae:48:f3:cd:e2:73:18:f9:60:98:68:3c:60:7e:cc:
         0d:51
-----BEGIN CERTIFICATE-----
MIICRTCCAa6gAwIBAgIEEAAAbjANBgkqhkiG9w0BAQsFADAnMSUwIwYDVQQDDBxT
UksxX3NoYTI1Nl8xMDI0XzY1NTM3X3YzX2NhMB4XDTE4MDMwNzE1MTU0N1oXDTI4
MDMwNDE1MTU0N1owKjEoMCYGA1UEAwwfSU1HMV8xX3NoYTI1Nl8xMDI0XzY1NTM3
X3YzX3VzcjCBnzANBgkqhkiG9w0BAQEFAAOBjQAwgYkCgYEA4ReCJAihxbVa+b+/
RZ2iTQjNhhlx2nd9mjaiu/AOGy0w2i79R5JYdh5BN5Ibgdg/tGpJUxBUYinJ9VHU
v5mu1HpB8YpQ5ApYIEDUXGnDHOmglYR/mym6ojxboEsuAr9ALpfnr+dRCz+o/myu
XgW9b4LZJbn1WjxSgUYtWWg2SF8CAwEAAaN7MHkwCQYDVR0TBAIwADAsBglghkgB
hvhCAQ0EHxYdT3BlblNTTCBHZW5lcmF0ZWQgQ2VydGlmaWNhdGUwHQYDVR0OBBYE
FLyrMjqXCbDLyVYz6m1jcwZrKJv3MB8GA1UdIwQYMBaAFCkzDcQqp7rGpeEeyzJ6
U9zTR9zzMA0GCSqGSIb3DQEBCwUAA4GBAFtAG2jTzo1QJivWmMhDn4WmTq5K7KhN
nbxIPaItQSObUUvOp1HjVPnh2vpxL1xhHfbhlzHGGoVaLaucfiBIdF5HcQm4d63a
VWMxWEIcbQ6m9yCpZ0KunfEbZ7NFeljQbJSJ7Jrnd4/rZDa8WpY9ra5I883icxj5
YJhoPGB+zA1R
-----END CERTIFICATE-----
