Certificate:
    Data:
        Version: 3 (0x2)
        Serial Number: 268435593 (0x10000089)
    Signature Algorithm: sha256WithRSAEncryption
        Issuer: CN=SRK2_sha256_4096_65537_v3_ca
        Validity
            Not Before: Mar  7 15:15:53 2018 GMT
            Not After : Mar  4 15:15:53 2028 GMT
        Subject: CN=IMG2_1_sha256_4096_65537_v3_usr
        Subject Public Key Info:
            Public Key Algorithm: rsaEncryption
                Public-Key: (4096 bit)
                Modulus:
                    00:b9:76:59:99:18:e0:6b:04:29:19:30:1a:59:cb:
                    05:a3:65:0e:2b:22:a6:ef:39:6a:c4:8e:5c:8f:ac:
                    cd:e1:0b:96:0f:47:c8:2b:5c:4f:7c:41:38:b0:96:
                    11:43:03:6c:c5:e0:37:b1:37:8b:2c:2f:60:1c:00:
                    5c:e7:c8:00:41:5f:8f:7b:74:80:01:de:9b:c3:8f:
                    c2:69:85:dd:98:58:09:01:14:62:29:8f:97:68:9b:
                    a5:9d:43:0e:38:ae:b4:5e:0e:d6:bb:a1:42:13:db:
                    44:30:4f:24:f3:58:96:8b:8d:17:a2:d5:37:6d:5f:
                    0f:ab:26:43:1f:20:39:99:05:a3:e8:0d:03:59:8c:
                    09:27:3b:fd:ae:33:f8:c3:e1:ce:6d:d0:9d:cd:9b:
                    81:01:17:35:b2:55:8d:b7:f7:d7:0c:fb:d5:d3:a4:
                    bc:3f:5e:eb:ac:75:eb:be:83:7a:33:44:a1:a3:52:
                    b7:96:6b:3c:8e:f1:37:3a:58:3a:e6:e5:bb:12:dc:
                    b1:43:13:6b:2f:51:55:39:5b:a4:9e:bd:09:28:75:
                    a1:44:a0:4e:ed:ea:49:91:f9:50:13:9f:ad:78:05:
                    08:82:e5:9e:e0:8c:58:bf:3b:81:bf:b6:72:98:d8:
                    39:98:c6:99:f7:29:19:58:4c:82:1d:e9:47:57:83:
                    77:e7:e8:33:bf:28:14:5c:8a:73:29:98:1f:59:f2:
                    9c:23:ce:f1:f6:b0:88:09:56:f3:cf:86:f3:51:10:
                    fe:4c:0f:44:4e:46:55:b3:26:19:e0:ff:94:35:6b:
                    a5:e1:2b:a8:3c:1b:d4:65:04:3e:94:9c:34:85:a4:
                    04:a8:6b:80:2e:df:30:59:3e:7f:55:90:56:3e:ef:
                    9e:b2:1d:09:f9:f2:83:61:27:f4:82:f3:bd:fd:b3:
                    44:59:8b:23:f2:91:3a:a9:78:ed:f7:5e:c2:44:2f:
                    a6:fb:60:ae:f9:fa:23:ac:8f:11:ff:4b:4a:82:22:
                    f9:79:68:90:9a:5c:cd:e9:5e:4c:20:7e:9e:91:a9:
                    39:24:b5:02:9b:92:62:64:b4:fa:d8:96:8e:57:ed:
                    03:eb:08:de:7b:33:3f:ec:8a:ec:69:64:d6:e4:3b:
                    61:ee:ee:1e:8f:c3:1e:8e:e0:7a:76:52:2a:30:3d:
                    99:81:61:2a:07:3f:2a:9e:cb:22:11:fd:8a:b8:61:
                    1c:de:84:19:aa:c1:99:b3:46:6c:c3:79:3f:8b:44:
                    6c:3b:fc:47:21:bf:96:a5:9f:12:ed:4f:9c:75:0d:
                    01:f2:1f:65:43:21:5c:f5:bf:76:12:7f:5e:db:01:
                    90:ba:f6:93:bf:83:bf:27:91:51:49:66:cc:65:b4:
                    72:a8:af
                Exponent: 65537 (0x10001)
        X509v3 extensions:
            X509v3 Basic Constraints: 
                CA:FALSE
            Netscape Comment: 
                OpenSSL Generated Certificate
            X509v3 Subject Key Identifier: 
                60:06:5E:7A:E9:AC:A5:9A:FD:E7:B2:7A:3E:71:77:E5:4E:43:71:7D
            X509v3 Authority Key Identifier: 
                keyid:60:B5:A1:43:C3:C8:78:C9:B7:A5:B3:4B:56:A4:F2:17:D3:A7:3A:A0

    Signature Algorithm: sha256WithRSAEncryption
         2b:0e:02:42:f0:d0:c4:89:2c:56:b2:b6:c3:bc:66:55:ae:7b:
         bc:b8:d1:0e:31:a1:e6:ce:bf:27:c1:a0:a7:5b:79:32:9c:d6:
         68:9b:70:74:fb:00:ca:5f:4c:11:33:db:9f:89:52:11:ac:0c:
         08:ee:68:84:8d:9d:73:36:94:49:bc:72:b2:c0:03:b4:1e:e2:
         d0:05:db:64:e6:27:8a:f5:8d:bb:02:69:45:62:e6:a7:fd:ed:
         87:e7:e4:19:66:32:8c:05:ce:5b:b3:20:55:55:90:bd:95:36:
         5f:5b:6b:7d:42:64:09:75:31:40:a7:05:d1:4c:31:e1:9d:dc:
         2f:52:aa:87:14:4b:94:30:02:99:68:b7:e7:95:82:cf:ba:58:
         24:82:ed:77:8c:bd:90:87:27:a2:c6:39:3f:d3:b9:47:44:b7:
         26:77:63:4f:8c:37:5c:e5:93:69:80:00:63:60:60:27:aa:ad:
         30:db:d8:41:8f:7a:6b:29:bf:55:ae:03:23:0e:ff:d9:f8:e1:
         6c:a5:6d:80:c1:b8:7c:0a:f6:02:f8:1e:84:e5:6d:00:76:b8:
         f2:d5:5f:8c:1b:f2:2e:cb:4f:17:5c:b1:35:f2:95:20:3a:c1:
         a9:ba:93:a4:13:bf:c2:76:01:ca:0f:d4:ed:80:19:c4:f8:ce:
         97:db:4c:21:83:b3:1e:a3:93:d0:3c:94:20:b6:c3:b3:e5:22:
         c6:80:82:f2:1a:6f:96:e1:e1:42:09:05:13:39:ca:3d:25:b0:
         9a:eb:1a:25:b8:21:2a:f1:04:94:bd:bd:c7:50:75:36:e7:2f:
         df:29:47:c7:93:8f:a6:ee:0f:54:13:32:67:80:25:5a:ca:78:
         77:42:ef:c5:36:41:25:60:03:d1:ae:9e:47:5e:d7:50:50:1a:
         32:eb:62:0e:f2:ca:bc:08:10:92:e1:33:60:d3:c5:3c:89:12:
         5e:0b:3f:ad:d3:77:66:bc:da:88:cd:58:b4:0b:7f:cd:5b:88:
         0b:17:de:fc:de:df:e5:bd:8e:1b:14:18:e1:1b:72:69:d0:29:
         84:ad:fb:62:c4:da:3f:83:5b:99:b9:c2:eb:02:57:36:d1:7a:
         3e:cc:f7:97:2b:5b:1f:61:95:07:8f:76:7a:b7:71:26:f9:e4:
         c9:85:e2:9a:20:f5:85:ef:eb:01:e8:c7:6a:ac:f5:8c:dd:7e:
         11:a1:a3:06:16:3d:89:89:0d:4c:28:8d:3f:33:89:ea:cc:0a:
         23:78:01:c9:67:e8:f4:a3:53:42:71:4d:6d:bf:ce:c4:ad:12:
         40:1b:31:28:ce:d2:72:dc:81:51:60:64:9a:a1:33:14:6f:cf:
         aa:a1:ef:35:01:23:25:7e
-----BEGIN CERTIFICATE-----
MIIFSjCCAzKgAwIBAgIEEAAAiTANBgkqhkiG9w0BAQsFADAnMSUwIwYDVQQDDBxT
UksyX3NoYTI1Nl80MDk2XzY1NTM3X3YzX2NhMB4XDTE4MDMwNzE1MTU1M1oXDTI4
MDMwNDE1MTU1M1owKjEoMCYGA1UEAwwfSU1HMl8xX3NoYTI1Nl80MDk2XzY1NTM3
X3YzX3VzcjCCAiIwDQYJKoZIhvcNAQEBBQADggIPADCCAgoCggIBALl2WZkY4GsE
KRkwGlnLBaNlDisipu85asSOXI+szeELlg9HyCtcT3xBOLCWEUMDbMXgN7E3iywv
YBwAXOfIAEFfj3t0gAHem8OPwmmF3ZhYCQEUYimPl2ibpZ1DDjiutF4O1ruhQhPb
RDBPJPNYlouNF6LVN21fD6smQx8gOZkFo+gNA1mMCSc7/a4z+MPhzm3Qnc2bgQEX
NbJVjbf31wz71dOkvD9e66x1676DejNEoaNSt5ZrPI7xNzpYOubluxLcsUMTay9R
VTlbpJ69CSh1oUSgTu3qSZH5UBOfrXgFCILlnuCMWL87gb+2cpjYOZjGmfcpGVhM
gh3pR1eDd+foM78oFFyKcymYH1nynCPO8fawiAlW88+G81EQ/kwPRE5GVbMmGeD/
lDVrpeErqDwb1GUEPpScNIWkBKhrgC7fMFk+f1WQVj7vnrIdCfnyg2En9ILzvf2z
RFmLI/KROql47fdewkQvpvtgrvn6I6yPEf9LSoIi+XlokJpczeleTCB+npGpOSS1
ApuSYmS0+tiWjlftA+sI3nszP+yK7Glk1uQ7Ye7uHo/DHo7genZSKjA9mYFhKgc/
Kp7LIhH9irhhHN6EGarBmbNGbMN5P4tEbDv8RyG/lqWfEu1PnHUNAfIfZUMhXPW/
dhJ/XtsBkLr2k7+DvyeRUUlmzGW0cqivAgMBAAGjezB5MAkGA1UdEwQCMAAwLAYJ
YIZIAYb4QgENBB8WHU9wZW5TU0wgR2VuZXJhdGVkIENlcnRpZmljYXRlMB0GA1Ud
DgQWBBRgBl566aylmv3nsno+cXflTkNxfTAfBgNVHSMEGDAWgBRgtaFDw8h4ybel
s0tWpPIX06c6oDANBgkqhkiG9w0BAQsFAAOCAgEAKw4CQvDQxIksVrK2w7xmVa57
vLjRDjGh5s6/J8Ggp1t5MpzWaJtwdPsAyl9METPbn4lSEawMCO5ohI2dczaUSbxy
ssADtB7i0AXbZOYnivWNuwJpRWLmp/3th+fkGWYyjAXOW7MgVVWQvZU2X1trfUJk
CXUxQKcF0Uwx4Z3cL1KqhxRLlDACmWi355WCz7pYJILtd4y9kIcnosY5P9O5R0S3
JndjT4w3XOWTaYAAY2BgJ6qtMNvYQY96aym/Va4DIw7/2fjhbKVtgMG4fAr2Avge
hOVtAHa48tVfjBvyLstPF1yxNfKVIDrBqbqTpBO/wnYByg/U7YAZxPjOl9tMIYOz
HqOT0DyUILbDs+UixoCC8hpvluHhQgkFEznKPSWwmusaJbghKvEElL29x1B1Nucv
3ylHx5OPpu4PVBMyZ4AlWsp4d0LvxTZBJWAD0a6eR17XUFAaMutiDvLKvAgQkuEz
YNPFPIkSXgs/rdN3ZrzaiM1YtAt/zVuICxfe/N7f5b2OGxQY4RtyadAphK37YsTa
P4NbmbnC6wJXNtF6Psz3lytbH2GVB492erdxJvnkyYXimiD1he/rAejHaqz1jN1+
EaGjBhY9iYkNTCiNPzOJ6swKI3gByWfo9KNTQnFNbb/OxK0SQBsxKM7SctyBUWBk
mqEzFG/PqqHvNQEjJX4=
-----END CERTIFICATE-----
