Certificate:
    Data:
        Version: 3 (0x2)
        Serial Number: 268435584 (0x10000080)
    Signature Algorithm: sha256WithRSAEncryption
        Issuer: CN=SRK3_sha256_2048_65537_v3_ca
        Validity
            Not Before: Mar  7 15:15:48 2018 GMT
            Not After : Mar  4 15:15:48 2028 GMT
        Subject: CN=IMG3_1_sha256_2048_65537_v3_usr
        Subject Public Key Info:
            Public Key Algorithm: rsaEncryption
                Public-Key: (2048 bit)
                Modulus:
                    00:c5:ed:91:46:cb:6d:9a:35:48:ac:b6:44:c8:4b:
                    87:eb:6f:02:1d:cd:83:7e:b9:2c:ad:a3:ce:e9:37:
                    3d:5f:ee:3f:5e:6e:09:46:e6:8f:b5:d7:41:fe:24:
                    5c:77:ee:c6:25:8a:53:86:ae:94:8d:b4:58:f8:16:
                    e9:bf:63:25:3c:59:52:1e:9a:c2:76:f2:a6:ef:89:
                    71:9b:79:76:08:5b:8b:3e:d4:0f:59:27:28:78:f1:
                    b3:69:d3:23:dd:0e:1f:9d:bc:b5:ad:31:05:71:a5:
                    99:b1:ca:bb:cf:7c:26:63:04:2b:73:5d:15:02:1c:
                    b6:3a:e3:99:54:fa:9a:37:d7:9c:ad:dd:6e:36:2f:
                    97:10:81:ad:cc:98:c9:fb:65:79:8f:c7:7e:b4:b0:
                    ad:89:74:22:7b:5d:e6:75:4c:4f:0c:15:7b:d6:66:
                    82:63:56:23:7b:10:fc:48:33:21:f2:77:73:92:7d:
                    fd:42:5c:25:7c:3e:e3:b0:78:f7:99:e7:3e:0a:13:
                    61:82:3f:1f:a7:85:0c:8e:29:03:1b:5a:77:12:f8:
                    4b:e6:cd:dc:e8:4a:ec:50:72:62:df:f6:a1:34:e1:
                    6f:f3:df:3b:80:11:51:e7:f8:6d:8a:d3:46:89:cd:
                    35:94:a7:af:b5:48:3d:19:cb:e9:e1:35:30:5e:df:
                    3a:db
                Exponent: 65537 (0x10001)
        X509v3 extensions:
            X509v3 Basic Constraints: 
                CA:FALSE
            Netscape Comment: 
                OpenSSL Generated Certificate
            X509v3 Subject Key Identifier: 
                9A:C9:6D:4A:F7:E2:67:D5:4D:13:79:47:3E:21:67:2D:7A:E8:BA:58
            X509v3 Authority Key Identifier: 
                keyid:C2:08:BB:0B:75:B7:4F:4E:2E:C0:D2:C0:1C:E3:15:16:82:3B:D1:E5

    Signature Algorithm: sha256WithRSAEncryption
         a5:a1:0e:e1:50:4e:38:c1:04:c0:a7:9d:2f:72:6f:23:f2:f7:
         7d:8e:56:ba:41:98:1d:04:30:d1:56:6a:59:6b:5c:bb:e1:96:
         2a:0c:fc:1a:24:1d:a6:46:04:c9:26:b8:64:d5:7b:ff:f5:b4:
         ac:6c:c1:2b:38:5a:69:4b:a6:7d:fc:bc:db:80:d7:38:ff:d0:
         7a:72:f1:a2:b6:41:6d:86:0b:93:0c:71:c4:ca:9d:7e:c6:72:
         33:f5:74:90:f2:56:a3:43:0d:30:26:42:bb:6f:de:09:b3:b1:
         5f:1a:fa:23:92:f5:31:e5:c7:dc:22:0e:12:61:58:3a:a6:02:
         1d:f8:e9:9c:37:a4:69:91:8b:62:93:c9:2c:86:0d:76:b7:8d:
         7b:9e:27:88:ab:96:69:00:c8:2d:36:70:62:0e:3b:01:d2:58:
         09:59:fe:41:a3:40:27:c9:49:60:ac:f9:d3:38:97:fe:83:1a:
         2c:9b:6a:4e:ff:d9:57:27:00:da:62:29:2b:5d:67:37:65:8c:
         af:39:e5:1b:f8:11:6f:0e:33:db:b4:9e:ec:bd:6e:57:d4:3b:
         a0:db:33:37:38:cd:42:d3:dc:20:fd:d5:51:16:15:53:54:72:
         d3:3d:21:75:6c:79:2f:3e:88:0e:ed:42:cf:d6:8b:7c:65:c1:
         c2:28:c9:ac
-----BEGIN CERTIFICATE-----
MIIDSjCCAjKgAwIBAgIEEAAAgDANBgkqhkiG9w0BAQsFADAnMSUwIwYDVQQDDBxT
UkszX3NoYTI1Nl8yMDQ4XzY1NTM3X3YzX2NhMB4XDTE4MDMwNzE1MTU0OFoXDTI4
MDMwNDE1MTU0OFowKjEoMCYGA1UEAwwfSU1HM18xX3NoYTI1Nl8yMDQ4XzY1NTM3
X3YzX3VzcjCCASIwDQYJKoZIhvcNAQEBBQADggEPADCCAQoCggEBAMXtkUbLbZo1
SKy2RMhLh+tvAh3Ng365LK2jzuk3PV/uP15uCUbmj7XXQf4kXHfuxiWKU4aulI20
WPgW6b9jJTxZUh6awnbypu+JcZt5dghbiz7UD1knKHjxs2nTI90OH528ta0xBXGl
mbHKu898JmMEK3NdFQIctjrjmVT6mjfXnK3dbjYvlxCBrcyYyftleY/HfrSwrYl0
Intd5nVMTwwVe9ZmgmNWI3sQ/EgzIfJ3c5J9/UJcJXw+47B495nnPgoTYYI/H6eF
DI4pAxtadxL4S+bN3OhK7FByYt/2oTThb/PfO4ARUef4bYrTRonNNZSnr7VIPRnL
6eE1MF7fOtsCAwEAAaN7MHkwCQYDVR0TBAIwADAsBglghkgBhvhCAQ0EHxYdT3Bl
blNTTCBHZW5lcmF0ZWQgQ2VydGlmaWNhdGUwHQYDVR0OBBYEFJrJbUr34mfVTRN5
Rz4hZy166LpYMB8GA1UdIwQYMBaAFMIIuwt1t09OLsDSwBzjFRaCO9HlMA0GCSqG
SIb3DQEBCwUAA4IBAQCloQ7hUE44wQTAp50vcm8j8vd9jla6QZgdBDDRVmpZa1y7
4ZYqDPwaJB2mRgTJJrhk1Xv/9bSsbMErOFppS6Z9/LzbgNc4/9B6cvGitkFthguT
DHHEyp1+xnIz9XSQ8lajQw0wJkK7b94Js7FfGvojkvUx5cfcIg4SYVg6pgId+Omc
N6RpkYtik8kshg12t417nieIq5ZpAMgtNnBiDjsB0lgJWf5Bo0AnyUlgrPnTOJf+
gxosm2pO/9lXJwDaYikrXWc3ZYyvOeUb+BFvDjPbtJ7svW5X1Dug2zM3OM1C09wg
/dVRFhVTVHLTPSF1bHkvPogO7ULP1ot8ZcHCKMms
-----END CERTIFICATE-----
