Certificate:
    Data:
        Version: 3 (0x2)
        Serial Number: 268435575 (0x10000077)
    Signature Algorithm: sha256WithRSAEncryption
        Issuer: CN=SRK4_sha256_1024_65537_v3_ca
        Validity
            Not Before: Mar  7 15:15:47 2018 GMT
            Not After : Mar  4 15:15:47 2028 GMT
        Subject: CN=IMG4_1_sha256_1024_65537_v3_usr
        Subject Public Key Info:
            Public Key Algorithm: rsaEncryption
                Public-Key: (1024 bit)
                Modulus:
                    00:bd:48:87:22:a9:0c:52:59:78:00:d0:6b:05:cd:
                    3c:83:1f:ad:a0:7f:ad:78:8e:1f:1b:76:7a:97:09:
                    01:d4:38:32:27:2b:5a:6f:e2:1a:37:e6:e6:51:64:
                    c4:e1:f4:cc:d5:29:81:00:36:99:e5:64:80:35:70:
                    0c:24:69:6f:41:1d:84:a5:6d:0b:da:b1:7d:61:53:
                    7c:b9:ad:5f:1a:94:56:47:23:74:c7:68:23:04:98:
                    17:8b:9d:2d:67:e5:a7:0d:69:46:a3:43:f8:92:bb:
                    c6:22:53:6b:11:dd:fd:a1:58:48:83:f8:77:8d:e5:
                    db:c9:4e:40:3c:f4:44:a6:6f
                Exponent: 65537 (0x10001)
        X509v3 extensions:
            X509v3 Basic Constraints: 
                CA:FALSE
            Netscape Comment: 
                OpenSSL Generated Certificate
            X509v3 Subject Key Identifier: 
                A1:38:EF:C6:90:AF:E1:40:2A:21:AB:3E:DD:00:FE:9B:AD:E6:E3:FA
            X509v3 Authority Key Identifier: 
                keyid:1C:FF:B3:4A:AB:9E:78:38:8D:BB:33:7B:19:C2:35:22:57:D9:3E:58

    Signature Algorithm: sha256WithRSAEncryption
         90:e3:93:c2:c6:d4:ef:96:a4:6e:8b:cd:2a:7a:77:43:8f:d9:
         ea:12:c4:29:2b:70:e5:7d:8c:00:de:93:74:95:53:0d:5e:aa:
         f1:2f:dd:81:21:3d:f3:13:7a:76:4f:61:93:42:99:28:7b:94:
         4b:44:9b:87:ee:e9:c9:c6:6a:65:8f:be:4b:01:66:44:55:6d:
         42:e4:52:8d:d4:c8:f8:b4:84:1f:89:73:db:c3:25:0e:ea:bd:
         77:84:c4:48:5f:b6:e9:5a:36:c0:f5:a7:28:4f:ae:98:38:f6:
         08:e8:1a:63:65:1a:da:4a:7d:04:b9:97:84:3d:88:57:0a:55:
         c1:11
-----BEGIN CERTIFICATE-----
MIICRTCCAa6gAwIBAgIEEAAAdzANBgkqhkiG9w0BAQsFADAnMSUwIwYDVQQDDBxT
Uks0X3NoYTI1Nl8xMDI0XzY1NTM3X3YzX2NhMB4XDTE4MDMwNzE1MTU0N1oXDTI4
MDMwNDE1MTU0N1owKjEoMCYGA1UEAwwfSU1HNF8xX3NoYTI1Nl8xMDI0XzY1NTM3
X3YzX3VzcjCBnzANBgkqhkiG9w0BAQEFAAOBjQAwgYkCgYEAvUiHIqkMUll4ANBr
Bc08gx+toH+teI4fG3Z6lwkB1DgyJytab+IaN+bmUWTE4fTM1SmBADaZ5WSANXAM
JGlvQR2EpW0L2rF9YVN8ua1fGpRWRyN0x2gjBJgXi50tZ+WnDWlGo0P4krvGIlNr
Ed39oVhIg/h3jeXbyU5APPREpm8CAwEAAaN7MHkwCQYDVR0TBAIwADAsBglghkgB
hvhCAQ0EHxYdT3BlblNTTCBHZW5lcmF0ZWQgQ2VydGlmaWNhdGUwHQYDVR0OBBYE
FKE478aQr+FAKiGrPt0A/put5uP6MB8GA1UdIwQYMBaAFBz/s0qrnng4jbszexnC
NSJX2T5YMA0GCSqGSIb3DQEBCwUAA4GBAJDjk8LG1O+WpG6LzSp6d0OP2eoSxCkr
cOV9jADek3SVUw1eqvEv3YEhPfMTenZPYZNCmSh7lEtEm4fu6cnGamWPvksBZkRV
bULkUo3UyPi0hB+Jc9vDJQ7qvXeExEhftulaNsD1pyhPrpg49gjoGmNlGtpKfQS5
l4Q9iFcKVcER
-----END CERTIFICATE-----
