Certificate:
    Data:
        Version: 3 (0x2)
        Serial Number: 268435599 (0x1000008f)
    Signature Algorithm: sha256WithRSAEncryption
        Issuer: CN=SRK4_sha256_4096_65537_v3_ca
        Validity
            Not Before: Mar  7 15:15:57 2018 GMT
            Not After : Mar  4 15:15:57 2028 GMT
        Subject: CN=IMG4_1_sha256_4096_65537_v3_usr
        Subject Public Key Info:
            Public Key Algorithm: rsaEncryption
                Public-Key: (4096 bit)
                Modulus:
                    00:a8:c0:fa:20:b1:15:45:44:d2:93:b0:45:e4:40:
                    99:e1:69:d5:3c:06:f5:67:90:4d:e0:c1:16:0e:1c:
                    1f:75:5b:70:e7:fb:3c:99:12:7b:12:a0:aa:6b:14:
                    5a:2a:76:a2:68:c7:61:bc:df:ea:f3:5e:3c:fe:22:
                    da:08:d4:f9:d9:49:e6:53:75:ec:ae:de:ef:a3:6e:
                    cc:20:d4:13:c0:05:3b:d3:73:20:df:28:54:09:f5:
                    eb:00:0f:61:be:3a:72:6e:1b:34:ff:35:30:bf:00:
                    21:5e:53:e3:7d:6e:3b:cd:17:50:1e:b1:d7:38:f6:
                    cf:04:cc:c0:7e:9b:a4:44:22:44:ce:61:e0:8c:6d:
                    45:3f:f6:68:c7:04:1d:ee:d8:55:7c:29:32:cb:97:
                    c3:71:69:b7:5d:c9:e8:36:84:c2:b0:eb:4f:c5:b5:
                    34:d1:f1:e5:6c:3b:c6:f7:cc:94:70:20:84:38:86:
                    7d:09:30:1d:a1:05:6a:3a:a4:4e:8c:31:7c:be:a2:
                    97:61:58:59:96:31:18:a7:31:3e:ef:7c:e5:67:30:
                    26:21:7b:ce:f0:8e:f8:4d:08:cd:cd:27:f6:45:67:
                    54:4a:63:4b:62:8a:0f:fe:36:3c:30:f0:d7:68:8e:
                    21:f4:7f:30:6a:27:a2:fc:89:5b:75:90:66:01:4f:
                    b6:83:f6:15:72:5b:a9:85:6a:2f:a5:2e:83:41:94:
                    b8:bc:c5:49:81:93:da:72:ea:24:c2:84:46:64:af:
                    21:3d:42:c8:61:66:8b:58:3e:ac:0d:86:44:4a:e1:
                    c6:3c:01:84:db:53:65:55:ae:ac:68:7a:bc:10:08:
                    a5:55:40:4e:ce:16:d5:a8:76:b9:5e:02:c6:48:ce:
                    7c:c4:70:fe:06:88:36:b4:15:6f:a5:6e:0f:ab:df:
                    92:49:a5:17:de:dd:85:5f:57:89:08:28:35:a1:1d:
                    1f:91:22:db:1a:78:22:c4:68:57:bf:27:f0:db:1c:
                    32:31:f3:ab:f6:cc:42:78:4d:c3:be:39:d7:dd:71:
                    cf:ca:df:aa:a5:c6:b1:89:5d:20:af:87:04:2e:14:
                    4c:0b:60:e2:7f:fc:ab:98:6e:02:3d:cd:45:ca:bb:
                    13:ab:e9:86:07:8e:b0:7b:0f:06:64:72:5e:fc:59:
                    eb:24:ac:d1:8c:bf:11:ef:f4:ae:25:00:da:ab:e3:
                    f9:3d:19:9f:80:71:cb:ca:10:66:95:13:40:51:d5:
                    d9:b6:f6:94:d4:38:4d:5b:8e:7b:85:22:97:69:f6:
                    97:0e:c5:f8:60:a5:3b:58:2e:87:68:9a:0f:11:3a:
                    fd:96:f4:1f:af:d6:8b:a6:40:80:7d:af:fc:f5:2f:
                    18:1a:53
                Exponent: 65537 (0x10001)
        X509v3 extensions:
            X509v3 Basic Constraints: 
                CA:FALSE
            Netscape Comment: 
                OpenSSL Generated Certificate
            X509v3 Subject Key Identifier: 
                9F:1C:9D:B9:8E:13:53:F1:EE:EF:9B:9B:56:18:1B:62:EF:DF:FC:51
            X509v3 Authority Key Identifier: 
                keyid:D0:C7:3C:ED:1A:79:37:15:CA:A7:EB:43:16:8E:8D:B7:78:5C:11:00

    Signature Algorithm: sha256WithRSAEncryption
         59:23:1c:b5:4d:48:83:12:e6:a8:cc:22:1e:18:71:bc:70:f1:
         59:4a:eb:bd:e2:22:7e:f5:b4:c3:1d:de:af:9e:bf:d3:4a:de:
         f5:a2:b9:ed:97:a4:59:13:da:14:94:3b:c8:13:b0:5c:8d:a6:
         b8:55:7b:18:5a:7d:a3:41:23:92:a0:73:48:0a:a6:ec:69:d1:
         b8:d2:5f:76:1f:0c:de:b6:87:86:a3:5a:88:f5:70:70:1e:99:
         9b:14:14:ca:60:de:d8:3e:84:11:6e:62:ea:1b:dc:03:d2:8b:
         bb:37:61:00:bf:c3:f4:ed:95:11:fa:05:59:a2:26:0d:03:f3:
         87:d1:1d:08:41:41:09:cc:15:fa:d1:bb:52:b9:90:bc:f8:5f:
         bf:b9:e1:be:dc:e8:9f:58:e5:d5:7f:5e:80:a5:98:cb:67:ba:
         ac:d4:fe:f9:52:1c:0d:a8:60:59:45:91:18:8a:07:b4:75:00:
         87:ea:f2:f6:d5:ec:eb:44:55:f6:2e:72:be:e6:4d:4c:23:5a:
         7a:89:9b:3b:2b:e5:8d:31:d7:df:c6:9f:74:29:d0:0e:ba:58:
         0d:7c:a7:20:13:d7:f9:3f:0b:f2:96:c3:3d:cf:cd:b1:95:fb:
         72:1a:9b:12:32:a0:01:50:fd:05:1a:c8:bd:fd:40:21:19:b4:
         45:63:82:66:2b:b2:9f:a2:43:b9:37:2e:f4:26:15:4f:86:5c:
         00:05:37:57:e5:81:18:ae:fe:1f:58:49:7b:93:c6:1b:50:f8:
         0e:30:3a:eb:ce:53:c0:ab:f4:d7:d0:78:e2:13:53:53:b1:3b:
         4e:c4:2d:14:d7:68:a2:25:16:8d:71:e0:04:a7:fa:0d:9d:17:
         2f:7d:5f:cd:f5:7c:32:c2:6b:e5:a0:5a:c5:1f:ec:c7:5c:9e:
         fb:88:7d:34:73:5d:e5:62:13:f5:47:98:c4:d8:c0:54:fd:95:
         f0:6a:50:b8:61:22:26:50:e5:cc:8c:a2:24:d5:0f:d2:34:cc:
         b8:a5:b8:0d:a2:cd:fa:59:66:14:0f:5a:21:02:89:8f:20:8d:
         b0:c0:2b:d5:a2:a0:89:bf:14:1a:43:e6:cb:40:af:5c:ea:41:
         3b:86:07:49:a7:50:65:8e:60:6e:0c:2f:19:e5:6d:58:1c:4b:
         12:f7:c6:30:a0:64:92:27:b6:77:de:7d:21:9f:d4:78:47:5d:
         21:3b:9c:4b:63:58:b0:da:2a:16:95:d6:2f:32:c6:ff:33:24:
         c5:38:3a:7d:bf:b0:55:0c:a8:0e:67:34:5f:7f:41:e7:ba:d1:
         a4:05:7e:b9:37:e7:17:45:cb:20:cd:e4:72:43:4f:b8:05:25:
         dc:68:28:f8:f0:10:6c:fe
-----BEGIN CERTIFICATE-----
MIIFSjCCAzKgAwIBAgIEEAAAjzANBgkqhkiG9w0BAQsFADAnMSUwIwYDVQQDDBxT
Uks0X3NoYTI1Nl80MDk2XzY1NTM3X3YzX2NhMB4XDTE4MDMwNzE1MTU1N1oXDTI4
MDMwNDE1MTU1N1owKjEoMCYGA1UEAwwfSU1HNF8xX3NoYTI1Nl80MDk2XzY1NTM3
X3YzX3VzcjCCAiIwDQYJKoZIhvcNAQEBBQADggIPADCCAgoCggIBAKjA+iCxFUVE
0pOwReRAmeFp1TwG9WeQTeDBFg4cH3VbcOf7PJkSexKgqmsUWip2omjHYbzf6vNe
PP4i2gjU+dlJ5lN17K7e76NuzCDUE8AFO9NzIN8oVAn16wAPYb46cm4bNP81ML8A
IV5T431uO80XUB6x1zj2zwTMwH6bpEQiRM5h4IxtRT/2aMcEHe7YVXwpMsuXw3Fp
t13J6DaEwrDrT8W1NNHx5Ww7xvfMlHAghDiGfQkwHaEFajqkTowxfL6il2FYWZYx
GKcxPu985WcwJiF7zvCO+E0Izc0n9kVnVEpjS2KKD/42PDDw12iOIfR/MGonovyJ
W3WQZgFPtoP2FXJbqYVqL6Uug0GUuLzFSYGT2nLqJMKERmSvIT1CyGFmi1g+rA2G
RErhxjwBhNtTZVWurGh6vBAIpVVATs4W1ah2uV4CxkjOfMRw/gaINrQVb6VuD6vf
kkmlF97dhV9XiQgoNaEdH5Ei2xp4IsRoV78n8NscMjHzq/bMQnhNw745191xz8rf
qqXGsYldIK+HBC4UTAtg4n/8q5huAj3NRcq7E6vphgeOsHsPBmRyXvxZ6ySs0Yy/
Ee/0riUA2qvj+T0Zn4Bxy8oQZpUTQFHV2bb2lNQ4TVuOe4Uil2n2lw7F+GClO1gu
h2iaDxE6/Zb0H6/Wi6ZAgH2v/PUvGBpTAgMBAAGjezB5MAkGA1UdEwQCMAAwLAYJ
YIZIAYb4QgENBB8WHU9wZW5TU0wgR2VuZXJhdGVkIENlcnRpZmljYXRlMB0GA1Ud
DgQWBBSfHJ25jhNT8e7vm5tWGBti79/8UTAfBgNVHSMEGDAWgBTQxzztGnk3Fcqn
60MWjo23eFwRADANBgkqhkiG9w0BAQsFAAOCAgEAWSMctU1IgxLmqMwiHhhxvHDx
WUrrveIifvW0wx3er56/00re9aK57ZekWRPaFJQ7yBOwXI2muFV7GFp9o0EjkqBz
SAqm7GnRuNJfdh8M3raHhqNaiPVwcB6ZmxQUymDe2D6EEW5i6hvcA9KLuzdhAL/D
9O2VEfoFWaImDQPzh9EdCEFBCcwV+tG7UrmQvPhfv7nhvtzon1jl1X9egKWYy2e6
rNT++VIcDahgWUWRGIoHtHUAh+ry9tXs60RV9i5yvuZNTCNaeombOyvljTHX38af
dCnQDrpYDXynIBPX+T8L8pbDPc/NsZX7chqbEjKgAVD9BRrIvf1AIRm0RWOCZiuy
n6JDuTcu9CYVT4ZcAAU3V+WBGK7+H1hJe5PGG1D4DjA6685TwKv019B44hNTU7E7
TsQtFNdooiUWjXHgBKf6DZ0XL31fzfV8MsJr5aBaxR/sx1ye+4h9NHNd5WIT9UeY
xNjAVP2V8GpQuGEiJlDlzIyiJNUP0jTMuKW4DaLN+llmFA9aIQKJjyCNsMAr1aKg
ib8UGkPmy0CvXOpBO4YHSadQZY5gbgwvGeVtWBxLEvfGMKBkkie2d959IZ/UeEdd
ITucS2NYsNoqFpXWLzLG/zMkxTg6fb+wVQyoDmc0X39B57rRpAV+uTfnF0XLIM3k
ckNPuAUl3Ggo+PAQbP4=
-----END CERTIFICATE-----
