Certificate:
    Data:
        Version: 3 (0x2)
        Serial Number: 268435588 (0x10000084)
    Signature Algorithm: sha256WithRSAEncryption
        Issuer: CN=CA1_sha256_4096_65537_v3_ca
        Validity
            Not Before: Mar  7 15:15:50 2018 GMT
            Not After : Mar  4 15:15:50 2028 GMT
        Subject: CN=SRK1_sha256_4096_65537_v3_ca
        Subject Public Key Info:
            Public Key Algorithm: rsaEncryption
                Public-Key: (4096 bit)
                Modulus:
                    00:ac:7e:99:e7:09:fb:ce:d7:17:61:ac:74:c5:d9:
                    86:38:77:e1:3d:44:32:8a:bb:5b:96:f1:9c:42:b0:
                    cc:7f:00:64:e9:94:8b:ff:b1:6f:6e:8b:f3:b1:b1:
                    f3:5d:c0:7a:ab:26:f9:10:21:dd:6a:52:3b:bb:9d:
                    1c:6a:00:e3:0c:68:98:ab:ac:2e:38:ae:09:aa:68:
                    c6:c3:a4:67:76:23:d7:8b:3f:ed:4d:10:d5:1d:77:
                    35:e9:e4:7b:fb:c2:29:f5:c1:c7:0e:23:16:17:31:
                    37:be:39:76:10:d6:56:10:77:78:43:7a:6f:d7:47:
                    74:5b:40:98:d7:58:8c:3d:5a:5a:90:b6:b2:5a:e5:
                    25:77:19:a9:2e:f1:e8:1a:21:db:10:b5:e3:0e:a7:
                    41:2d:49:e1:ec:05:e8:fb:b4:ce:db:00:fa:70:af:
                    bc:52:1b:6b:1d:99:a2:a2:34:12:9a:c7:42:db:71:
                    a1:23:82:e2:71:f5:49:fb:5c:19:35:d8:e0:bf:dc:
                    cb:18:c3:d5:0d:97:8d:8c:78:fc:8e:e8:60:72:2d:
                    d5:af:b6:85:dc:c9:45:c2:da:08:0d:5d:5f:cb:a8:
                    50:64:9b:58:a9:68:bf:74:30:4c:e4:c7:0b:69:1d:
                    97:c6:c8:dd:71:37:66:b9:01:80:5c:04:81:79:be:
                    5c:f2:b7:28:9c:e9:29:3b:ab:37:e7:44:bf:01:af:
                    ca:11:08:0a:41:5f:53:10:45:3e:97:06:22:e0:7a:
                    c7:c7:bf:14:e9:65:e6:fb:3d:ce:07:c3:68:30:bc:
                    d7:2d:9d:e0:0c:a1:86:76:f7:8d:8f:d2:1f:a8:af:
                    85:3b:21:39:66:e0:e5:95:5f:53:97:b1:87:05:c2:
                    69:fa:c9:1e:02:6c:43:1b:87:b9:50:09:de:52:2f:
                    93:37:d6:b9:cd:c2:4f:ac:8f:c5:6c:d6:a7:49:d5:
                    0e:03:e7:25:41:70:0b:32:df:a8:67:85:f5:6e:f2:
                    9d:9e:9c:19:11:ff:70:87:10:2d:65:d4:91:cf:d4:
                    eb:90:e1:06:63:da:0e:90:a1:6f:22:8b:1c:20:77:
                    4f:4f:55:cf:dd:f6:bc:94:2c:c6:62:df:54:3c:18:
                    9c:2f:8d:b1:12:c1:a4:ac:5c:3d:fa:e3:4d:6c:0d:
                    40:9d:ce:98:32:2d:37:25:d8:fe:e0:90:25:c0:41:
                    22:e6:ab:60:8c:77:18:20:b6:90:44:cb:32:f3:c2:
                    fe:e3:4d:eb:89:d0:18:bb:20:fa:6f:03:66:54:6e:
                    a2:6b:9e:0d:48:d2:33:6c:66:76:05:f6:7e:2c:c0:
                    10:e6:31:34:9c:e9:25:b9:4b:95:3b:33:06:97:ed:
                    36:de:ff
                Exponent: 65537 (0x10001)
        X509v3 extensions:
            X509v3 Subject Key Identifier: 
                7C:7E:7D:BE:CA:5D:11:F2:2C:3D:FF:5E:60:A6:92:35:DE:D6:D4:2A
            X509v3 Authority Key Identifier: 
                keyid:F9:E9:2F:6D:FF:1D:64:79:FC:99:80:BA:F4:2D:2C:6E:EE:36:EA:E2
                DirName:/CN=CA1_sha256_4096_65537_v3_ca
                serial:DD:F5:74:39:CD:DB:69:6B

            X509v3 Basic Constraints: critical
                CA:TRUE
            X509v3 Key Usage: 
                Certificate Sign
    Signature Algorithm: sha256WithRSAEncryption
         38:56:32:ff:30:c6:f7:0f:f1:7e:06:1b:15:6d:87:5d:3f:21:
         40:d9:ba:7b:66:b8:b4:b5:87:64:29:56:74:d2:7b:bb:dd:91:
         d6:a2:81:9d:94:75:ab:a2:0f:98:0d:7f:75:f8:56:da:08:c3:
         d5:8d:3f:4a:3d:6a:7e:04:69:08:0a:1f:ec:78:bb:69:01:40:
         73:93:49:81:c8:24:81:29:e9:65:a3:25:f5:0e:df:77:2e:e3:
         06:56:18:52:84:aa:95:d0:39:ac:aa:9e:7f:e3:ed:01:f3:7f:
         3c:72:dc:a9:d8:15:f4:f1:8e:2f:d5:fd:2c:87:d4:0c:6a:d1:
         1f:3f:fc:3b:10:e6:24:ec:29:aa:c8:26:bd:64:1c:1e:c5:33:
         9c:59:a8:d3:48:0d:c0:92:10:de:24:ad:6c:ca:3f:89:b9:b0:
         b0:d8:49:ea:ca:ff:27:43:14:5c:10:86:b7:12:5d:81:da:5e:
         1b:fe:d7:5d:91:4b:3a:df:60:92:36:8d:ee:25:36:a8:36:cf:
         81:e7:ca:81:ef:ea:52:49:ef:07:d5:4e:0a:46:8a:11:4d:86:
         b4:52:99:48:c0:b2:73:99:94:f2:fc:aa:f5:31:4e:49:6f:5c:
         c4:23:12:db:b0:d2:44:4b:30:c7:36:55:d6:8b:c2:27:41:73:
         bc:61:79:7a:8f:42:3c:44:c1:48:32:d8:4c:a3:d0:64:b8:20:
         34:71:7e:1a:37:99:88:87:8b:9c:95:18:aa:39:d9:3e:ec:a1:
         63:f2:7f:f2:19:36:cf:9d:17:90:2a:bf:d2:57:1e:91:42:50:
         45:d1:f9:1f:cf:39:0c:ba:64:60:0b:2a:bc:66:13:cb:90:75:
         93:bf:f1:b6:79:18:d3:c7:5e:14:ed:f9:eb:25:f9:ce:e1:d2:
         bb:59:39:ef:13:47:61:83:76:b2:e0:85:5d:5d:34:56:fc:ab:
         b5:3d:bc:1e:d8:df:0b:c2:de:d2:e5:db:84:d9:25:16:b6:7b:
         fb:7c:76:c2:93:0d:3f:a5:22:30:9f:31:a2:be:5c:51:73:6b:
         ae:5a:c1:b8:7b:1f:37:7f:af:a1:12:4f:60:02:f0:dd:e8:80:
         fb:26:0f:84:45:d5:fc:97:29:3a:69:8c:5c:6f:70:ff:f0:a6:
         7b:bb:38:ed:fb:bb:2f:96:a0:eb:14:70:8f:f5:04:2b:db:03:
         a7:36:c8:e3:03:b2:65:c3:ea:af:36:d0:2b:22:e8:82:c1:45:
         de:60:4e:b7:f6:31:c5:de:f6:7c:25:4a:45:0c:ca:39:b1:6c:
         29:a6:ac:9f:fa:a3:f1:58:c8:8a:2d:9e:74:d1:26:93:3f:ec:
         8c:72:c8:65:ee:16:6e:ee
-----BEGIN CERTIFICATE-----
MIIFZDCCA0ygAwIBAgIEEAAAhDANBgkqhkiG9w0BAQsFADAmMSQwIgYDVQQDFBtD
QTFfc2hhMjU2XzQwOTZfNjU1MzdfdjNfY2EwHhcNMTgwMzA3MTUxNTUwWhcNMjgw
MzA0MTUxNTUwWjAnMSUwIwYDVQQDDBxTUksxX3NoYTI1Nl80MDk2XzY1NTM3X3Yz
X2NhMIICIjANBgkqhkiG9w0BAQEFAAOCAg8AMIICCgKCAgEArH6Z5wn7ztcXYax0
xdmGOHfhPUQyirtblvGcQrDMfwBk6ZSL/7FvbovzsbHzXcB6qyb5ECHdalI7u50c
agDjDGiYq6wuOK4JqmjGw6RndiPXiz/tTRDVHXc16eR7+8Ip9cHHDiMWFzE3vjl2
ENZWEHd4Q3pv10d0W0CY11iMPVpakLayWuUldxmpLvHoGiHbELXjDqdBLUnh7AXo
+7TO2wD6cK+8UhtrHZmiojQSmsdC23GhI4LicfVJ+1wZNdjgv9zLGMPVDZeNjHj8
juhgci3Vr7aF3MlFwtoIDV1fy6hQZJtYqWi/dDBM5McLaR2XxsjdcTdmuQGAXASB
eb5c8rconOkpO6s350S/Aa/KEQgKQV9TEEU+lwYi4HrHx78U6WXm+z3OB8NoMLzX
LZ3gDKGGdveNj9IfqK+FOyE5ZuDllV9Tl7GHBcJp+skeAmxDG4e5UAneUi+TN9a5
zcJPrI/FbNanSdUOA+clQXALMt+oZ4X1bvKdnpwZEf9whxAtZdSRz9TrkOEGY9oO
kKFvIoscIHdPT1XP3fa8lCzGYt9UPBicL42xEsGkrFw9+uNNbA1Anc6YMi03Jdj+
4JAlwEEi5qtgjHcYILaQRMsy88L+403ridAYuyD6bwNmVG6ia54NSNIzbGZ2BfZ+
LMAQ5jE0nOkluUuVOzMGl+023v8CAwEAAaOBmDCBlTAdBgNVHQ4EFgQUfH59vspd
EfIsPf9eYKaSNd7W1CowVgYDVR0jBE8wTYAU+ekvbf8dZHn8mYC69C0sbu426uKh
KqQoMCYxJDAiBgNVBAMUG0NBMV9zaGEyNTZfNDA5Nl82NTUzN192M19jYYIJAN31
dDnN22lrMA8GA1UdEwEB/wQFMAMBAf8wCwYDVR0PBAQDAgIEMA0GCSqGSIb3DQEB
CwUAA4ICAQA4VjL/MMb3D/F+BhsVbYddPyFA2bp7Zri0tYdkKVZ00nu73ZHWooGd
lHWrog+YDX91+FbaCMPVjT9KPWp+BGkICh/seLtpAUBzk0mByCSBKelloyX1Dt93
LuMGVhhShKqV0Dmsqp5/4+0B8388ctyp2BX08Y4v1f0sh9QMatEfP/w7EOYk7Cmq
yCa9ZBwexTOcWajTSA3AkhDeJK1syj+JubCw2Enqyv8nQxRcEIa3El2B2l4b/tdd
kUs632CSNo3uJTaoNs+B58qB7+pSSe8H1U4KRooRTYa0UplIwLJzmZTy/Kr1MU5J
b1zEIxLbsNJESzDHNlXWi8InQXO8YXl6j0I8RMFIMthMo9BkuCA0cX4aN5mIh4uc
lRiqOdk+7KFj8n/yGTbPnReQKr/SVx6RQlBF0fkfzzkMumRgCyq8ZhPLkHWTv/G2
eRjTx14U7fnrJfnO4dK7WTnvE0dhg3ay4IVdXTRW/Ku1Pbwe2N8Lwt7S5duE2SUW
tnv7fHbCkw0/pSIwnzGivlxRc2uuWsG4ex83f6+hEk9gAvDd6ID7Jg+ERdX8lyk6
aYxcb3D/8KZ7uzjt+7svlqDrFHCP9QQr2wOnNsjjA7Jlw+qvNtArIuiCwUXeYE63
9jHF3vZ8JUpFDMo5sWwppqyf+qPxWMiKLZ500SaTP+yMcshl7hZu7g==
-----END CERTIFICATE-----
