Certificate:
    Data:
        Version: 3 (0x2)
        Serial Number: 268435564 (0x1000006c)
    Signature Algorithm: sha256WithRSAEncryption
        Issuer: CN=CA1_sha256_1024_65537_v3_ca
        Validity
            Not Before: Mar  7 15:15:47 2018 GMT
            Not After : Mar  4 15:15:47 2028 GMT
        Subject: CN=SRK1_sha256_1024_65537_v3_ca
        Subject Public Key Info:
            Public Key Algorithm: rsaEncryption
                Public-Key: (1024 bit)
                Modulus:
                    00:d4:33:c1:d7:a5:76:ea:8c:2d:76:9d:30:87:ca:
                    40:4d:fc:79:88:29:01:af:b1:40:88:0a:1e:cd:18:
                    fc:ed:0b:35:a0:39:f7:d6:ce:dd:c5:c1:6d:e6:12:
                    66:dc:c0:d2:f6:ed:04:2f:75:bf:7a:3a:3b:15:ea:
                    3c:b5:71:b7:67:59:e5:c9:47:d5:0b:16:68:a4:e1:
                    dd:6e:e7:ca:86:21:93:7b:8a:5c:64:4f:93:8a:e9:
                    d1:95:94:c6:46:79:20:c6:64:de:be:30:68:f4:47:
                    9d:f8:e2:08:84:85:64:98:14:11:a3:d0:e5:e4:90:
                    ed:ba:f3:f2:84:e8:7e:75:3d
                Exponent: 65537 (0x10001)
        X509v3 extensions:
            X509v3 Subject Key Identifier: 
                29:33:0D:C4:2A:A7:BA:C6:A5:E1:1E:CB:32:7A:53:DC:D3:47:DC:F3
            X509v3 Authority Key Identifier: 
                keyid:1C:CC:24:5A:9C:B6:D6:70:93:C8:C3:11:95:6D:A3:BB:1A:35:78:C5
                DirName:/CN=CA1_sha256_1024_65537_v3_ca
                serial:F9:96:A0:48:CD:18:CB:23

            X509v3 Basic Constraints: critical
                CA:TRUE
            X509v3 Key Usage: 
                Certificate Sign
    Signature Algorithm: sha256WithRSAEncryption
         9f:4a:df:a5:5c:da:5b:14:a2:f6:a9:b9:50:ee:24:93:0f:67:
         c6:65:e6:0c:3a:1a:46:a9:da:28:2a:3d:6d:84:09:3e:15:57:
         0f:f9:a7:d6:6c:c5:73:6c:18:97:1a:cd:85:7f:7f:9b:b3:e4:
         0b:18:4a:7b:95:f0:67:39:7b:21:b4:27:1a:4c:20:8f:c6:72:
         23:72:70:ab:a8:27:ed:a5:30:de:3f:26:19:c3:45:ea:ac:2b:
         e5:c0:93:ce:88:cc:4c:e1:0b:bf:dc:f5:d8:65:dc:49:e5:b5:
         d6:6f:60:40:7b:dc:20:2a:23:dc:ae:58:9a:86:15:2f:6c:ab:
         be:bf
-----BEGIN CERTIFICATE-----
MIICXzCCAcigAwIBAgIEEAAAbDANBgkqhkiG9w0BAQsFADAmMSQwIgYDVQQDFBtD
QTFfc2hhMjU2XzEwMjRfNjU1MzdfdjNfY2EwHhcNMTgwMzA3MTUxNTQ3WhcNMjgw
MzA0MTUxNTQ3WjAnMSUwIwYDVQQDDBxTUksxX3NoYTI1Nl8xMDI0XzY1NTM3X3Yz
X2NhMIGfMA0GCSqGSIb3DQEBAQUAA4GNADCBiQKBgQDUM8HXpXbqjC12nTCHykBN
/HmIKQGvsUCICh7NGPztCzWgOffWzt3FwW3mEmbcwNL27QQvdb96OjsV6jy1cbdn
WeXJR9ULFmik4d1u58qGIZN7ilxkT5OK6dGVlMZGeSDGZN6+MGj0R5344giEhWSY
FBGj0OXkkO268/KE6H51PQIDAQABo4GYMIGVMB0GA1UdDgQWBBQpMw3EKqe6xqXh
HssyelPc00fc8zBWBgNVHSMETzBNgBQczCRanLbWcJPIwxGVbaO7GjV4xaEqpCgw
JjEkMCIGA1UEAxQbQ0ExX3NoYTI1Nl8xMDI0XzY1NTM3X3YzX2NhggkA+ZagSM0Y
yyMwDwYDVR0TAQH/BAUwAwEB/zALBgNVHQ8EBAMCAgQwDQYJKoZIhvcNAQELBQAD
gYEAn0rfpVzaWxSi9qm5UO4kkw9nxmXmDDoaRqnaKCo9bYQJPhVXD/mn1mzFc2wY
lxrNhX9/m7PkCxhKe5XwZzl7IbQnGkwgj8ZyI3Jwq6gn7aUw3j8mGcNF6qwr5cCT
zojMTOELv9z12GXcSeW11m9gQHvcICoj3K5YmoYVL2yrvr8=
-----END CERTIFICATE-----
