Certificate:
    Data:
        Version: 3 (0x2)
        Serial Number: 268435576 (0x10000078)
    Signature Algorithm: sha256WithRSAEncryption
        Issuer: CN=CA1_sha256_2048_65537_v3_ca
        Validity
            Not Before: Mar  7 15:15:48 2018 GMT
            Not After : Mar  4 15:15:48 2028 GMT
        Subject: CN=SRK1_sha256_2048_65537_v3_ca
        Subject Public Key Info:
            Public Key Algorithm: rsaEncryption
                Public-Key: (2048 bit)
                Modulus:
                    00:9d:32:d6:c1:51:79:2c:90:07:4c:4d:bd:fd:0d:
                    7e:db:05:c6:7c:c6:ec:1d:63:8a:01:4d:01:2e:d3:
                    b9:27:f9:e7:68:95:3b:27:aa:e9:39:63:22:21:4e:
                    bb:5a:e3:ab:35:35:be:56:98:6f:34:38:0b:50:a2:
                    c0:05:5e:f4:32:14:90:f2:a4:3f:82:31:e2:9b:d1:
                    a6:66:24:36:1a:ad:c9:df:04:c1:e1:aa:b3:37:96:
                    d7:a2:8b:bd:20:44:6d:89:68:35:62:1d:a4:fd:97:
                    a0:f3:6b:1f:8c:4d:04:28:98:6b:c3:5b:ea:9f:64:
                    82:4a:ce:16:b7:49:cb:8e:af:58:72:c9:41:a4:f1:
                    69:cd:5f:2b:5c:f7:e3:07:5c:20:eb:f6:f4:14:58:
                    b9:b1:83:ed:21:8f:d3:ce:97:59:e8:77:72:70:67:
                    f4:81:a3:8c:3c:ea:b7:14:89:dc:a7:ec:f9:bc:03:
                    fa:2e:2d:72:39:d0:92:4e:2a:eb:6a:ee:47:2f:3c:
                    54:19:d5:2c:52:d4:b0:f3:8a:ce:46:4a:95:72:47:
                    41:86:ae:af:1f:db:24:18:dc:c2:30:79:68:d3:eb:
                    40:e7:3a:cc:00:a1:b3:79:d9:c6:cb:14:44:e9:84:
                    02:06:66:a0:26:68:bb:02:4b:f6:b3:e4:c2:e3:97:
                    97:45
                Exponent: 65537 (0x10001)
        X509v3 extensions:
            X509v3 Subject Key Identifier: 
                D8:7E:22:7E:B4:84:CC:F8:04:B0:B5:19:5E:13:73:E3:8B:6E:E6:48
            X509v3 Authority Key Identifier: 
                keyid:86:EC:75:45:A9:01:21:AF:03:4F:04:BE:E6:7F:A2:E1:F3:3D:4C:1C
                DirName:/CN=CA1_sha256_2048_65537_v3_ca
                serial:E2:D6:96:7D:80:1B:7E:9E

            X509v3 Basic Constraints: critical
                CA:TRUE
            X509v3 Key Usage: 
                Certificate Sign
    Signature Algorithm: sha256WithRSAEncryption
         1e:10:c3:97:cc:96:af:69:cb:cf:77:a5:b5:a1:35:b5:18:08:
         e8:d5:eb:33:63:67:ea:f0:59:a7:f6:60:f9:dd:e2:5e:41:2d:
         17:ff:c2:37:82:56:8f:20:e5:00:2c:5d:82:48:16:9b:4b:ef:
         e4:26:ac:b5:56:95:c7:ed:73:83:1f:f9:9e:9b:fa:5b:24:d3:
         77:cc:8d:09:fb:8f:81:90:1e:a1:47:28:87:ae:5a:8f:d6:6d:
         28:0a:b4:31:9f:db:a4:e5:6e:fe:d0:3b:50:21:08:6c:4c:82:
         a0:2d:f3:61:ea:2d:5b:5e:a9:ea:f0:52:8f:7d:67:43:01:9f:
         e2:2a:6d:d4:db:ae:0c:3f:ab:37:26:30:2d:0d:9c:70:2a:77:
         48:96:7a:be:81:29:b4:ad:f5:b5:2d:15:cc:8a:97:20:f1:76:
         94:92:25:72:df:4d:f0:0e:e3:5f:f7:4e:d0:f0:26:85:77:79:
         ed:a7:51:e3:e4:5e:c0:81:30:04:9a:44:3b:7d:b7:22:2b:84:
         1c:f3:0f:e9:d6:4a:ee:21:54:b0:f3:df:38:9a:8a:2f:73:bd:
         c1:d0:30:cd:af:2c:b7:1f:3a:58:ef:11:14:97:72:1c:a9:b3:
         2a:8d:b2:65:0f:f1:01:ad:bd:39:9d:49:3c:9f:91:a3:f2:84:
         11:8f:7c:a6
-----BEGIN CERTIFICATE-----
MIIDZDCCAkygAwIBAgIEEAAAeDANBgkqhkiG9w0BAQsFADAmMSQwIgYDVQQDFBtD
QTFfc2hhMjU2XzIwNDhfNjU1MzdfdjNfY2EwHhcNMTgwMzA3MTUxNTQ4WhcNMjgw
MzA0MTUxNTQ4WjAnMSUwIwYDVQQDDBxTUksxX3NoYTI1Nl8yMDQ4XzY1NTM3X3Yz
X2NhMIIBIjANBgkqhkiG9w0BAQEFAAOCAQ8AMIIBCgKCAQEAnTLWwVF5LJAHTE29
/Q1+2wXGfMbsHWOKAU0BLtO5J/nnaJU7J6rpOWMiIU67WuOrNTW+VphvNDgLUKLA
BV70MhSQ8qQ/gjHim9GmZiQ2Gq3J3wTB4aqzN5bXoou9IERtiWg1Yh2k/Zeg82sf
jE0EKJhrw1vqn2SCSs4Wt0nLjq9YcslBpPFpzV8rXPfjB1wg6/b0FFi5sYPtIY/T
zpdZ6HdycGf0gaOMPOq3FIncp+z5vAP6Li1yOdCSTirrau5HLzxUGdUsUtSw84rO
RkqVckdBhq6vH9skGNzCMHlo0+tA5zrMAKGzednGyxRE6YQCBmagJmi7Akv2s+TC
45eXRQIDAQABo4GYMIGVMB0GA1UdDgQWBBTYfiJ+tITM+ASwtRleE3Pji27mSDBW
BgNVHSMETzBNgBSG7HVFqQEhrwNPBL7mf6Lh8z1MHKEqpCgwJjEkMCIGA1UEAxQb
Q0ExX3NoYTI1Nl8yMDQ4XzY1NTM3X3YzX2NhggkA4taWfYAbfp4wDwYDVR0TAQH/
BAUwAwEB/zALBgNVHQ8EBAMCAgQwDQYJKoZIhvcNAQELBQADggEBAB4Qw5fMlq9p
y893pbWhNbUYCOjV6zNjZ+rwWaf2YPnd4l5BLRf/wjeCVo8g5QAsXYJIFptL7+Qm
rLVWlcftc4Mf+Z6b+lsk03fMjQn7j4GQHqFHKIeuWo/WbSgKtDGf26Tlbv7QO1Ah
CGxMgqAt82HqLVteqerwUo99Z0MBn+IqbdTbrgw/qzcmMC0NnHAqd0iWer6BKbSt
9bUtFcyKlyDxdpSSJXLfTfAO41/3TtDwJoV3ee2nUePkXsCBMASaRDt9tyIrhBzz
D+nWSu4hVLDz3ziaii9zvcHQMM2vLLcfOljvERSXchypsyqNsmUP8QGtvTmdSTyf
kaPyhBGPfKY=
-----END CERTIFICATE-----
