Certificate:
    Data:
        Version: 3 (0x2)
        Serial Number: 268435579 (0x1000007b)
    Signature Algorithm: sha256WithRSAEncryption
        Issuer: CN=CA1_sha256_2048_65537_v3_ca
        Validity
            Not Before: Mar  7 15:15:48 2018 GMT
            Not After : Mar  4 15:15:48 2028 GMT
        Subject: CN=SRK2_sha256_2048_65537_v3_ca
        Subject Public Key Info:
            Public Key Algorithm: rsaEncryption
                Public-Key: (2048 bit)
                Modulus:
                    00:b0:3e:dc:69:bd:19:41:02:05:48:ee:79:f7:ca:
                    af:b3:38:e6:e1:51:59:46:6a:16:3a:37:84:0b:0b:
                    76:e0:30:a3:39:61:53:f6:40:6b:45:0d:fd:db:7e:
                    86:38:b1:7c:ed:b4:aa:88:c4:18:f0:5e:ca:df:b8:
                    b3:4f:1a:c8:60:c5:c7:87:65:f3:64:0b:d3:91:1d:
                    31:e9:48:84:81:23:e6:f9:ca:c8:43:db:8d:ae:08:
                    c7:24:03:bb:5d:4b:9f:36:f0:5a:e5:e3:94:fb:c3:
                    92:2f:1c:5d:a9:f3:90:43:6e:e7:35:b9:ec:cd:35:
                    6b:48:62:e1:a8:6b:44:70:80:ed:24:e9:54:19:94:
                    08:33:a2:15:43:d5:46:39:f1:8f:2e:66:55:6f:e9:
                    01:94:7f:6e:63:4e:91:8a:65:97:79:b0:a7:fe:34:
                    37:83:e6:58:76:f4:03:0c:87:cd:c3:5f:20:9e:68:
                    f7:cc:82:54:a8:23:88:3d:66:7f:97:2c:59:67:5e:
                    56:e4:40:66:46:31:d1:b9:c5:c6:e4:bc:f5:a6:4c:
                    ce:52:87:c6:d5:c8:f3:4a:a6:90:8b:b9:82:fb:10:
                    ce:dd:50:e8:f9:fb:3d:aa:4f:23:23:6c:fb:b0:8e:
                    06:c5:97:bb:ae:4e:5f:a0:ba:80:29:15:aa:7e:9b:
                    22:07
                Exponent: 65537 (0x10001)
        X509v3 extensions:
            X509v3 Subject Key Identifier: 
                B3:29:7A:64:B4:C6:C2:2D:AF:82:2F:F6:87:C7:2D:AD:87:16:A0:78
            X509v3 Authority Key Identifier: 
                keyid:86:EC:75:45:A9:01:21:AF:03:4F:04:BE:E6:7F:A2:E1:F3:3D:4C:1C
                DirName:/CN=CA1_sha256_2048_65537_v3_ca
                serial:E2:D6:96:7D:80:1B:7E:9E

            X509v3 Basic Constraints: critical
                CA:TRUE
            X509v3 Key Usage: 
                Certificate Sign
    Signature Algorithm: sha256WithRSAEncryption
         1d:e3:55:70:24:93:74:53:25:a2:1a:61:e2:eb:a2:1c:c0:e2:
         2d:dd:cb:e2:a5:64:9e:f9:27:82:30:8e:9d:49:a4:b3:80:2e:
         fd:5d:89:96:d1:89:b8:71:01:62:2f:8b:d5:ad:35:44:80:90:
         c5:38:3d:bf:b3:76:38:0f:d8:1e:0d:55:b5:6d:37:60:13:0d:
         a0:7e:87:ab:5a:5a:c4:06:c2:00:da:19:99:b6:42:6d:59:01:
         4d:c6:4b:bc:1e:ff:34:8e:37:52:82:0d:9c:d3:de:69:00:ed:
         c6:da:7a:1a:e6:30:01:fc:4e:3d:52:60:01:d1:7b:ff:a8:ce:
         ab:b0:f4:59:20:07:38:ed:d4:0d:f9:46:6e:bd:27:97:93:8a:
         2a:91:53:6f:74:b5:72:eb:20:bd:85:b3:90:45:bc:16:f8:3d:
         b4:7c:d6:9e:2d:08:c7:f6:04:27:ae:35:41:29:11:e0:22:76:
         83:16:47:7e:b6:67:f3:71:37:e3:4c:00:ef:18:fe:b5:ea:e6:
         60:8c:31:fb:d9:47:f4:ea:dd:5f:10:3e:70:90:cd:93:16:46:
         fd:35:30:f0:02:81:39:cb:2c:6d:68:19:ef:45:4a:ac:91:9a:
         46:2e:d6:61:ec:f1:60:ec:ed:6e:38:0f:5c:dc:78:ee:4a:1a:
         6b:8e:f5:a8
-----BEGIN CERTIFICATE-----
MIIDZDCCAkygAwIBAgIEEAAAezANBgkqhkiG9w0BAQsFADAmMSQwIgYDVQQDFBtD
QTFfc2hhMjU2XzIwNDhfNjU1MzdfdjNfY2EwHhcNMTgwMzA3MTUxNTQ4WhcNMjgw
MzA0MTUxNTQ4WjAnMSUwIwYDVQQDDBxTUksyX3NoYTI1Nl8yMDQ4XzY1NTM3X3Yz
X2NhMIIBIjANBgkqhkiG9w0BAQEFAAOCAQ8AMIIBCgKCAQEAsD7cab0ZQQIFSO55
98qvszjm4VFZRmoWOjeECwt24DCjOWFT9kBrRQ39236GOLF87bSqiMQY8F7K37iz
TxrIYMXHh2XzZAvTkR0x6UiEgSPm+crIQ9uNrgjHJAO7XUufNvBa5eOU+8OSLxxd
qfOQQ27nNbnszTVrSGLhqGtEcIDtJOlUGZQIM6IVQ9VGOfGPLmZVb+kBlH9uY06R
imWXebCn/jQ3g+ZYdvQDDIfNw18gnmj3zIJUqCOIPWZ/lyxZZ15W5EBmRjHRucXG
5Lz1pkzOUofG1cjzSqaQi7mC+xDO3VDo+fs9qk8jI2z7sI4GxZe7rk5foLqAKRWq
fpsiBwIDAQABo4GYMIGVMB0GA1UdDgQWBBSzKXpktMbCLa+CL/aHxy2thxageDBW
BgNVHSMETzBNgBSG7HVFqQEhrwNPBL7mf6Lh8z1MHKEqpCgwJjEkMCIGA1UEAxQb
Q0ExX3NoYTI1Nl8yMDQ4XzY1NTM3X3YzX2NhggkA4taWfYAbfp4wDwYDVR0TAQH/
BAUwAwEB/zALBgNVHQ8EBAMCAgQwDQYJKoZIhvcNAQELBQADggEBAB3jVXAkk3RT
JaIaYeLrohzA4i3dy+KlZJ75J4Iwjp1JpLOALv1diZbRibhxAWIvi9WtNUSAkMU4
Pb+zdjgP2B4NVbVtN2ATDaB+h6taWsQGwgDaGZm2Qm1ZAU3GS7we/zSON1KCDZzT
3mkA7cbaehrmMAH8Tj1SYAHRe/+ozquw9FkgBzjt1A35Rm69J5eTiiqRU290tXLr
IL2Fs5BFvBb4PbR81p4tCMf2BCeuNUEpEeAidoMWR362Z/NxN+NMAO8Y/rXq5mCM
MfvZR/Tq3V8QPnCQzZMWRv01MPACgTnLLG1oGe9FSqyRmkYu1mHs8WDs7W44D1zc
eO5KGmuO9ag=
-----END CERTIFICATE-----
