Certificate:
    Data:
        Version: 3 (0x2)
        Serial Number: 268435570 (0x10000072)
    Signature Algorithm: sha256WithRSAEncryption
        Issuer: CN=CA1_sha256_1024_65537_v3_ca
        Validity
            Not Before: Mar  7 15:15:47 2018 GMT
            Not After : Mar  4 15:15:47 2028 GMT
        Subject: CN=SRK3_sha256_1024_65537_v3_ca
        Subject Public Key Info:
            Public Key Algorithm: rsaEncryption
                Public-Key: (1024 bit)
                Modulus:
                    00:c3:f7:90:cc:20:f2:b4:8a:d4:a7:d8:fe:08:36:
                    fe:7d:47:31:7a:2e:03:41:5a:21:19:89:0d:1e:e1:
                    5b:0a:22:b6:0d:2a:a4:81:87:fc:32:46:00:d3:4f:
                    87:07:37:c2:e4:3b:2e:4f:74:90:56:5e:97:6a:94:
                    f5:76:cc:40:57:85:3f:a9:cb:31:c8:3d:cc:7e:40:
                    b9:ee:d3:01:54:5d:7a:97:6b:c7:d6:78:2e:b8:54:
                    4e:2e:f1:87:92:b9:bd:aa:45:b8:d5:57:3c:02:3a:
                    0c:bb:73:33:f9:e7:c4:4d:20:f4:64:96:dd:40:e6:
                    ec:77:78:3e:46:90:ed:af:a7
                Exponent: 65537 (0x10001)
        X509v3 extensions:
            X509v3 Subject Key Identifier: 
                1D:4F:0E:2E:05:79:82:CB:70:47:2E:6F:18:C0:9A:76:5B:E2:38:99
            X509v3 Authority Key Identifier: 
                keyid:1C:CC:24:5A:9C:B6:D6:70:93:C8:C3:11:95:6D:A3:BB:1A:35:78:C5
                DirName:/CN=CA1_sha256_1024_65537_v3_ca
                serial:F9:96:A0:48:CD:18:CB:23

            X509v3 Basic Constraints: critical
                CA:TRUE
            X509v3 Key Usage: 
                Certificate Sign
    Signature Algorithm: sha256WithRSAEncryption
         42:1a:c0:30:a5:a8:d2:e9:79:93:2e:55:90:6a:ac:57:84:17:
         ed:01:de:84:07:ad:c9:ce:f0:be:29:3a:96:58:64:3d:2a:82:
         74:19:4a:8e:f1:1b:7d:8d:73:86:e4:84:50:e6:81:fa:db:42:
         5b:de:f6:a2:73:e3:4a:5e:2b:b9:68:46:cf:f8:ca:f9:1d:b1:
         f1:56:9f:7a:8f:f0:4c:2f:eb:df:3d:78:80:be:f8:d6:93:37:
         16:92:d6:a2:3d:3d:6d:38:2a:ce:39:b9:70:67:c8:c5:0e:83:
         3a:6a:90:1e:96:86:7a:ef:e6:33:b1:85:bf:2a:3e:1b:46:dc:
         fb:90
-----BEGIN CERTIFICATE-----
MIICXzCCAcigAwIBAgIEEAAAcjANBgkqhkiG9w0BAQsFADAmMSQwIgYDVQQDFBtD
QTFfc2hhMjU2XzEwMjRfNjU1MzdfdjNfY2EwHhcNMTgwMzA3MTUxNTQ3WhcNMjgw
MzA0MTUxNTQ3WjAnMSUwIwYDVQQDDBxTUkszX3NoYTI1Nl8xMDI0XzY1NTM3X3Yz
X2NhMIGfMA0GCSqGSIb3DQEBAQUAA4GNADCBiQKBgQDD95DMIPK0itSn2P4INv59
RzF6LgNBWiEZiQ0e4VsKIrYNKqSBh/wyRgDTT4cHN8LkOy5PdJBWXpdqlPV2zEBX
hT+pyzHIPcx+QLnu0wFUXXqXa8fWeC64VE4u8YeSub2qRbjVVzwCOgy7czP558RN
IPRklt1A5ux3eD5GkO2vpwIDAQABo4GYMIGVMB0GA1UdDgQWBBQdTw4uBXmCy3BH
Lm8YwJp2W+I4mTBWBgNVHSMETzBNgBQczCRanLbWcJPIwxGVbaO7GjV4xaEqpCgw
JjEkMCIGA1UEAxQbQ0ExX3NoYTI1Nl8xMDI0XzY1NTM3X3YzX2NhggkA+ZagSM0Y
yyMwDwYDVR0TAQH/BAUwAwEB/zALBgNVHQ8EBAMCAgQwDQYJKoZIhvcNAQELBQAD
gYEAQhrAMKWo0ul5ky5VkGqsV4QX7QHehAetyc7wvik6llhkPSqCdBlKjvEbfY1z
huSEUOaB+ttCW972onPjSl4ruWhGz/jK+R2x8Vafeo/wTC/r3z14gL741pM3FpLW
oj09bTgqzjm5cGfIxQ6DOmqQHpaGeu/mM7GFvyo+G0bc+5A=
-----END CERTIFICATE-----
