Certificate:
    Data:
        Version: 3 (0x2)
        Serial Number: 268435573 (0x10000075)
    Signature Algorithm: sha256WithRSAEncryption
        Issuer: CN=CA1_sha256_1024_65537_v3_ca
        Validity
            Not Before: Mar  7 15:15:47 2018 GMT
            Not After : Mar  4 15:15:47 2028 GMT
        Subject: CN=SRK4_sha256_1024_65537_v3_ca
        Subject Public Key Info:
            Public Key Algorithm: rsaEncryption
                Public-Key: (1024 bit)
                Modulus:
                    00:c7:74:72:60:6c:93:58:bd:43:ab:c5:37:85:68:
                    20:5e:5a:6f:24:32:15:81:75:2c:40:37:ab:32:f0:
                    a9:a0:1e:ed:30:ba:03:31:8c:e6:11:53:6a:28:ad:
                    5d:fd:72:02:9d:7a:5a:b2:6d:37:9c:57:47:24:91:
                    97:4a:2f:8c:16:c9:d1:71:0d:a6:9e:c9:a7:d0:b0:
                    c2:fc:9c:9e:f8:6d:84:6e:c0:ca:db:15:a6:6d:04:
                    e4:62:3e:38:62:09:97:3a:87:35:fe:66:4a:2f:3c:
                    5f:88:ee:a1:ff:cb:0d:89:40:0b:bb:18:17:de:39:
                    2c:d8:bb:e5:ba:82:c0:a3:81
                Exponent: 65537 (0x10001)
        X509v3 extensions:
            X509v3 Subject Key Identifier: 
                1C:FF:B3:4A:AB:9E:78:38:8D:BB:33:7B:19:C2:35:22:57:D9:3E:58
            X509v3 Authority Key Identifier: 
                keyid:1C:CC:24:5A:9C:B6:D6:70:93:C8:C3:11:95:6D:A3:BB:1A:35:78:C5
                DirName:/CN=CA1_sha256_1024_65537_v3_ca
                serial:F9:96:A0:48:CD:18:CB:23

            X509v3 Basic Constraints: critical
                CA:TRUE
            X509v3 Key Usage: 
                Certificate Sign
    Signature Algorithm: sha256WithRSAEncryption
         06:f1:a9:a6:03:87:fc:46:7e:d9:f3:e8:e9:3f:39:84:2c:13:
         7b:70:bf:80:8c:ad:3d:df:36:ee:ed:dd:97:65:18:a8:af:e5:
         5c:f9:d6:f3:b2:e6:06:10:00:d7:53:ae:73:8e:ca:99:54:4e:
         cb:61:09:88:32:a9:b7:b2:55:cd:0a:e2:04:0a:cf:21:ad:7e:
         3e:0b:65:6a:0e:0c:ad:bb:62:ff:8c:44:3b:3c:05:e4:ca:fa:
         5d:d6:3b:2d:bc:47:e3:fe:c3:c0:3b:25:f1:59:23:db:18:6d:
         a7:78:84:31:cf:6a:30:3b:37:39:65:21:ba:39:3f:68:6b:b6:
         24:52
-----BEGIN CERTIFICATE-----
MIICXzCCAcigAwIBAgIEEAAAdTANBgkqhkiG9w0BAQsFADAmMSQwIgYDVQQDFBtD
QTFfc2hhMjU2XzEwMjRfNjU1MzdfdjNfY2EwHhcNMTgwMzA3MTUxNTQ3WhcNMjgw
MzA0MTUxNTQ3WjAnMSUwIwYDVQQDDBxTUks0X3NoYTI1Nl8xMDI0XzY1NTM3X3Yz
X2NhMIGfMA0GCSqGSIb3DQEBAQUAA4GNADCBiQKBgQDHdHJgbJNYvUOrxTeFaCBe
Wm8kMhWBdSxAN6sy8KmgHu0wugMxjOYRU2oorV39cgKdelqybTecV0ckkZdKL4wW
ydFxDaaeyafQsML8nJ74bYRuwMrbFaZtBORiPjhiCZc6hzX+ZkovPF+I7qH/yw2J
QAu7GBfeOSzYu+W6gsCjgQIDAQABo4GYMIGVMB0GA1UdDgQWBBQc/7NKq554OI27
M3sZwjUiV9k+WDBWBgNVHSMETzBNgBQczCRanLbWcJPIwxGVbaO7GjV4xaEqpCgw
JjEkMCIGA1UEAxQbQ0ExX3NoYTI1Nl8xMDI0XzY1NTM3X3YzX2NhggkA+ZagSM0Y
yyMwDwYDVR0TAQH/BAUwAwEB/zALBgNVHQ8EBAMCAgQwDQYJKoZIhvcNAQELBQAD
gYEABvGppgOH/EZ+2fPo6T85hCwTe3C/gIytPd827u3dl2UYqK/lXPnW87LmBhAA
11Ouc47KmVROy2EJiDKpt7JVzQriBArPIa1+Pgtlag4Mrbti/4xEOzwF5Mr6XdY7
LbxH4/7DwDsl8Vkj2xhtp3iEMc9qMDs3OWUhujk/aGu2JFI=
-----END CERTIFICATE-----
