Certificate:
    Data:
        Version: 3 (0x2)
        Serial Number: 268435585 (0x10000081)
    Signature Algorithm: sha256WithRSAEncryption
        Issuer: CN=CA1_sha256_2048_65537_v3_ca
        Validity
            Not Before: Mar  7 15:15:49 2018 GMT
            Not After : Mar  4 15:15:49 2028 GMT
        Subject: CN=SRK4_sha256_2048_65537_v3_ca
        Subject Public Key Info:
            Public Key Algorithm: rsaEncryption
                Public-Key: (2048 bit)
                Modulus:
                    00:d6:07:3a:92:a3:cb:d1:77:f6:a4:2a:c4:38:bb:
                    ec:2d:2c:af:2a:a8:f0:36:da:d5:51:3b:cb:ce:7f:
                    b5:af:bd:12:7e:90:e9:71:3e:ef:80:d6:00:53:86:
                    ec:e0:97:cb:1b:08:d2:8e:74:b9:12:1f:d0:be:1b:
                    3e:0a:d3:ee:76:08:91:37:57:a4:df:31:91:2e:d5:
                    b3:ec:68:3b:ba:47:52:35:de:c9:b4:07:44:c0:48:
                    57:e1:ce:47:21:d1:db:68:e3:a8:64:fa:5f:2c:a6:
                    c5:84:63:10:9c:cb:6b:a6:78:32:8d:8b:11:34:48:
                    ca:91:84:a5:ac:a6:ef:9b:73:1c:94:66:c6:ac:5f:
                    f1:aa:ab:7e:58:e5:83:19:ef:31:2d:95:1e:ab:9b:
                    39:2a:f8:d3:b1:46:cd:36:e2:46:4f:8d:ff:b1:dd:
                    61:98:0a:73:2d:56:73:79:aa:9c:99:ae:36:28:39:
                    27:32:b8:f7:94:c9:3f:36:66:90:1a:05:ea:95:a6:
                    1e:c2:9d:f6:39:0a:e0:56:91:80:b2:79:ea:ee:2c:
                    d5:3a:62:a3:13:d0:cf:3d:26:48:9f:8f:9c:b4:c9:
                    52:b9:f7:bd:39:8a:c3:ad:03:bd:37:34:35:90:5f:
                    1f:da:5e:30:56:45:19:16:c0:2e:78:73:1b:14:f1:
                    9d:b3
                Exponent: 65537 (0x10001)
        X509v3 extensions:
            X509v3 Subject Key Identifier: 
                B7:BC:B3:A1:15:FD:54:13:E8:8A:61:D8:96:C2:2A:8D:B2:0F:15:E3
            X509v3 Authority Key Identifier: 
                keyid:86:EC:75:45:A9:01:21:AF:03:4F:04:BE:E6:7F:A2:E1:F3:3D:4C:1C
                DirName:/CN=CA1_sha256_2048_65537_v3_ca
                serial:E2:D6:96:7D:80:1B:7E:9E

            X509v3 Basic Constraints: critical
                CA:TRUE
            X509v3 Key Usage: 
                Certificate Sign
    Signature Algorithm: sha256WithRSAEncryption
         38:4a:a4:c8:f8:ed:3f:cf:2c:31:d6:c5:f3:8b:af:d9:38:97:
         17:04:86:0d:b6:a3:70:42:8b:51:f4:d5:2b:50:1f:a3:2f:0c:
         64:04:0a:f9:42:5a:30:9e:d2:e7:18:dd:32:97:08:2d:42:b4:
         5a:4b:75:f0:2b:63:8d:c9:0e:f6:12:36:45:b8:ba:45:87:44:
         a1:dd:a2:7f:9a:76:46:dd:0d:f0:f4:92:0c:29:df:02:70:34:
         b9:3a:b4:66:83:51:18:5e:ed:11:c2:54:40:6f:a5:f6:56:4b:
         6e:3c:01:bb:b0:3a:bf:26:0e:57:8e:7d:d1:f9:99:6f:4f:fa:
         91:f3:a9:3a:2b:0f:dc:49:cc:72:bd:ea:a3:9e:06:27:2e:27:
         3a:19:6b:b4:70:bc:5b:64:67:17:23:25:b9:27:df:02:55:c6:
         68:7e:10:eb:87:58:37:1b:13:59:70:68:5f:09:df:ad:25:7d:
         99:60:f4:6f:ba:19:7f:2f:9d:ff:96:54:a7:cf:8e:2d:99:98:
         f3:2b:23:76:e0:23:d0:0a:fa:3e:12:fb:ab:a4:a5:30:e0:2b:
         ce:37:59:bb:9d:e0:1e:b9:ce:9a:74:b3:62:4b:d1:69:5c:5a:
         8d:78:0c:14:9b:10:20:30:f7:a9:8c:33:25:66:20:06:16:2e:
         f8:48:73:26
-----BEGIN CERTIFICATE-----
MIIDZDCCAkygAwIBAgIEEAAAgTANBgkqhkiG9w0BAQsFADAmMSQwIgYDVQQDFBtD
QTFfc2hhMjU2XzIwNDhfNjU1MzdfdjNfY2EwHhcNMTgwMzA3MTUxNTQ5WhcNMjgw
MzA0MTUxNTQ5WjAnMSUwIwYDVQQDDBxTUks0X3NoYTI1Nl8yMDQ4XzY1NTM3X3Yz
X2NhMIIBIjANBgkqhkiG9w0BAQEFAAOCAQ8AMIIBCgKCAQEA1gc6kqPL0Xf2pCrE
OLvsLSyvKqjwNtrVUTvLzn+1r70SfpDpcT7vgNYAU4bs4JfLGwjSjnS5Eh/Qvhs+
CtPudgiRN1ek3zGRLtWz7Gg7ukdSNd7JtAdEwEhX4c5HIdHbaOOoZPpfLKbFhGMQ
nMtrpngyjYsRNEjKkYSlrKbvm3MclGbGrF/xqqt+WOWDGe8xLZUeq5s5KvjTsUbN
NuJGT43/sd1hmApzLVZzeaqcma42KDknMrj3lMk/NmaQGgXqlaYewp32OQrgVpGA
snnq7izVOmKjE9DPPSZIn4+ctMlSufe9OYrDrQO9NzQ1kF8f2l4wVkUZFsAueHMb
FPGdswIDAQABo4GYMIGVMB0GA1UdDgQWBBS3vLOhFf1UE+iKYdiWwiqNsg8V4zBW
BgNVHSMETzBNgBSG7HVFqQEhrwNPBL7mf6Lh8z1MHKEqpCgwJjEkMCIGA1UEAxQb
Q0ExX3NoYTI1Nl8yMDQ4XzY1NTM3X3YzX2NhggkA4taWfYAbfp4wDwYDVR0TAQH/
BAUwAwEB/zALBgNVHQ8EBAMCAgQwDQYJKoZIhvcNAQELBQADggEBADhKpMj47T/P
LDHWxfOLr9k4lxcEhg22o3BCi1H01StQH6MvDGQECvlCWjCe0ucY3TKXCC1CtFpL
dfArY43JDvYSNkW4ukWHRKHdon+adkbdDfD0kgwp3wJwNLk6tGaDURhe7RHCVEBv
pfZWS248AbuwOr8mDleOfdH5mW9P+pHzqTorD9xJzHK96qOeBicuJzoZa7RwvFtk
ZxcjJbkn3wJVxmh+EOuHWDcbE1lwaF8J360lfZlg9G+6GX8vnf+WVKfPji2ZmPMr
I3bgI9AK+j4S+6ukpTDgK843Wbud4B65zpp0s2JL0WlcWo14DBSbECAw96mMMyVm
IAYWLvhIcyY=
-----END CERTIFICATE-----
