Certificate:
    Data:
        Version: 3 (0x2)
        Serial Number: 268435561 (0x10000069)
    Signature Algorithm: sha256WithRSAEncryption
        Issuer: CN=CA1_sha256_4096_65537_v3_ca
        Validity
            Not Before: Mar  7 15:13:39 2018 GMT
            Not After : Mar  4 15:13:39 2028 GMT
        Subject: CN=SRK4_sha256_4096_65537_v3_ca
        Subject Public Key Info:
            Public Key Algorithm: rsaEncryption
                Public-Key: (4096 bit)
                Modulus:
                    00:c0:6d:62:9f:af:6a:e3:56:c3:6f:09:06:03:03:
                    a8:1e:24:b0:be:46:cc:fc:8d:5f:14:b1:78:ac:40:
                    81:2d:b2:c2:ba:33:d9:b3:d1:a7:a1:0a:5a:67:d2:
                    27:9a:50:51:09:e0:91:bf:ff:12:36:0b:86:7e:3f:
                    62:ee:d0:4d:67:cf:7c:1c:81:f4:4a:34:41:87:b1:
                    f7:1f:4a:30:c3:3b:6b:6f:54:08:25:de:1b:69:26:
                    9a:bb:ba:65:1d:f2:b2:f0:d1:c9:93:e5:93:96:fb:
                    d1:23:75:40:c4:05:e2:93:04:c6:98:35:35:9f:de:
                    41:55:b3:6e:22:38:1e:ba:2f:69:41:d1:19:8d:b8:
                    97:64:bd:53:69:05:60:4f:86:27:bb:4f:20:f1:0f:
                    2c:fa:e2:fd:7d:13:fe:11:34:e9:d0:67:1c:f8:3f:
                    e6:e1:8c:34:03:19:df:b0:f8:ab:dc:ce:0d:9c:2e:
                    2d:b4:b5:62:ae:b1:14:78:63:a5:03:0a:3c:57:9c:
                    4d:cf:9c:f5:fb:f2:a6:f7:02:d5:ff:55:f0:a0:f0:
                    dd:76:73:de:8d:d8:34:cb:2b:03:e4:02:85:67:9a:
                    df:02:a0:90:5d:12:7d:57:f4:a9:16:a1:aa:ec:7b:
                    d7:73:98:88:8c:38:7d:aa:38:66:8d:51:c4:ba:e7:
                    ef:62:e5:34:c0:06:40:36:53:57:c3:04:55:c6:4d:
                    4f:cd:fc:e0:6e:e5:8e:bb:6e:3d:8b:6f:04:d1:5d:
                    89:40:7d:c5:18:32:46:ed:53:76:33:d3:6c:1c:91:
                    e4:67:1f:5f:d1:9d:42:30:50:98:be:aa:e8:34:a7:
                    e8:d4:6d:32:81:4f:2f:ae:0b:07:24:4b:32:29:e3:
                    0d:32:33:2a:08:72:b8:30:f9:11:2e:13:fb:72:7b:
                    01:22:5f:87:2d:11:32:f9:a5:13:ea:57:dc:da:f2:
                    26:6e:12:8b:1e:df:1c:a7:88:7e:7d:97:bc:d3:d5:
                    e4:66:47:08:22:01:08:f6:f6:bb:e7:e1:b5:e2:84:
                    f0:b7:16:12:4b:55:7b:56:10:8a:05:87:e1:2a:b2:
                    3c:38:f6:e9:f3:88:74:9b:55:67:eb:2d:27:9b:bb:
                    60:ce:58:3f:3a:56:4d:4a:66:79:88:94:5f:b6:2e:
                    f4:dd:cd:60:66:b2:8e:ab:59:54:10:ba:47:da:d7:
                    af:04:24:bb:b7:89:4d:fb:e7:ce:89:54:4c:4d:3b:
                    6d:cc:53:a7:6f:a3:b4:4d:cd:31:58:62:25:dd:22:
                    da:3a:d7:b6:cf:8d:3c:d1:5f:16:78:df:17:ab:ed:
                    7b:24:29:bb:ff:f6:63:3d:64:ca:7e:e5:fe:47:69:
                    1b:a6:a1
                Exponent: 65537 (0x10001)
        X509v3 extensions:
            X509v3 Subject Key Identifier: 
                18:3B:3A:F5:48:DD:E0:BA:CD:CF:1E:76:C5:E7:EF:F1:2A:37:A4:35
            X509v3 Authority Key Identifier: 
                keyid:43:D0:07:69:93:CB:C5:A1:1E:A1:BA:C9:22:A2:52:D7:90:DC:1A:FA
                DirName:/CN=CA1_sha256_4096_65537_v3_ca
                serial:B4:5E:9A:EE:F9:9D:BD:70

            X509v3 Basic Constraints: critical
                CA:TRUE
            X509v3 Key Usage: 
                Certificate Sign
    Signature Algorithm: sha256WithRSAEncryption
         3e:8f:5b:57:b9:e4:25:25:2e:ca:56:6a:a5:06:e5:32:a8:e5:
         9c:21:21:ee:f6:7c:06:b9:08:b6:bb:d0:52:32:ce:2e:f6:51:
         62:a8:c3:6f:68:e2:8c:be:2d:24:2c:d4:e0:88:33:9a:da:18:
         6c:27:d6:cb:ba:f3:d0:24:88:e3:a5:0d:74:17:64:43:f6:75:
         f4:cd:d0:4a:c1:ef:46:7e:9c:29:34:62:ce:33:de:7b:53:15:
         6b:7d:86:4f:35:de:33:9a:bd:d7:28:0f:11:69:87:39:41:1a:
         ca:a8:39:72:9b:0b:44:20:bf:26:f1:a1:50:a8:91:3a:aa:ac:
         df:f8:bc:48:8e:fd:c9:e2:fc:e6:2b:fc:09:03:63:04:7a:58:
         80:4a:9c:6b:9d:6f:34:1e:27:c3:12:f8:36:48:f2:f9:54:5c:
         c5:86:db:80:a4:7e:d0:4b:78:10:94:28:94:aa:f9:ac:71:59:
         b9:39:3c:02:1b:38:a6:90:10:4d:4f:17:ca:ce:5b:d5:c2:9e:
         85:8f:57:d9:89:7e:b3:49:58:de:b6:bc:6d:16:d6:c1:d8:77:
         12:dd:b2:db:48:a1:c7:a6:c3:ce:a2:68:91:71:ea:59:8f:70:
         65:08:66:37:56:ce:a1:a7:dd:c8:25:40:4b:29:fc:2b:90:ec:
         8b:fe:f5:7b:3a:58:51:7b:d5:b3:8c:f9:4f:3e:f9:ba:2f:58:
         b7:de:35:64:60:90:10:45:9c:f5:6d:9b:2d:d5:85:58:85:c6:
         f3:55:16:26:27:ba:49:db:ce:85:bb:5d:a6:01:08:4a:8d:d9:
         13:ec:bc:b5:09:d7:97:51:c0:be:2b:d1:cd:f2:16:1f:88:c3:
         83:94:6b:bb:2a:c4:94:30:77:ab:e3:76:54:b0:4a:6a:17:75:
         a7:75:f5:f2:67:49:af:af:45:c1:c3:cd:1a:95:aa:16:16:28:
         09:71:fd:7b:e0:5c:a0:0a:47:43:86:a6:40:06:17:b7:f1:29:
         c8:33:8e:b6:4e:69:0c:f3:68:0d:68:b4:4d:ff:e0:56:e0:d9:
         fc:a7:ee:34:c6:50:be:32:54:06:08:92:c5:7a:61:4b:6a:a1:
         67:e9:31:64:8b:e6:9c:2e:00:dd:41:b2:9c:67:dc:41:6b:06:
         ae:b6:cc:eb:42:02:64:c2:c9:8d:67:58:37:f7:cf:7f:58:11:
         b2:0b:05:ff:16:74:b4:2d:6c:8a:69:71:a3:12:c5:ce:f0:d8:
         47:e6:2d:6d:3c:28:c5:6d:8f:c1:8e:f5:f1:4b:38:4f:c1:5d:
         5d:78:7f:52:0c:93:d1:ca:eb:c4:41:c7:3b:e0:fd:10:b0:7b:
         44:db:5f:9a:39:c0:b0:cb
-----BEGIN CERTIFICATE-----
MIIFZDCCA0ygAwIBAgIEEAAAaTANBgkqhkiG9w0BAQsFADAmMSQwIgYDVQQDFBtD
QTFfc2hhMjU2XzQwOTZfNjU1MzdfdjNfY2EwHhcNMTgwMzA3MTUxMzM5WhcNMjgw
MzA0MTUxMzM5WjAnMSUwIwYDVQQDDBxTUks0X3NoYTI1Nl80MDk2XzY1NTM3X3Yz
X2NhMIICIjANBgkqhkiG9w0BAQEFAAOCAg8AMIICCgKCAgEAwG1in69q41bDbwkG
AwOoHiSwvkbM/I1fFLF4rECBLbLCujPZs9GnoQpaZ9InmlBRCeCRv/8SNguGfj9i
7tBNZ898HIH0SjRBh7H3H0owwztrb1QIJd4baSaau7plHfKy8NHJk+WTlvvRI3VA
xAXikwTGmDU1n95BVbNuIjgeui9pQdEZjbiXZL1TaQVgT4Ynu08g8Q8s+uL9fRP+
ETTp0Gcc+D/m4Yw0AxnfsPir3M4NnC4ttLVirrEUeGOlAwo8V5xNz5z1+/Km9wLV
/1XwoPDddnPejdg0yysD5AKFZ5rfAqCQXRJ9V/SpFqGq7HvXc5iIjDh9qjhmjVHE
uufvYuU0wAZANlNXwwRVxk1PzfzgbuWOu249i28E0V2JQH3FGDJG7VN2M9NsHJHk
Zx9f0Z1CMFCYvqroNKfo1G0ygU8vrgsHJEsyKeMNMjMqCHK4MPkRLhP7cnsBIl+H
LREy+aUT6lfc2vImbhKLHt8cp4h+fZe809XkZkcIIgEI9va75+G14oTwtxYSS1V7
VhCKBYfhKrI8OPbp84h0m1Vn6y0nm7tgzlg/OlZNSmZ5iJRfti703c1gZrKOq1lU
ELpH2tevBCS7t4lN++fOiVRMTTttzFOnb6O0Tc0xWGIl3SLaOte2z4080V8WeN8X
q+17JCm7//ZjPWTKfuX+R2kbpqECAwEAAaOBmDCBlTAdBgNVHQ4EFgQUGDs69Ujd
4LrNzx52xefv8So3pDUwVgYDVR0jBE8wTYAUQ9AHaZPLxaEeobrJIqJS15DcGvqh
KqQoMCYxJDAiBgNVBAMUG0NBMV9zaGEyNTZfNDA5Nl82NTUzN192M19jYYIJALRe
mu75nb1wMA8GA1UdEwEB/wQFMAMBAf8wCwYDVR0PBAQDAgIEMA0GCSqGSIb3DQEB
CwUAA4ICAQA+j1tXueQlJS7KVmqlBuUyqOWcISHu9nwGuQi2u9BSMs4u9lFiqMNv
aOKMvi0kLNTgiDOa2hhsJ9bLuvPQJIjjpQ10F2RD9nX0zdBKwe9GfpwpNGLOM957
UxVrfYZPNd4zmr3XKA8RaYc5QRrKqDlymwtEIL8m8aFQqJE6qqzf+LxIjv3J4vzm
K/wJA2MEeliASpxrnW80HifDEvg2SPL5VFzFhtuApH7QS3gQlCiUqvmscVm5OTwC
GzimkBBNTxfKzlvVwp6Fj1fZiX6zSVjetrxtFtbB2HcS3bLbSKHHpsPOomiRcepZ
j3BlCGY3Vs6hp93IJUBLKfwrkOyL/vV7OlhRe9WzjPlPPvm6L1i33jVkYJAQRZz1
bZst1YVYhcbzVRYmJ7pJ286Fu12mAQhKjdkT7Ly1CdeXUcC+K9HN8hYfiMODlGu7
KsSUMHer43ZUsEpqF3WndfXyZ0mvr0XBw80alaoWFigJcf174FygCkdDhqZABhe3
8SnIM462TmkM82gNaLRN/+BW4Nn8p+40xlC+MlQGCJLFemFLaqFn6TFki+acLgDd
QbKcZ9xBawautszrQgJkwsmNZ1g3989/WBGyCwX/FnS0LWyKaXGjEsXO8NhH5i1t
PCjFbY/BjvXxSzhPwV1deH9SDJPRyuvEQcc74P0QsHtE21+aOcCwyw==
-----END CERTIFICATE-----
