Certificate:
    Data:
        Version: 3 (0x2)
        Serial Number: 268435533 (0x1000004d)
    Signature Algorithm: sha256WithRSAEncryption
        Issuer: CN=SRK2_sha256_1024_65537_v3_ca
        Validity
            Not Before: Mar  7 15:13:29 2018 GMT
            Not After : Mar  4 15:13:29 2028 GMT
        Subject: CN=IMG2_1_sha256_1024_65537_v3_usr
        Subject Public Key Info:
            Public Key Algorithm: rsaEncryption
                Public-Key: (1024 bit)
                Modulus:
                    00:cd:d2:66:62:06:d5:38:1e:46:d7:3a:5b:6e:0f:
                    b2:b5:fe:83:f8:f3:41:50:ae:7e:46:6a:fc:34:19:
                    45:d0:59:bc:50:a0:58:d3:a5:00:5d:8b:b9:01:7c:
                    0a:7f:f0:f5:f6:d8:8c:c8:b9:c9:db:fe:97:e4:52:
                    58:6b:d0:bc:65:53:fd:54:d2:9a:12:7a:f4:36:95:
                    bd:61:42:80:40:33:50:01:90:6c:13:37:7e:55:93:
                    a8:4d:ea:7c:49:45:e9:2c:67:b0:62:56:13:d3:57:
                    e8:e8:ed:9c:4d:8c:27:f0:ca:23:dc:38:42:e3:c5:
                    d0:f6:cd:5a:55:8c:f3:a0:cd
                Exponent: 65537 (0x10001)
        X509v3 extensions:
            X509v3 Basic Constraints: 
                CA:FALSE
            Netscape Comment: 
                OpenSSL Generated Certificate
            X509v3 Subject Key Identifier: 
                61:2A:DC:0C:7B:A8:5A:C2:DE:EE:E1:9A:83:33:A5:D0:3D:FC:45:18
            X509v3 Authority Key Identifier: 
                keyid:AD:1D:37:3A:BD:F1:1B:5F:EB:C5:8B:20:C6:22:44:1E:00:1B:98:06

    Signature Algorithm: sha256WithRSAEncryption
         b4:53:7f:a8:c4:37:7e:64:ee:44:70:7e:8f:f1:68:4c:2e:40:
         3f:00:28:6a:f5:ff:51:3c:14:a2:09:ad:f0:6c:bf:f6:04:8b:
         ec:32:15:e8:9f:a4:be:7b:bc:8a:18:79:fc:ea:66:b0:72:33:
         d3:ee:85:37:ce:b2:c9:e2:18:b5:07:df:ee:ec:8f:63:38:47:
         8d:32:76:b7:ea:2c:55:04:39:9c:1f:17:9c:cc:b4:e5:15:eb:
         39:1a:34:16:23:5b:98:62:63:a3:58:52:e0:f3:90:08:e5:c7:
         f5:0a:e1:72:c8:84:68:fd:22:73:62:c0:75:81:51:25:a4:39:
         0d:cb
-----BEGIN CERTIFICATE-----
MIICRTCCAa6gAwIBAgIEEAAATTANBgkqhkiG9w0BAQsFADAnMSUwIwYDVQQDDBxT
UksyX3NoYTI1Nl8xMDI0XzY1NTM3X3YzX2NhMB4XDTE4MDMwNzE1MTMyOVoXDTI4
MDMwNDE1MTMyOVowKjEoMCYGA1UEAwwfSU1HMl8xX3NoYTI1Nl8xMDI0XzY1NTM3
X3YzX3VzcjCBnzANBgkqhkiG9w0BAQEFAAOBjQAwgYkCgYEAzdJmYgbVOB5G1zpb
bg+ytf6D+PNBUK5+Rmr8NBlF0Fm8UKBY06UAXYu5AXwKf/D19tiMyLnJ2/6X5FJY
a9C8ZVP9VNKaEnr0NpW9YUKAQDNQAZBsEzd+VZOoTep8SUXpLGewYlYT01fo6O2c
TYwn8Moj3DhC48XQ9s1aVYzzoM0CAwEAAaN7MHkwCQYDVR0TBAIwADAsBglghkgB
hvhCAQ0EHxYdT3BlblNTTCBHZW5lcmF0ZWQgQ2VydGlmaWNhdGUwHQYDVR0OBBYE
FGEq3Ax7qFrC3u7hmoMzpdA9/EUYMB8GA1UdIwQYMBaAFK0dNzq98Rtf68WLIMYi
RB4AG5gGMA0GCSqGSIb3DQEBCwUAA4GBALRTf6jEN35k7kRwfo/xaEwuQD8AKGr1
/1E8FKIJrfBsv/YEi+wyFeifpL57vIoYefzqZrByM9PuhTfOssniGLUH3+7sj2M4
R40ydrfqLFUEOZwfF5zMtOUV6zkaNBYjW5hiY6NYUuDzkAjlx/UK4XLIhGj9InNi
wHWBUSWkOQ3L
-----END CERTIFICATE-----
