Certificate:
    Data:
        Version: 3 (0x2)
        Serial Number: 268435531 (0x1000004b)
    Signature Algorithm: sha256WithRSAEncryption
        Issuer: CN=CA1_sha256_1024_65537_v3_ca
        Validity
            Not Before: Mar  7 15:13:29 2018 GMT
            Not After : Mar  4 15:13:29 2028 GMT
        Subject: CN=SRK2_sha256_1024_65537_v3_ca
        Subject Public Key Info:
            Public Key Algorithm: rsaEncryption
                Public-Key: (1024 bit)
                Modulus:
                    00:d9:2c:21:c0:2c:36:5d:db:a3:d7:81:3b:78:8f:
                    3b:6d:0b:8a:3b:13:ed:26:79:ec:ff:eb:99:1d:8b:
                    39:ae:1e:44:cd:3d:9a:23:5c:c2:03:43:a8:1f:2a:
                    19:ab:c0:4e:51:fc:46:57:29:5b:d9:8b:7a:9c:56:
                    49:57:6d:59:79:22:1b:bc:da:93:1e:9d:56:37:2e:
                    10:b8:53:3a:98:29:93:d9:27:e2:ad:ef:88:34:1e:
                    22:f9:9d:44:b2:41:5c:7d:42:36:f5:9c:c7:ba:90:
                    1b:d9:1f:21:5e:6f:19:92:78:49:1d:67:11:65:60:
                    43:1b:aa:ab:9d:71:dc:4f:51
                Exponent: 65537 (0x10001)
        X509v3 extensions:
            X509v3 Subject Key Identifier: 
                AD:1D:37:3A:BD:F1:1B:5F:EB:C5:8B:20:C6:22:44:1E:00:1B:98:06
            X509v3 Authority Key Identifier: 
                keyid:74:64:6E:26:30:BE:E2:DF:27:41:E5:E5:E0:D1:55:1C:90:33:0D:4A
                DirName:/CN=CA1_sha256_1024_65537_v3_ca
                serial:B1:9D:E8:9F:1E:CC:7C:8C

            X509v3 Basic Constraints: critical
                CA:TRUE
            X509v3 Key Usage: 
                Certificate Sign
    Signature Algorithm: sha256WithRSAEncryption
         3a:7a:40:7c:18:e1:32:84:4e:b5:07:fe:06:bc:6a:2d:2d:bc:
         f7:54:28:da:8c:d0:4d:85:2e:4d:f6:f8:99:1b:85:72:29:68:
         dd:c0:4f:34:33:80:47:41:be:eb:24:65:4e:19:b8:58:12:78:
         3c:bd:fe:18:6a:c6:db:c5:d8:67:69:4f:28:d4:2b:43:e4:a3:
         7a:d6:c8:c4:20:ec:2f:1a:e9:6e:8d:c3:fd:28:2e:cf:51:38:
         b9:eb:88:36:1f:5c:4e:06:e4:02:81:1c:02:3c:42:9c:fc:88:
         9b:4a:c0:e7:01:8f:9e:8a:55:33:52:1e:fd:ac:1f:bd:c8:cf:
         51:f4
-----BEGIN CERTIFICATE-----
MIICXzCCAcigAwIBAgIEEAAASzANBgkqhkiG9w0BAQsFADAmMSQwIgYDVQQDFBtD
QTFfc2hhMjU2XzEwMjRfNjU1MzdfdjNfY2EwHhcNMTgwMzA3MTUxMzI5WhcNMjgw
MzA0MTUxMzI5WjAnMSUwIwYDVQQDDBxTUksyX3NoYTI1Nl8xMDI0XzY1NTM3X3Yz
X2NhMIGfMA0GCSqGSIb3DQEBAQUAA4GNADCBiQKBgQDZLCHALDZd26PXgTt4jztt
C4o7E+0meez/65kdizmuHkTNPZojXMIDQ6gfKhmrwE5R/EZXKVvZi3qcVklXbVl5
Ihu82pMenVY3LhC4UzqYKZPZJ+Kt74g0HiL5nUSyQVx9Qjb1nMe6kBvZHyFebxmS
eEkdZxFlYEMbqqudcdxPUQIDAQABo4GYMIGVMB0GA1UdDgQWBBStHTc6vfEbX+vF
iyDGIkQeABuYBjBWBgNVHSMETzBNgBR0ZG4mML7i3ydB5eXg0VUckDMNSqEqpCgw
JjEkMCIGA1UEAxQbQ0ExX3NoYTI1Nl8xMDI0XzY1NTM3X3YzX2NhggkAsZ3onx7M
fIwwDwYDVR0TAQH/BAUwAwEB/zALBgNVHQ8EBAMCAgQwDQYJKoZIhvcNAQELBQAD
gYEAOnpAfBjhMoROtQf+BrxqLS2891Qo2ozQTYUuTfb4mRuFcilo3cBPNDOAR0G+
6yRlThm4WBJ4PL3+GGrG28XYZ2lPKNQrQ+SjetbIxCDsLxrpbo3D/Sguz1E4ueuI
Nh9cTgbkAoEcAjxCnPyIm0rA5wGPnopVM1Ie/awfvcjPUfQ=
-----END CERTIFICATE-----
