Certificate:
    Data:
        Version: 3 (0x2)
        Serial Number: 268435563 (0x1000006b)
    Signature Algorithm: sha256WithRSAEncryption
        Issuer: CN=SRK4_sha256_4096_65537_v3_ca
        Validity
            Not Before: Mar  7 15:13:40 2018 GMT
            Not After : Mar  4 15:13:40 2028 GMT
        Subject: CN=IMG4_1_sha256_4096_65537_v3_usr
        Subject Public Key Info:
            Public Key Algorithm: rsaEncryption
                Public-Key: (4096 bit)
                Modulus:
                    00:bf:9c:36:85:8c:0c:c0:9d:2f:6a:22:16:e5:25:
                    c9:9d:db:0d:78:84:44:35:75:83:0c:34:d4:e5:0e:
                    7d:16:99:e7:78:20:c3:37:1e:ce:37:a0:92:ee:23:
                    9a:4d:15:2a:fe:3b:0e:fe:fe:ec:1a:33:b8:ba:93:
                    0e:35:67:13:f9:ac:20:62:72:a0:0d:06:d1:00:63:
                    c7:74:bb:34:46:1a:ea:5c:36:73:24:90:3c:a5:a5:
                    fb:4a:63:76:37:37:17:2c:cc:51:92:e8:85:a6:a5:
                    de:6b:bb:37:40:8f:fe:6e:31:b7:ee:22:11:ba:a5:
                    f9:c5:1b:ea:f7:07:fd:26:1b:f4:08:d2:29:bd:6c:
                    47:ec:73:ec:e8:4d:66:e1:79:af:bc:80:ee:e2:a4:
                    1f:e5:eb:ec:aa:b1:8e:cf:22:6f:5f:8d:a0:84:22:
                    78:cf:3f:4b:1a:e3:70:6b:ee:9c:33:d3:2c:02:21:
                    86:ff:a9:06:55:01:55:ea:15:ab:2d:3c:e7:53:ac:
                    ff:ba:9c:7d:2a:e2:ad:9f:42:bb:0c:08:67:c1:ad:
                    31:13:d3:06:1d:2e:6d:b3:9b:ee:db:cc:9a:99:a1:
                    63:96:f8:3e:1d:6e:64:4f:50:c6:1c:8e:cf:9e:1f:
                    ea:56:bd:52:d6:88:aa:2a:37:4f:66:54:18:d1:3b:
                    d6:60:3f:1e:d3:b2:48:ea:c9:0a:88:58:3f:ff:69:
                    0e:24:34:62:ea:0e:57:e5:63:a5:80:f4:92:7d:bc:
                    7d:6d:55:e1:48:c7:9a:e5:a3:ca:d5:91:ff:ab:ce:
                    8c:05:95:43:41:39:dd:26:01:29:63:1d:e6:d9:fd:
                    99:cb:aa:9c:83:6f:b6:a3:ac:68:8c:31:a6:d4:db:
                    cb:91:69:1b:fd:da:6b:1f:09:9a:6c:68:28:ad:ea:
                    b1:1f:dc:8f:ee:7a:5f:1e:fb:c2:ce:eb:2d:08:fa:
                    93:48:30:27:3a:4a:15:6e:8f:93:bc:5e:fd:98:0c:
                    52:ec:7d:27:62:8b:62:c2:c4:ff:e8:76:8f:ad:af:
                    0d:6c:54:03:01:f2:91:72:3f:90:08:a4:a2:1a:88:
                    40:a6:dd:04:76:bc:2e:18:50:8f:5d:94:81:4d:1f:
                    d0:7e:fa:de:1b:d7:ae:12:4c:10:c8:d9:c5:5f:6a:
                    77:38:d0:89:e1:d0:8e:33:5a:f0:fd:1d:c6:7e:f4:
                    6d:aa:ad:ee:47:e5:79:73:42:dc:cd:5d:78:57:fb:
                    ee:68:05:ed:99:bd:4a:bc:f7:60:8b:06:ea:07:ec:
                    e2:c2:a6:ff:74:6e:11:4d:c5:1d:98:14:f3:cf:53:
                    55:9d:e5:b0:7f:a2:08:92:96:82:97:40:96:af:b4:
                    8f:0b:ef
                Exponent: 65537 (0x10001)
        X509v3 extensions:
            X509v3 Basic Constraints: 
                CA:FALSE
            Netscape Comment: 
                OpenSSL Generated Certificate
            X509v3 Subject Key Identifier: 
                B8:A8:06:80:F5:72:46:91:E8:CD:9F:15:12:21:4A:22:75:6F:97:5B
            X509v3 Authority Key Identifier: 
                keyid:18:3B:3A:F5:48:DD:E0:BA:CD:CF:1E:76:C5:E7:EF:F1:2A:37:A4:35

    Signature Algorithm: sha256WithRSAEncryption
         34:b3:31:a0:c9:50:ce:e2:28:56:99:2d:46:45:b7:c8:d0:ad:
         a5:da:6c:3d:2f:43:3a:0f:82:f9:ea:8e:e8:b5:fe:6b:eb:1c:
         d1:5c:e5:a5:1c:41:15:3c:25:66:b5:ff:d2:c9:37:2d:45:47:
         b4:2d:d8:67:d2:85:63:5e:dd:3d:47:b7:56:61:7f:23:12:c5:
         dd:94:22:2d:9e:01:7f:cf:78:d8:14:82:8f:b3:09:e8:6b:89:
         91:d6:f6:93:83:13:ff:84:b2:e4:c0:e1:92:ce:48:3e:59:ce:
         dd:03:b1:23:2f:59:8f:a6:6f:f3:6c:76:11:9a:f8:28:83:63:
         e6:0d:cf:8e:2d:27:4d:d2:fc:47:62:25:83:71:77:69:e8:5b:
         e5:40:c0:24:49:fd:65:b8:96:69:7d:f3:ce:91:28:73:6d:67:
         89:d3:a1:4b:ca:55:64:e2:ec:0a:b9:6d:e3:a4:fe:9e:4d:9f:
         99:7a:5d:0c:e5:2d:14:c4:16:55:5e:e4:bf:96:8d:84:64:7a:
         68:91:6e:a3:93:0a:16:34:55:be:d8:45:3b:fa:db:91:65:16:
         ce:70:e6:6b:56:6b:da:0b:dc:55:23:c3:4f:68:32:64:e2:6f:
         97:ac:8e:5b:c9:19:d1:4c:3a:52:28:7e:82:3c:23:d1:eb:dd:
         28:3f:22:54:0c:3d:bc:84:eb:ec:ef:05:d8:c8:45:91:ad:e7:
         fb:69:8c:0b:0e:5d:a8:b1:20:ce:e6:c0:e6:a0:c2:36:c2:fd:
         af:51:7e:b8:f1:74:32:60:06:b3:b6:99:86:db:21:ec:d1:2d:
         6e:95:ee:f1:ac:40:64:cb:7a:43:53:28:b1:93:9e:73:82:94:
         60:13:1c:66:65:01:a8:1b:65:93:5d:11:e1:f9:54:d8:10:00:
         b1:f7:a3:de:bc:a5:0e:48:7a:c4:0f:a1:0c:ad:27:cc:8e:f6:
         ef:d7:b0:bd:77:e1:17:04:d8:d0:91:91:ff:f1:05:03:e8:d9:
         ba:b8:63:5c:00:e4:ff:d3:f6:11:4d:12:a8:09:0f:ba:f8:95:
         e4:96:5d:1b:a7:df:1c:7c:7c:1b:a9:6b:16:c2:24:a9:2b:ea:
         21:2e:eb:15:84:3e:c7:ec:98:4c:2e:e8:9e:fb:7e:ea:2c:49:
         95:ac:7a:12:2e:9b:91:62:3d:00:10:fc:60:df:92:ad:01:a8:
         4a:c1:81:9a:1c:6f:e0:95:16:c8:a0:33:e7:8c:44:fd:c0:7f:
         30:d7:d8:57:17:41:61:77:a9:39:e4:22:0b:a7:dd:e7:1a:7b:
         f8:f1:88:87:94:f2:79:e6:55:1d:d0:6e:74:3b:f8:92:8f:d4:
         24:c5:52:15:1a:f5:1d:05
-----BEGIN CERTIFICATE-----
MIIFSjCCAzKgAwIBAgIEEAAAazANBgkqhkiG9w0BAQsFADAnMSUwIwYDVQQDDBxT
Uks0X3NoYTI1Nl80MDk2XzY1NTM3X3YzX2NhMB4XDTE4MDMwNzE1MTM0MFoXDTI4
MDMwNDE1MTM0MFowKjEoMCYGA1UEAwwfSU1HNF8xX3NoYTI1Nl80MDk2XzY1NTM3
X3YzX3VzcjCCAiIwDQYJKoZIhvcNAQEBBQADggIPADCCAgoCggIBAL+cNoWMDMCd
L2oiFuUlyZ3bDXiERDV1gww01OUOfRaZ53ggwzcezjegku4jmk0VKv47Dv7+7Boz
uLqTDjVnE/msIGJyoA0G0QBjx3S7NEYa6lw2cySQPKWl+0pjdjc3FyzMUZLohaal
3mu7N0CP/m4xt+4iEbql+cUb6vcH/SYb9AjSKb1sR+xz7OhNZuF5r7yA7uKkH+Xr
7Kqxjs8ib1+NoIQieM8/SxrjcGvunDPTLAIhhv+pBlUBVeoVqy0851Os/7qcfSri
rZ9CuwwIZ8GtMRPTBh0ubbOb7tvMmpmhY5b4Ph1uZE9QxhyOz54f6la9UtaIqio3
T2ZUGNE71mA/HtOySOrJCohYP/9pDiQ0YuoOV+VjpYD0kn28fW1V4UjHmuWjytWR
/6vOjAWVQ0E53SYBKWMd5tn9mcuqnINvtqOsaIwxptTby5FpG/3aax8JmmxoKK3q
sR/cj+56Xx77ws7rLQj6k0gwJzpKFW6Pk7xe/ZgMUux9J2KLYsLE/+h2j62vDWxU
AwHykXI/kAikohqIQKbdBHa8LhhQj12UgU0f0H763hvXrhJMEMjZxV9qdzjQieHQ
jjNa8P0dxn70baqt7kfleXNC3M1deFf77mgF7Zm9Srz3YIsG6gfs4sKm/3RuEU3F
HZgU889TVZ3lsH+iCJKWgpdAlq+0jwvvAgMBAAGjezB5MAkGA1UdEwQCMAAwLAYJ
YIZIAYb4QgENBB8WHU9wZW5TU0wgR2VuZXJhdGVkIENlcnRpZmljYXRlMB0GA1Ud
DgQWBBS4qAaA9XJGkejNnxUSIUoidW+XWzAfBgNVHSMEGDAWgBQYOzr1SN3gus3P
HnbF5+/xKjekNTANBgkqhkiG9w0BAQsFAAOCAgEANLMxoMlQzuIoVpktRkW3yNCt
pdpsPS9DOg+C+eqO6LX+a+sc0VzlpRxBFTwlZrX/0sk3LUVHtC3YZ9KFY17dPUe3
VmF/IxLF3ZQiLZ4Bf8942BSCj7MJ6GuJkdb2k4MT/4Sy5MDhks5IPlnO3QOxIy9Z
j6Zv82x2EZr4KINj5g3Pji0nTdL8R2Ilg3F3aehb5UDAJEn9ZbiWaX3zzpEoc21n
idOhS8pVZOLsCrlt46T+nk2fmXpdDOUtFMQWVV7kv5aNhGR6aJFuo5MKFjRVvthF
O/rbkWUWznDma1Zr2gvcVSPDT2gyZOJvl6yOW8kZ0Uw6Uih+gjwj0evdKD8iVAw9
vITr7O8F2MhFka3n+2mMCw5dqLEgzubA5qDCNsL9r1F+uPF0MmAGs7aZhtsh7NEt
bpXu8axAZMt6Q1MosZOec4KUYBMcZmUBqBtlk10R4flU2BAAsfej3rylDkh6xA+h
DK0nzI7279ewvXfhFwTY0JGR//EFA+jZurhjXADk/9P2EU0SqAkPuviV5JZdG6ff
HHx8G6lrFsIkqSvqIS7rFYQ+x+yYTC7onvt+6ixJlax6Ei6bkWI9ABD8YN+SrQGo
SsGBmhxv4JUWyKAz54xE/cB/MNfYVxdBYXepOeQiC6fd5xp7+PGIh5TyeeZVHdBu
dDv4ko/UJMVSFRr1HQU=
-----END CERTIFICATE-----
