Certificate:
    Data:
        Version: 3 (0x2)
        Serial Number: 268435557 (0x10000065)
    Signature Algorithm: sha256WithRSAEncryption
        Issuer: CN=SRK2_sha256_4096_65537_v3_ca
        Validity
            Not Before: Mar  7 15:13:36 2018 GMT
            Not After : Mar  4 15:13:36 2028 GMT
        Subject: CN=IMG2_1_sha256_4096_65537_v3_usr
        Subject Public Key Info:
            Public Key Algorithm: rsaEncryption
                Public-Key: (4096 bit)
                Modulus:
                    00:cc:6f:4e:b6:b0:c8:2e:67:55:0d:12:06:88:55:
                    b6:a3:b4:f0:ab:a3:1c:2d:ed:34:95:9e:39:2a:94:
                    fb:d3:f9:24:a6:94:0b:81:f1:68:0f:e5:9c:b1:e8:
                    93:f6:53:b7:5c:af:f9:db:1e:75:26:73:76:51:23:
                    98:ea:25:8b:49:3a:7d:28:fe:b1:ef:fd:b2:b4:73:
                    d5:59:6f:87:0d:81:e3:bb:3a:45:ce:9f:b5:09:de:
                    85:b6:61:fa:09:f8:d0:ee:b8:d3:eb:4a:50:b4:ac:
                    02:39:1a:ba:df:99:3e:55:bd:65:61:7d:90:03:fe:
                    ca:31:32:c8:43:37:5e:71:53:97:80:03:14:11:12:
                    e3:2d:24:36:38:44:9e:44:5e:97:d2:52:78:a6:c0:
                    e4:ad:0b:70:54:46:ab:50:e9:5b:0e:99:cc:d8:54:
                    24:83:6b:0e:8d:0c:05:21:fc:17:8d:3b:0a:7d:9a:
                    64:5e:2c:5f:05:c8:36:2e:b0:b7:22:9c:88:91:0c:
                    b9:9a:46:e4:b8:9c:4c:61:56:ca:73:e7:9c:68:2b:
                    c7:79:d9:7e:53:48:08:a9:50:c6:ab:c0:c6:b1:a1:
                    f7:1f:bf:87:86:b5:d1:ed:36:40:6a:73:ed:ea:14:
                    be:3d:c3:22:23:65:06:47:81:70:08:52:ab:38:3d:
                    6e:a3:13:17:9a:d8:8e:04:4f:83:6e:75:28:c1:7a:
                    e1:22:59:a1:ee:31:c6:e0:29:ae:88:e2:04:29:eb:
                    a2:ad:ff:e5:49:d4:56:0c:8f:90:72:92:dd:ff:c2:
                    6e:1b:52:19:7c:a4:9e:4a:4c:f9:56:68:24:28:b3:
                    af:52:4d:bc:05:0c:97:89:b3:9a:ce:a0:cd:cd:6a:
                    0e:17:e0:ad:4f:22:09:fe:2f:f4:bf:09:f7:03:cb:
                    e6:9b:71:cf:19:38:44:2c:f0:4f:98:70:73:38:dd:
                    a2:5a:ca:1d:f3:54:44:e7:73:ef:ce:97:35:0f:da:
                    9d:11:91:7b:4a:bc:74:b1:17:43:53:b0:8e:f6:32:
                    af:f3:24:44:d7:08:8f:1e:e6:d8:7d:90:e6:db:a5:
                    90:ed:48:ef:61:b0:85:9a:f9:e5:c7:d1:c9:01:e8:
                    5a:dc:c5:3b:49:9c:4b:8d:4f:f8:4a:d4:ce:59:0d:
                    da:1f:67:6a:ff:ad:92:78:49:42:09:4d:b6:b0:da:
                    af:67:81:41:aa:53:af:50:98:06:3f:a4:b9:a4:ce:
                    fa:c3:2d:88:64:b3:33:4e:fa:ef:78:20:a0:c2:a4:
                    c5:f8:1d:0c:7b:1e:df:83:ad:79:98:f5:dc:ff:09:
                    a6:34:a1:62:91:e5:2d:db:b6:c0:52:f4:66:97:b0:
                    84:ba:4b
                Exponent: 65537 (0x10001)
        X509v3 extensions:
            X509v3 Basic Constraints: 
                CA:FALSE
            Netscape Comment: 
                OpenSSL Generated Certificate
            X509v3 Subject Key Identifier: 
                9E:7F:48:49:D5:7F:21:64:00:36:19:7F:72:2E:05:59:1F:98:DA:9C
            X509v3 Authority Key Identifier: 
                keyid:CD:95:8D:6D:65:DB:26:B4:13:CD:0B:B3:DA:77:87:25:77:07:FF:41

    Signature Algorithm: sha256WithRSAEncryption
         99:f4:ee:9f:2f:1d:af:ff:32:94:ab:14:2a:e8:e1:b7:e6:28:
         ce:f3:9c:e9:f9:17:4e:c3:99:a2:5b:80:cf:94:d9:34:f6:8f:
         20:06:06:ab:a9:a0:11:16:cd:5f:2f:f7:df:b3:07:7c:89:0e:
         bb:b6:c3:25:30:b1:39:ba:71:7f:ce:30:6e:94:b3:1c:1a:ac:
         44:b7:17:e5:12:94:ec:e7:84:45:e9:2c:50:a5:cf:0f:9a:74:
         a3:53:b3:23:0b:35:3c:3c:6a:8c:5e:19:1b:68:7d:fb:2a:ce:
         d1:e0:5f:c5:91:0b:68:6c:18:6a:eb:88:97:6c:4b:eb:06:90:
         94:a0:fb:a1:f9:0b:e7:9c:14:b3:b4:c8:c9:53:8d:06:be:51:
         86:2a:90:4a:5c:e6:c8:a5:63:70:44:98:7e:ac:2e:41:a3:67:
         20:38:5e:e2:93:b4:7f:df:03:44:37:15:65:8b:69:d5:e0:41:
         3c:a4:4d:52:e7:82:ef:7c:8e:8a:d8:f8:3e:39:f6:31:e5:7d:
         8f:a4:0f:ae:19:4c:f2:9a:bd:e7:1e:d6:7d:73:33:af:eb:7d:
         01:16:43:99:dd:b6:fa:7a:e1:a1:ab:1b:aa:f1:d5:f4:3d:e1:
         00:59:57:79:cb:0e:f5:3c:69:95:0a:ca:b4:50:31:5c:82:9c:
         f8:1b:cd:ee:eb:c4:c0:83:9e:23:b3:c6:0a:d5:7a:ff:5b:5e:
         1d:6f:71:38:72:fd:15:f3:d2:1b:e9:73:07:a1:82:8e:b6:80:
         06:ea:c6:81:c0:87:d9:53:9b:a5:e4:54:a9:3d:95:8a:69:c8:
         db:f2:e1:71:6d:24:ad:af:6b:b6:36:18:78:69:af:54:ac:42:
         00:59:71:12:46:1d:b9:c3:b4:32:1d:47:3e:d5:a0:f1:ef:5b:
         bc:41:b7:e9:69:a1:f4:2b:5b:8f:90:df:88:2a:33:00:40:95:
         05:71:3c:c5:53:25:df:e5:c2:d1:91:dd:23:a1:60:20:1a:23:
         e1:42:5b:da:40:2b:62:7b:0c:89:ec:bf:47:1c:dc:bb:52:a6:
         06:10:da:77:1f:39:56:8d:9b:96:2a:78:88:dc:c8:b6:7f:81:
         f5:88:11:71:8c:92:61:03:ba:8f:e4:5d:0c:6c:a3:a0:d9:88:
         4a:b5:48:87:98:af:73:6f:28:50:40:a6:dd:38:3e:bb:2f:71:
         bd:ec:82:a6:a9:cd:be:6d:55:17:38:e4:42:9f:2f:e0:1f:7a:
         06:00:89:19:05:6f:68:46:a3:ab:40:ea:71:d0:e7:69:53:7b:
         58:75:15:1c:a1:db:71:b0:c9:e2:6c:b8:6b:05:54:84:8b:a3:
         fc:54:2e:84:46:16:f3:4b
-----BEGIN CERTIFICATE-----
MIIFSjCCAzKgAwIBAgIEEAAAZTANBgkqhkiG9w0BAQsFADAnMSUwIwYDVQQDDBxT
UksyX3NoYTI1Nl80MDk2XzY1NTM3X3YzX2NhMB4XDTE4MDMwNzE1MTMzNloXDTI4
MDMwNDE1MTMzNlowKjEoMCYGA1UEAwwfSU1HMl8xX3NoYTI1Nl80MDk2XzY1NTM3
X3YzX3VzcjCCAiIwDQYJKoZIhvcNAQEBBQADggIPADCCAgoCggIBAMxvTrawyC5n
VQ0SBohVtqO08KujHC3tNJWeOSqU+9P5JKaUC4HxaA/lnLHok/ZTt1yv+dsedSZz
dlEjmOoli0k6fSj+se/9srRz1Vlvhw2B47s6Rc6ftQnehbZh+gn40O640+tKULSs
Ajkaut+ZPlW9ZWF9kAP+yjEyyEM3XnFTl4ADFBES4y0kNjhEnkRel9JSeKbA5K0L
cFRGq1DpWw6ZzNhUJINrDo0MBSH8F407Cn2aZF4sXwXINi6wtyKciJEMuZpG5Lic
TGFWynPnnGgrx3nZflNICKlQxqvAxrGh9x+/h4a10e02QGpz7eoUvj3DIiNlBkeB
cAhSqzg9bqMTF5rYjgRPg251KMF64SJZoe4xxuAprojiBCnroq3/5UnUVgyPkHKS
3f/CbhtSGXyknkpM+VZoJCizr1JNvAUMl4mzms6gzc1qDhfgrU8iCf4v9L8J9wPL
5ptxzxk4RCzwT5hwczjdolrKHfNUROdz786XNQ/anRGRe0q8dLEXQ1OwjvYyr/Mk
RNcIjx7m2H2Q5tulkO1I72GwhZr55cfRyQHoWtzFO0mcS41P+ErUzlkN2h9nav+t
knhJQglNtrDar2eBQapTr1CYBj+kuaTO+sMtiGSzM07673ggoMKkxfgdDHse34Ot
eZj13P8JpjShYpHlLdu2wFL0ZpewhLpLAgMBAAGjezB5MAkGA1UdEwQCMAAwLAYJ
YIZIAYb4QgENBB8WHU9wZW5TU0wgR2VuZXJhdGVkIENlcnRpZmljYXRlMB0GA1Ud
DgQWBBSef0hJ1X8hZAA2GX9yLgVZH5janDAfBgNVHSMEGDAWgBTNlY1tZdsmtBPN
C7Pad4cldwf/QTANBgkqhkiG9w0BAQsFAAOCAgEAmfTuny8dr/8ylKsUKujht+Yo
zvOc6fkXTsOZoluAz5TZNPaPIAYGq6mgERbNXy/337MHfIkOu7bDJTCxObpxf84w
bpSzHBqsRLcX5RKU7OeEReksUKXPD5p0o1OzIws1PDxqjF4ZG2h9+yrO0eBfxZEL
aGwYauuIl2xL6waQlKD7ofkL55wUs7TIyVONBr5RhiqQSlzmyKVjcESYfqwuQaNn
IDhe4pO0f98DRDcVZYtp1eBBPKRNUueC73yOitj4Pjn2MeV9j6QPrhlM8pq95x7W
fXMzr+t9ARZDmd22+nrhoasbqvHV9D3hAFlXecsO9TxplQrKtFAxXIKc+BvN7uvE
wIOeI7PGCtV6/1teHW9xOHL9FfPSG+lzB6GCjraABurGgcCH2VObpeRUqT2VimnI
2/LhcW0kra9rtjYYeGmvVKxCAFlxEkYducO0Mh1HPtWg8e9bvEG36Wmh9Ctbj5Df
iCozAECVBXE8xVMl3+XC0ZHdI6FgIBoj4UJb2kArYnsMiey/Rxzcu1KmBhDadx85
Vo2blip4iNzItn+B9YgRcYySYQO6j+RdDGyjoNmISrVIh5ivc28oUECm3Tg+uy9x
veyCpqnNvm1VFzjkQp8v4B96BgCJGQVvaEajq0DqcdDnaVN7WHUVHKHbcbDJ4my4
awVUhIuj/FQuhEYW80s=
-----END CERTIFICATE-----
