Certificate:
    Data:
        Version: 3 (0x2)
        Serial Number: 268435560 (0x10000068)
    Signature Algorithm: sha256WithRSAEncryption
        Issuer: CN=SRK3_sha256_4096_65537_v3_ca
        Validity
            Not Before: Mar  7 15:13:38 2018 GMT
            Not After : Mar  4 15:13:38 2028 GMT
        Subject: CN=IMG3_1_sha256_4096_65537_v3_usr
        Subject Public Key Info:
            Public Key Algorithm: rsaEncryption
                Public-Key: (4096 bit)
                Modulus:
                    00:c2:4d:17:23:6f:d2:a6:e0:f9:a5:4d:b6:13:86:
                    16:a2:6d:de:ae:d5:b6:58:aa:42:d8:27:02:27:c1:
                    3a:5f:5a:10:ea:b8:62:63:a6:1b:aa:d1:de:0d:ad:
                    5f:09:65:b9:c6:0e:7b:9d:0b:7a:85:de:e7:d8:ef:
                    11:5f:87:3b:75:d2:e8:7f:ae:cd:38:ea:05:4a:74:
                    4c:03:0b:a7:e1:81:3c:1f:b2:9c:69:07:05:cf:9a:
                    99:8f:f3:2c:a9:1b:84:4d:5c:ff:99:63:e9:cb:ea:
                    7b:0d:43:3c:fd:08:ba:a5:32:73:90:96:98:be:1d:
                    db:d5:ac:da:fa:84:6f:a1:cf:b2:05:22:fa:71:d1:
                    ac:d4:0c:91:10:1d:a7:24:64:f3:44:03:0a:5f:4e:
                    c2:be:d8:4a:ba:eb:88:35:48:17:cc:a0:98:4d:b5:
                    65:5a:3b:46:a8:36:44:1c:4a:3c:d8:3f:71:db:87:
                    98:30:21:b8:00:80:1d:10:c5:43:f6:da:89:d2:6f:
                    77:46:5a:2a:f4:fb:d4:d1:45:9e:54:46:42:6f:21:
                    0d:20:5d:8d:ee:56:f7:e1:4a:91:15:53:fc:26:3f:
                    b1:87:30:ff:40:72:c9:f8:dd:e9:22:cd:76:9d:8f:
                    ea:56:4a:84:d0:e8:78:8d:30:0d:25:32:f3:e6:08:
                    37:88:dd:e6:6c:ff:4e:66:6d:94:14:24:23:a9:22:
                    77:89:9e:1f:86:36:cf:70:b3:ce:cc:76:7c:2c:21:
                    3c:75:06:c9:39:29:84:89:5d:7c:18:40:a0:c9:4d:
                    38:9b:09:d4:18:86:d4:ff:a1:58:6b:0c:aa:71:4e:
                    07:aa:c9:2c:6b:e6:a4:cb:84:40:4c:f7:30:c5:bf:
                    2a:98:b4:c7:9b:9e:e7:78:9a:26:9b:5f:48:cd:c6:
                    a3:0d:3f:42:e0:bf:19:92:19:ec:81:5a:6a:7c:5d:
                    3f:36:ea:14:32:6d:f6:76:fc:e9:73:7c:ea:1c:33:
                    d3:54:de:c6:15:93:16:17:d1:b9:eb:8e:a5:35:12:
                    04:9a:cd:fa:b6:c5:5a:3c:01:b5:6f:24:b1:ab:ba:
                    36:f2:fe:57:8e:67:60:bc:01:60:4f:81:15:97:06:
                    46:af:b0:e5:c8:96:69:ba:b7:29:35:a4:72:02:cc:
                    c1:38:54:4c:7f:49:4d:e4:3d:1a:23:26:5c:b7:83:
                    9c:bd:b1:66:06:9e:47:b6:08:41:e9:ce:19:cb:92:
                    51:68:07:44:bb:27:6a:e6:a0:06:0a:bc:cf:84:32:
                    a5:c6:f5:fd:7b:89:d2:04:fc:cf:48:f5:25:33:2c:
                    1c:7e:0f:f4:40:3e:f8:01:64:46:a9:fe:d5:d0:28:
                    1c:17:41
                Exponent: 65537 (0x10001)
        X509v3 extensions:
            X509v3 Basic Constraints: 
                CA:FALSE
            Netscape Comment: 
                OpenSSL Generated Certificate
            X509v3 Subject Key Identifier: 
                7A:21:8F:72:F4:F7:3B:82:3A:73:E0:43:D5:D2:69:54:70:B8:FA:FB
            X509v3 Authority Key Identifier: 
                keyid:27:1B:83:F6:9D:82:26:2A:DC:EA:DC:19:93:C0:D9:25:46:6F:EB:2E

    Signature Algorithm: sha256WithRSAEncryption
         76:fb:74:08:55:36:ad:79:fd:94:7d:34:b2:81:b6:e9:30:ed:
         1d:e5:17:89:63:fa:21:ff:e6:c6:94:5c:3a:3f:9d:10:dd:4d:
         d5:e0:da:de:a8:25:49:73:23:f8:f2:e8:6f:e5:80:43:ef:51:
         5a:bd:37:f7:4f:e5:3a:73:27:7c:bb:59:68:20:ef:b8:73:88:
         ff:67:e0:e8:6f:e8:36:9e:29:4a:2c:74:76:43:8a:c6:37:ff:
         7d:61:28:9b:23:c9:65:dc:ff:69:a0:1f:00:ca:bc:a3:6a:94:
         4b:3e:c0:ec:e1:66:1c:e3:db:e4:ab:81:e3:6b:92:a8:7a:9f:
         ac:e9:d3:2c:22:cb:7a:f3:ef:6a:52:e1:44:12:d5:9b:4a:c6:
         32:05:f7:42:67:a0:37:71:84:43:3e:1f:8f:d3:69:27:b9:92:
         ce:9d:74:45:9a:32:9a:13:6e:e9:e7:f4:0b:b7:7d:16:98:af:
         9f:84:4f:96:ec:85:04:bb:f7:3d:74:b2:fc:64:0f:33:f3:8d:
         0b:35:18:82:17:16:c3:e4:05:22:cd:76:01:23:6a:64:cf:65:
         a2:19:a6:6f:5e:db:74:1c:5f:c9:b6:db:45:e2:93:c3:9d:ac:
         c4:e7:11:a5:bb:41:67:a7:d0:ce:f9:c2:09:ac:03:de:62:2c:
         cb:c9:f0:e4:e2:ea:26:bc:c6:3e:72:56:07:78:32:b8:3c:68:
         a5:6f:bb:c1:64:ab:4a:c5:a1:ec:fc:e3:38:1b:65:52:81:81:
         29:5b:ee:b7:63:27:9d:bb:f9:29:d9:04:b3:b2:62:f9:8c:21:
         9f:49:03:7f:ce:f2:ab:69:1b:d3:35:67:09:dd:e3:94:1a:a3:
         6f:a7:57:18:a3:97:5c:43:ef:34:7d:1b:d8:9d:ca:88:b8:a9:
         db:c1:c1:bb:fd:ba:0a:6a:b0:01:3f:70:f8:88:0d:a1:9b:a5:
         2d:fb:76:13:b8:cf:c3:23:41:3c:90:30:3a:cc:18:45:92:00:
         6e:ae:cd:ad:36:3e:0b:30:31:8e:76:bf:1e:f7:d1:a8:aa:bd:
         9e:e3:21:60:7f:d0:46:3e:2c:91:3f:86:1c:68:06:23:9d:51:
         82:e8:cc:bd:fd:6d:ca:1a:83:76:51:82:c7:b6:72:c6:be:c7:
         43:ec:82:94:01:cc:29:b7:be:6c:e8:ac:83:3c:dc:5d:92:0f:
         ec:90:9a:cb:02:d0:1d:ba:9b:b5:99:20:11:a3:3d:f8:b9:84:
         7b:57:8e:30:2b:e0:77:ad:52:b3:67:48:bf:c4:4e:c1:15:5a:
         17:c0:c2:2f:d7:69:c7:be:84:af:b8:96:ce:04:76:48:2e:61:
         ce:bc:66:e8:b9:89:22:2a
-----BEGIN CERTIFICATE-----
MIIFSjCCAzKgAwIBAgIEEAAAaDANBgkqhkiG9w0BAQsFADAnMSUwIwYDVQQDDBxT
UkszX3NoYTI1Nl80MDk2XzY1NTM3X3YzX2NhMB4XDTE4MDMwNzE1MTMzOFoXDTI4
MDMwNDE1MTMzOFowKjEoMCYGA1UEAwwfSU1HM18xX3NoYTI1Nl80MDk2XzY1NTM3
X3YzX3VzcjCCAiIwDQYJKoZIhvcNAQEBBQADggIPADCCAgoCggIBAMJNFyNv0qbg
+aVNthOGFqJt3q7VtliqQtgnAifBOl9aEOq4YmOmG6rR3g2tXwllucYOe50LeoXe
59jvEV+HO3XS6H+uzTjqBUp0TAMLp+GBPB+ynGkHBc+amY/zLKkbhE1c/5lj6cvq
ew1DPP0IuqUyc5CWmL4d29Ws2vqEb6HPsgUi+nHRrNQMkRAdpyRk80QDCl9Owr7Y
SrrriDVIF8ygmE21ZVo7Rqg2RBxKPNg/cduHmDAhuACAHRDFQ/baidJvd0ZaKvT7
1NFFnlRGQm8hDSBdje5W9+FKkRVT/CY/sYcw/0Byyfjd6SLNdp2P6lZKhNDoeI0w
DSUy8+YIN4jd5mz/TmZtlBQkI6kid4meH4Y2z3Czzsx2fCwhPHUGyTkphIldfBhA
oMlNOJsJ1BiG1P+hWGsMqnFOB6rJLGvmpMuEQEz3MMW/Kpi0x5ue53iaJptfSM3G
ow0/QuC/GZIZ7IFaanxdPzbqFDJt9nb86XN86hwz01TexhWTFhfRueuOpTUSBJrN
+rbFWjwBtW8ksau6NvL+V45nYLwBYE+BFZcGRq+w5ciWabq3KTWkcgLMwThUTH9J
TeQ9GiMmXLeDnL2xZgaeR7YIQenOGcuSUWgHRLsnauagBgq8z4Qypcb1/XuJ0gT8
z0j1JTMsHH4P9EA++AFkRqn+1dAoHBdBAgMBAAGjezB5MAkGA1UdEwQCMAAwLAYJ
YIZIAYb4QgENBB8WHU9wZW5TU0wgR2VuZXJhdGVkIENlcnRpZmljYXRlMB0GA1Ud
DgQWBBR6IY9y9Pc7gjpz4EPV0mlUcLj6+zAfBgNVHSMEGDAWgBQnG4P2nYImKtzq
3BmTwNklRm/rLjANBgkqhkiG9w0BAQsFAAOCAgEAdvt0CFU2rXn9lH00soG26TDt
HeUXiWP6If/mxpRcOj+dEN1N1eDa3qglSXMj+PLob+WAQ+9RWr0390/lOnMnfLtZ
aCDvuHOI/2fg6G/oNp4pSix0dkOKxjf/fWEomyPJZdz/aaAfAMq8o2qUSz7A7OFm
HOPb5KuB42uSqHqfrOnTLCLLevPvalLhRBLVm0rGMgX3QmegN3GEQz4fj9NpJ7mS
zp10RZoymhNu6ef0C7d9Fpivn4RPluyFBLv3PXSy/GQPM/ONCzUYghcWw+QFIs12
ASNqZM9lohmmb17bdBxfybbbReKTw52sxOcRpbtBZ6fQzvnCCawD3mIsy8nw5OLq
JrzGPnJWB3gyuDxopW+7wWSrSsWh7PzjOBtlUoGBKVvut2Mnnbv5KdkEs7Ji+Ywh
n0kDf87yq2kb0zVnCd3jlBqjb6dXGKOXXEPvNH0b2J3KiLip28HBu/26CmqwAT9w
+IgNoZulLft2E7jPwyNBPJAwOswYRZIAbq7NrTY+CzAxjna/HvfRqKq9nuMhYH/Q
Rj4skT+GHGgGI51RgujMvf1tyhqDdlGCx7Zyxr7HQ+yClAHMKbe+bOisgzzcXZIP
7JCaywLQHbqbtZkgEaM9+LmEe1eOMCvgd61Ss2dIv8ROwRVaF8DCL9dpx76Er7iW
zgR2SC5hzrxm6LmJIio=
-----END CERTIFICATE-----
