Certificate:
    Data:
        Version: 3 (0x2)
        Serial Number: 268435550 (0x1000005e)
    Signature Algorithm: sha256WithRSAEncryption
        Issuer: CN=SRK4_sha256_2048_65537_v3_ca
        Validity
            Not Before: Mar  7 15:13:32 2018 GMT
            Not After : Mar  4 15:13:32 2028 GMT
        Subject: CN=CSF4_1_sha256_2048_65537_v3_usr
        Subject Public Key Info:
            Public Key Algorithm: rsaEncryption
                Public-Key: (2048 bit)
                Modulus:
                    00:c8:c9:17:7e:d9:c1:b4:c1:3c:c7:23:a5:4c:31:
                    4e:11:07:9d:f3:7c:d4:06:08:f8:cd:50:14:1a:b1:
                    3f:cf:f3:35:b6:34:26:61:e0:35:3d:b2:fa:0d:38:
                    45:20:89:76:26:d2:44:a1:48:f9:ab:af:bf:97:67:
                    15:fd:95:dd:a3:6c:2b:2d:15:3b:37:f4:8b:83:20:
                    56:45:18:7c:1b:f1:ce:e2:e6:e7:1d:4f:96:ae:23:
                    17:b5:ca:08:cd:3f:8a:48:07:b1:52:23:a9:7c:dd:
                    5e:f7:4b:94:c7:fa:3e:bd:1e:9d:49:e2:83:bf:63:
                    79:82:91:2e:1d:e6:be:4c:06:47:c0:39:76:3a:12:
                    75:67:7a:1e:1b:04:a6:d7:95:e0:80:4e:bb:33:8b:
                    5c:7e:00:89:ef:4e:86:19:cb:e8:37:8f:22:eb:1c:
                    ce:d0:3b:71:a6:dc:94:ff:25:17:48:5f:df:6c:82:
                    6f:a0:16:91:bf:de:ef:38:f0:39:ca:c1:73:d9:a2:
                    29:9f:db:b3:92:a9:de:d5:84:be:f1:bb:d4:c1:11:
                    9b:13:f4:77:3c:df:e3:5c:e9:bf:b9:42:29:62:07:
                    ab:08:66:7d:bb:20:4e:54:5f:e2:12:13:8a:62:0f:
                    be:5f:ac:08:5c:63:b9:38:90:5a:46:80:0d:11:82:
                    25:3d
                Exponent: 65537 (0x10001)
        X509v3 extensions:
            X509v3 Basic Constraints: 
                CA:FALSE
            Netscape Comment: 
                OpenSSL Generated Certificate
            X509v3 Subject Key Identifier: 
                6B:AC:FB:60:38:7B:9B:8C:59:B3:48:D8:D3:B1:3B:C6:E4:8D:16:0D
            X509v3 Authority Key Identifier: 
                keyid:3B:FE:5A:8E:74:C4:DB:6B:34:F1:C7:A4:CB:41:33:DC:86:D4:5F:B5

    Signature Algorithm: sha256WithRSAEncryption
         6a:6e:b3:cc:3b:c9:ef:4f:3d:b5:ef:2c:42:f1:fe:7f:7e:8b:
         4a:62:4a:9d:0b:76:a6:26:8f:09:7c:e6:14:2d:66:d4:c2:7d:
         62:3d:db:91:1d:9f:9c:3e:c5:25:bb:58:40:8d:e3:b1:12:ca:
         af:8c:aa:5e:a5:85:9b:99:2c:6e:64:60:ff:5b:3a:ee:78:7e:
         d4:e8:c2:ef:fe:8a:94:cc:28:dc:c3:f2:65:69:2f:ee:54:c2:
         e3:36:b5:39:0c:01:49:60:17:b1:84:dc:cc:86:de:16:6e:d1:
         55:0f:77:77:3d:78:81:91:aa:d6:ee:da:36:47:a8:3e:71:74:
         2d:67:91:32:07:44:31:1f:8f:8c:d1:fa:48:01:a9:4d:0b:53:
         1a:58:cb:04:fe:f2:30:58:7d:09:33:f8:bc:22:c1:3e:9f:2a:
         b5:73:aa:eb:d7:0f:83:dd:b5:63:6f:9f:ea:aa:92:2f:8b:74:
         6b:4e:3c:1d:f4:a5:24:ad:ab:d3:87:31:30:fe:10:cc:fd:b1:
         f9:29:25:c0:c9:71:30:00:02:b1:3d:71:c7:64:10:ae:46:25:
         b8:f7:df:8d:1b:6c:dd:f1:c4:e8:7c:fc:af:7c:3d:e4:55:85:
         e4:2a:48:9f:86:1d:37:53:70:6f:59:56:29:96:69:58:52:1c:
         5c:9c:61:00
-----BEGIN CERTIFICATE-----
MIIDSjCCAjKgAwIBAgIEEAAAXjANBgkqhkiG9w0BAQsFADAnMSUwIwYDVQQDDBxT
Uks0X3NoYTI1Nl8yMDQ4XzY1NTM3X3YzX2NhMB4XDTE4MDMwNzE1MTMzMloXDTI4
MDMwNDE1MTMzMlowKjEoMCYGA1UEAwwfQ1NGNF8xX3NoYTI1Nl8yMDQ4XzY1NTM3
X3YzX3VzcjCCASIwDQYJKoZIhvcNAQEBBQADggEPADCCAQoCggEBAMjJF37ZwbTB
PMcjpUwxThEHnfN81AYI+M1QFBqxP8/zNbY0JmHgNT2y+g04RSCJdibSRKFI+auv
v5dnFf2V3aNsKy0VOzf0i4MgVkUYfBvxzuLm5x1Plq4jF7XKCM0/ikgHsVIjqXzd
XvdLlMf6Pr0enUnig79jeYKRLh3mvkwGR8A5djoSdWd6HhsEpteV4IBOuzOLXH4A
ie9OhhnL6DePIuscztA7cabclP8lF0hf32yCb6AWkb/e7zjwOcrBc9miKZ/bs5Kp
3tWEvvG71MERmxP0dzzf41zpv7lCKWIHqwhmfbsgTlRf4hITimIPvl+sCFxjuTiQ
WkaADRGCJT0CAwEAAaN7MHkwCQYDVR0TBAIwADAsBglghkgBhvhCAQ0EHxYdT3Bl
blNTTCBHZW5lcmF0ZWQgQ2VydGlmaWNhdGUwHQYDVR0OBBYEFGus+2A4e5uMWbNI
2NOxO8bkjRYNMB8GA1UdIwQYMBaAFDv+Wo50xNtrNPHHpMtBM9yG1F+1MA0GCSqG
SIb3DQEBCwUAA4IBAQBqbrPMO8nvTz217yxC8f5/fotKYkqdC3amJo8JfOYULWbU
wn1iPduRHZ+cPsUlu1hAjeOxEsqvjKpepYWbmSxuZGD/WzrueH7U6MLv/oqUzCjc
w/JlaS/uVMLjNrU5DAFJYBexhNzMht4WbtFVD3d3PXiBkarW7to2R6g+cXQtZ5Ey
B0QxH4+M0fpIAalNC1MaWMsE/vIwWH0JM/i8IsE+nyq1c6rr1w+D3bVjb5/qqpIv
i3RrTjwd9KUkravThzEw/hDM/bH5KSXAyXEwAAKxPXHHZBCuRiW499+NG2zd8cTo
fPyvfD3kVYXkKkifhh03U3BvWVYplmlYUhxcnGEA
-----END CERTIFICATE-----
