Certificate:
    Data:
        Version: 3 (0x2)
        Serial Number: 268435556 (0x10000064)
    Signature Algorithm: sha256WithRSAEncryption
        Issuer: CN=SRK2_sha256_4096_65537_v3_ca
        Validity
            Not Before: Mar  7 15:13:35 2018 GMT
            Not After : Mar  4 15:13:35 2028 GMT
        Subject: CN=CSF2_1_sha256_4096_65537_v3_usr
        Subject Public Key Info:
            Public Key Algorithm: rsaEncryption
                Public-Key: (4096 bit)
                Modulus:
                    00:a8:6a:16:2a:a1:9d:11:79:4e:0d:5b:0a:c2:d4:
                    21:38:2a:01:db:09:8f:5a:8b:67:8f:8c:38:3e:b4:
                    78:09:94:cf:c4:cc:2b:44:45:3b:99:95:ec:46:23:
                    86:71:bc:aa:3f:92:8e:04:8c:78:16:f6:40:5e:84:
                    1b:ae:c5:0a:b6:c6:63:d7:b7:c2:5d:ab:fd:d1:b7:
                    b3:1d:e4:f4:75:4c:a7:f4:0e:0f:66:39:d4:bd:ba:
                    7f:9f:38:cb:67:16:4c:0f:d0:2e:6f:73:91:c2:91:
                    96:9c:10:60:14:4d:d4:47:65:2b:9d:aa:bf:8f:8e:
                    70:97:9e:4e:9c:e0:e1:1e:00:5d:85:af:bc:25:0f:
                    58:42:f4:7c:85:bf:d1:99:59:56:3c:75:1a:da:15:
                    48:74:76:aa:e0:fa:87:30:e9:25:b7:6c:06:da:89:
                    ba:98:5a:18:d5:ce:c2:b6:f9:ba:52:19:b2:82:4e:
                    85:09:d9:ed:a5:9a:40:a2:ef:82:fe:54:14:7c:5b:
                    61:47:f6:89:d9:f4:7f:6c:00:e6:eb:89:80:84:ca:
                    89:6c:87:fc:e6:e4:68:3e:53:23:09:cf:69:f0:71:
                    12:fc:a4:ee:2a:07:29:45:30:7e:b3:dd:0e:15:64:
                    20:fe:49:76:73:f1:1c:83:cd:13:91:cd:a2:ea:14:
                    6e:b7:1b:a3:b0:3d:cb:e0:35:08:fa:e3:ad:a3:9a:
                    da:28:f8:8c:21:e0:a8:e2:50:68:99:2e:d0:9f:0f:
                    00:15:10:de:9e:d4:25:e4:fa:52:bf:72:29:07:87:
                    e7:0d:66:1b:40:bf:42:24:1e:50:3c:46:ff:c7:bb:
                    78:08:7e:b3:54:e3:8b:8f:1d:36:66:b7:04:d9:9a:
                    cd:b9:df:2a:e2:1d:08:f6:84:54:d2:c5:de:22:8c:
                    21:77:df:d9:c1:c2:58:d3:01:e3:9b:ee:fb:4a:34:
                    70:ad:b1:3d:54:40:da:bf:0a:11:93:5c:d2:47:8e:
                    e1:e5:a8:5e:7e:8d:7e:45:4e:a2:f7:02:6b:d0:61:
                    29:b2:bc:de:9b:1c:04:22:23:74:ef:05:e6:c4:45:
                    9f:fa:4e:02:af:4d:a2:b6:43:28:56:79:b9:fd:79:
                    a3:c6:a4:25:be:20:b0:d7:a6:45:8d:ec:7f:ba:dc:
                    d4:4d:ae:08:9c:b9:ac:84:a9:5e:94:a4:49:a5:75:
                    22:bc:f6:8b:b5:98:ab:52:e3:bb:cc:4b:49:70:8c:
                    69:e4:04:07:ca:f9:fe:db:81:5c:33:1e:56:26:e5:
                    3f:c3:9d:de:3e:44:e0:16:b4:fc:c8:b6:95:24:05:
                    15:11:e8:96:f8:67:1f:7b:a8:3d:c5:72:ac:4f:0f:
                    ff:c0:b7
                Exponent: 65537 (0x10001)
        X509v3 extensions:
            X509v3 Basic Constraints: 
                CA:FALSE
            Netscape Comment: 
                OpenSSL Generated Certificate
            X509v3 Subject Key Identifier: 
                05:3E:1C:59:41:FA:D9:F8:B9:F7:E0:3E:E6:45:A6:FE:4E:82:94:91
            X509v3 Authority Key Identifier: 
                keyid:CD:95:8D:6D:65:DB:26:B4:13:CD:0B:B3:DA:77:87:25:77:07:FF:41

    Signature Algorithm: sha256WithRSAEncryption
         7b:b4:f8:63:5c:65:73:41:e0:c1:c3:e8:64:d4:8f:18:d7:56:
         54:18:67:62:46:c8:60:36:60:54:97:f5:0b:63:36:2a:25:79:
         a7:02:ec:19:b8:2a:d1:ee:dc:e0:91:3e:21:69:f6:91:57:3a:
         54:3d:32:92:cc:22:ae:17:0b:53:ae:b5:2d:fa:f0:57:e2:75:
         b1:f1:ab:dc:d9:21:54:fb:d0:2f:e4:9c:2e:e8:5c:2d:39:0b:
         e2:7a:6e:bf:d2:1b:cf:49:67:d5:e7:c4:0c:6e:f7:00:58:c4:
         42:8b:e7:8b:cb:4d:d2:d6:bb:d3:cd:63:7c:20:ee:af:66:a4:
         82:b9:8c:86:bb:6f:ce:02:f7:84:90:15:85:0c:7d:3d:77:9a:
         c6:22:65:af:63:7f:cc:3d:6a:5f:ac:c1:b1:2a:3e:9b:da:09:
         1f:61:4b:9f:28:1b:71:83:f2:f7:5f:86:80:63:32:84:d3:a7:
         14:c4:91:cf:62:5e:46:9e:0d:ee:75:23:58:f8:2b:ee:80:8e:
         89:9d:4f:60:ee:64:98:b4:c2:42:cd:8e:09:0f:99:be:a2:fb:
         b3:02:dd:eb:d5:55:67:32:d0:dc:23:0d:76:90:1d:cf:59:19:
         a9:0c:9b:e7:a4:11:74:e6:cf:3f:59:7d:56:ff:49:84:19:86:
         ba:b2:3c:3a:36:74:a1:85:27:d9:a1:33:95:a8:7e:dd:fa:03:
         e5:d1:cd:4b:ab:6e:54:14:0a:76:f6:b3:f1:8b:d8:80:a7:70:
         b1:20:13:19:ad:ba:b5:ac:87:76:1f:31:71:5c:a0:10:ba:92:
         34:04:80:b0:8c:e9:ab:37:3c:10:bc:30:e5:77:36:fa:f4:76:
         55:1d:28:5f:8e:a4:81:59:05:c6:da:30:5b:51:db:5f:d8:ed:
         1d:56:e6:67:c4:47:13:15:fc:93:23:45:dd:f3:2c:e0:a4:5f:
         ba:56:93:40:d5:8c:4c:9c:34:94:a6:c4:d8:b4:04:8a:f9:50:
         8b:6e:d6:ad:31:e0:f1:06:d0:47:17:a2:b1:e1:b7:59:fd:b9:
         cf:c2:6d:d3:4c:49:7a:1e:52:62:1a:83:ca:fb:a9:25:cc:84:
         7b:f8:49:6d:cb:6c:71:65:1c:40:b0:7d:4e:cd:9e:bb:80:ef:
         38:63:18:b4:8d:0e:16:ef:3f:4c:68:33:cf:c4:f7:59:96:1a:
         28:46:29:7d:39:05:5c:0a:21:81:4c:da:d5:d5:4c:a5:5d:2d:
         ba:33:be:0c:a5:b6:b2:6a:cf:63:b8:79:6b:f4:76:8b:ad:d0:
         5c:2a:cb:9a:96:84:28:db:1e:03:5d:a2:78:1c:e2:c4:16:60:
         3f:6a:32:36:fe:89:14:0b
-----BEGIN CERTIFICATE-----
MIIFSjCCAzKgAwIBAgIEEAAAZDANBgkqhkiG9w0BAQsFADAnMSUwIwYDVQQDDBxT
UksyX3NoYTI1Nl80MDk2XzY1NTM3X3YzX2NhMB4XDTE4MDMwNzE1MTMzNVoXDTI4
MDMwNDE1MTMzNVowKjEoMCYGA1UEAwwfQ1NGMl8xX3NoYTI1Nl80MDk2XzY1NTM3
X3YzX3VzcjCCAiIwDQYJKoZIhvcNAQEBBQADggIPADCCAgoCggIBAKhqFiqhnRF5
Tg1bCsLUITgqAdsJj1qLZ4+MOD60eAmUz8TMK0RFO5mV7EYjhnG8qj+SjgSMeBb2
QF6EG67FCrbGY9e3wl2r/dG3sx3k9HVMp/QOD2Y51L26f584y2cWTA/QLm9zkcKR
lpwQYBRN1EdlK52qv4+OcJeeTpzg4R4AXYWvvCUPWEL0fIW/0ZlZVjx1GtoVSHR2
quD6hzDpJbdsBtqJuphaGNXOwrb5ulIZsoJOhQnZ7aWaQKLvgv5UFHxbYUf2idn0
f2wA5uuJgITKiWyH/ObkaD5TIwnPafBxEvyk7ioHKUUwfrPdDhVkIP5JdnPxHIPN
E5HNouoUbrcbo7A9y+A1CPrjraOa2ij4jCHgqOJQaJku0J8PABUQ3p7UJeT6Ur9y
KQeH5w1mG0C/QiQeUDxG/8e7eAh+s1Tji48dNma3BNmazbnfKuIdCPaEVNLF3iKM
IXff2cHCWNMB45vu+0o0cK2xPVRA2r8KEZNc0keO4eWoXn6NfkVOovcCa9BhKbK8
3pscBCIjdO8F5sRFn/pOAq9NorZDKFZ5uf15o8akJb4gsNemRY3sf7rc1E2uCJy5
rISpXpSkSaV1Irz2i7WYq1Lju8xLSXCMaeQEB8r5/tuBXDMeViblP8Od3j5E4Ba0
/Mi2lSQFFRHolvhnH3uoPcVyrE8P/8C3AgMBAAGjezB5MAkGA1UdEwQCMAAwLAYJ
YIZIAYb4QgENBB8WHU9wZW5TU0wgR2VuZXJhdGVkIENlcnRpZmljYXRlMB0GA1Ud
DgQWBBQFPhxZQfrZ+Ln34D7mRab+ToKUkTAfBgNVHSMEGDAWgBTNlY1tZdsmtBPN
C7Pad4cldwf/QTANBgkqhkiG9w0BAQsFAAOCAgEAe7T4Y1xlc0HgwcPoZNSPGNdW
VBhnYkbIYDZgVJf1C2M2KiV5pwLsGbgq0e7c4JE+IWn2kVc6VD0ykswirhcLU661
LfrwV+J1sfGr3NkhVPvQL+ScLuhcLTkL4npuv9Ibz0ln1efEDG73AFjEQovni8tN
0ta7081jfCDur2akgrmMhrtvzgL3hJAVhQx9PXeaxiJlr2N/zD1qX6zBsSo+m9oJ
H2FLnygbcYPy91+GgGMyhNOnFMSRz2JeRp4N7nUjWPgr7oCOiZ1PYO5kmLTCQs2O
CQ+ZvqL7swLd69VVZzLQ3CMNdpAdz1kZqQyb56QRdObPP1l9Vv9JhBmGurI8OjZ0
oYUn2aEzlah+3foD5dHNS6tuVBQKdvaz8YvYgKdwsSATGa26tayHdh8xcVygELqS
NASAsIzpqzc8ELww5Xc2+vR2VR0oX46kgVkFxtowW1HbX9jtHVbmZ8RHExX8kyNF
3fMs4KRfulaTQNWMTJw0lKbE2LQEivlQi27WrTHg8QbQRxeiseG3Wf25z8Jt00xJ
eh5SYhqDyvupJcyEe/hJbctscWUcQLB9Ts2eu4DvOGMYtI0OFu8/TGgzz8T3WZYa
KEYpfTkFXAohgUza1dVMpV0tujO+DKW2smrPY7h5a/R2i63QXCrLmpaEKNseA12i
eBzixBZgP2oyNv6JFAs=
-----END CERTIFICATE-----
