Certificate:
    Data:
        Version: 3 (0x2)
        Serial Number: 268435558 (0x10000066)
    Signature Algorithm: sha256WithRSAEncryption
        Issuer: CN=CA1_sha256_4096_65537_v3_ca
        Validity
            Not Before: Mar  7 15:13:36 2018 GMT
            Not After : Mar  4 15:13:36 2028 GMT
        Subject: CN=SRK3_sha256_4096_65537_v3_ca
        Subject Public Key Info:
            Public Key Algorithm: rsaEncryption
                Public-Key: (4096 bit)
                Modulus:
                    00:f0:e5:b6:96:de:23:f7:1a:06:4e:e5:27:6d:6d:
                    ab:e3:91:98:42:29:00:93:7f:ca:a8:4e:34:54:b6:
                    9f:fb:d9:46:3f:3f:9a:96:f8:aa:30:92:c1:bd:01:
                    f6:2b:dd:67:9c:32:6f:2d:fd:d4:7a:c2:05:e4:fe:
                    2f:37:ef:54:db:ad:43:fb:dd:f8:bf:2d:19:09:ee:
                    28:06:8a:39:5c:93:c3:aa:de:14:b8:cb:df:c2:0d:
                    87:bc:f4:d7:a5:f9:d8:21:10:26:b5:0e:20:4a:0e:
                    ce:1b:fb:df:ac:a2:d1:0a:87:25:a4:9d:a7:19:d8:
                    ff:67:7b:45:0e:05:e1:fd:62:4e:67:45:b8:09:fb:
                    bb:60:14:1c:82:62:d6:41:11:6d:fa:b1:da:20:ac:
                    13:da:ae:df:66:18:b6:81:c2:0c:aa:52:90:ea:35:
                    ca:a3:f9:3a:08:cb:8f:49:a9:61:e5:42:d2:c2:13:
                    d1:fb:ef:1a:60:86:3d:7c:e3:03:f8:8c:b7:8b:5b:
                    c8:8e:17:3e:d8:42:c7:54:33:7a:0e:c3:fe:5e:9e:
                    76:0c:8a:b2:6c:27:fa:de:c4:69:12:55:28:d3:75:
                    59:b4:7e:54:b3:b0:4d:d5:bf:00:c8:7a:55:1e:c5:
                    ee:b2:8f:d3:88:cb:58:46:ee:a8:41:00:fe:f5:45:
                    24:84:bb:02:8b:63:f1:f9:a1:d2:66:0d:e3:7b:b7:
                    58:5f:ac:a9:e5:fd:9e:79:0d:70:1b:d3:8c:03:47:
                    cf:ef:55:15:1c:29:84:1d:d4:e5:71:1a:7f:47:db:
                    aa:52:11:57:5b:42:ff:01:32:8f:60:ad:ba:94:de:
                    e5:4b:ea:3e:10:11:6e:08:95:44:39:20:eb:40:b7:
                    27:84:35:74:2f:70:93:53:84:5c:49:df:a1:ca:15:
                    3c:7f:4e:66:b9:e7:4b:87:25:aa:7f:be:31:6b:9c:
                    8b:74:68:53:5f:8f:0c:ff:24:2d:72:c6:9b:6a:1b:
                    d6:d6:45:68:ac:d8:dd:c1:5d:57:04:3a:7c:0b:30:
                    e0:0f:32:95:75:62:66:cd:eb:be:6c:b7:97:1c:ef:
                    bb:ce:b0:bc:c6:99:a2:aa:6b:d9:f5:b7:18:ed:74:
                    a2:09:5e:42:03:13:3e:16:6c:88:03:e5:3f:45:d6:
                    94:34:c3:8c:a1:0a:51:1a:9e:e2:eb:05:65:34:54:
                    b2:d4:8b:51:a1:d1:0f:e2:62:2c:68:65:02:ca:fc:
                    eb:ae:97:0a:b9:99:b1:c1:14:c0:8e:b1:4a:46:6f:
                    10:7f:7b:d7:c3:2e:b0:37:08:e1:bb:21:4b:50:21:
                    ed:a8:88:d3:7a:0e:19:17:e2:8e:3c:8e:94:b8:d7:
                    6c:80:79
                Exponent: 65537 (0x10001)
        X509v3 extensions:
            X509v3 Subject Key Identifier: 
                27:1B:83:F6:9D:82:26:2A:DC:EA:DC:19:93:C0:D9:25:46:6F:EB:2E
            X509v3 Authority Key Identifier: 
                keyid:43:D0:07:69:93:CB:C5:A1:1E:A1:BA:C9:22:A2:52:D7:90:DC:1A:FA
                DirName:/CN=CA1_sha256_4096_65537_v3_ca
                serial:B4:5E:9A:EE:F9:9D:BD:70

            X509v3 Basic Constraints: critical
                CA:TRUE
            X509v3 Key Usage: 
                Certificate Sign
    Signature Algorithm: sha256WithRSAEncryption
         74:25:e8:15:4a:c2:63:04:57:01:ab:a8:9a:30:f8:f8:bf:fa:
         4f:f1:a8:24:11:48:34:78:d5:6a:cd:24:b6:f8:7c:bb:32:86:
         db:4f:ba:4c:e6:41:18:06:14:2a:08:fe:ba:14:26:13:6f:29:
         a2:07:62:ee:4c:ad:d5:d3:38:f1:90:ac:57:f0:1b:86:a7:08:
         fc:62:72:79:50:7d:1f:76:c9:d0:ef:a1:cf:45:98:c1:0d:d8:
         da:67:84:f5:f9:98:66:c0:fe:df:7a:b0:54:bc:0b:64:74:bd:
         e8:28:83:ea:91:36:c4:a3:f0:3e:25:3c:8f:17:b7:bf:f7:a3:
         cd:87:fc:2c:cc:77:e5:c2:54:9f:83:4f:f1:32:ab:a2:5d:76:
         fc:3f:05:88:fe:e2:18:a8:97:81:68:e9:fa:4a:bb:6c:f3:f6:
         b6:00:45:db:98:dd:ed:80:f0:ed:8b:0e:79:dc:f1:fd:47:40:
         57:c4:9a:de:13:46:d4:ca:d4:ab:78:47:2a:0d:cf:fb:2f:74:
         d6:29:ca:8f:a8:9d:f2:78:c8:c9:65:fd:71:91:0d:52:18:b7:
         3c:28:7b:39:6d:3f:06:01:f5:d1:f2:65:fd:a0:cb:90:3a:38:
         b9:ce:fb:c7:a0:2b:83:15:03:1e:e4:ea:1c:82:6e:33:00:e7:
         2c:db:2c:45:2a:94:cd:5d:4e:a8:2a:8c:9f:37:39:7e:50:38:
         59:34:5a:45:5f:e8:3c:3a:af:bb:8b:c2:7b:3c:6b:17:b8:17:
         59:28:a3:65:70:7c:39:18:88:de:27:6b:01:62:60:83:f1:63:
         fd:7c:f5:58:fe:ad:68:f2:46:a8:7d:36:04:8a:6e:91:65:9c:
         fb:5b:d5:8a:a0:2b:b5:49:2d:cb:2b:22:a8:fc:1a:2d:cf:85:
         71:2e:dd:a5:82:f3:a5:f3:06:14:e7:01:02:f1:bf:17:04:d3:
         a7:27:14:0c:74:93:be:27:f6:8e:ac:f5:89:f2:18:ea:ff:19:
         79:b7:eb:cb:84:99:a4:c1:01:99:1b:34:63:e5:8a:70:26:b3:
         e9:35:2d:e0:57:a1:19:df:da:16:e1:0b:d1:52:41:68:5a:ae:
         d6:af:9c:93:54:f6:55:2a:1a:69:a3:83:2a:69:1b:3d:e3:44:
         7b:ea:bd:e3:d6:d2:bc:e8:0a:8a:fb:3c:ca:d3:d7:84:5f:58:
         50:97:61:b2:1f:da:96:14:41:04:a8:01:a0:56:13:60:f7:17:
         26:33:4a:70:9b:51:78:35:4b:e3:58:35:6d:52:1b:04:58:75:
         91:26:ee:ff:01:af:b7:52:81:cc:b7:84:8c:7f:e9:c0:4e:22:
         62:c7:8c:51:b3:9d:81:f7
-----BEGIN CERTIFICATE-----
MIIFZDCCA0ygAwIBAgIEEAAAZjANBgkqhkiG9w0BAQsFADAmMSQwIgYDVQQDFBtD
QTFfc2hhMjU2XzQwOTZfNjU1MzdfdjNfY2EwHhcNMTgwMzA3MTUxMzM2WhcNMjgw
MzA0MTUxMzM2WjAnMSUwIwYDVQQDDBxTUkszX3NoYTI1Nl80MDk2XzY1NTM3X3Yz
X2NhMIICIjANBgkqhkiG9w0BAQEFAAOCAg8AMIICCgKCAgEA8OW2lt4j9xoGTuUn
bW2r45GYQikAk3/KqE40VLaf+9lGPz+alviqMJLBvQH2K91nnDJvLf3UesIF5P4v
N+9U261D+934vy0ZCe4oBoo5XJPDqt4UuMvfwg2HvPTXpfnYIRAmtQ4gSg7OG/vf
rKLRCoclpJ2nGdj/Z3tFDgXh/WJOZ0W4Cfu7YBQcgmLWQRFt+rHaIKwT2q7fZhi2
gcIMqlKQ6jXKo/k6CMuPSalh5ULSwhPR++8aYIY9fOMD+Iy3i1vIjhc+2ELHVDN6
DsP+Xp52DIqybCf63sRpElUo03VZtH5Us7BN1b8AyHpVHsXuso/TiMtYRu6oQQD+
9UUkhLsCi2Px+aHSZg3je7dYX6yp5f2eeQ1wG9OMA0fP71UVHCmEHdTlcRp/R9uq
UhFXW0L/ATKPYK26lN7lS+o+EBFuCJVEOSDrQLcnhDV0L3CTU4RcSd+hyhU8f05m
uedLhyWqf74xa5yLdGhTX48M/yQtcsabahvW1kVorNjdwV1XBDp8CzDgDzKVdWJm
zeu+bLeXHO+7zrC8xpmiqmvZ9bcY7XSiCV5CAxM+FmyIA+U/RdaUNMOMoQpRGp7i
6wVlNFSy1ItRodEP4mIsaGUCyvzrrpcKuZmxwRTAjrFKRm8Qf3vXwy6wNwjhuyFL
UCHtqIjTeg4ZF+KOPI6UuNdsgHkCAwEAAaOBmDCBlTAdBgNVHQ4EFgQUJxuD9p2C
Jirc6twZk8DZJUZv6y4wVgYDVR0jBE8wTYAUQ9AHaZPLxaEeobrJIqJS15DcGvqh
KqQoMCYxJDAiBgNVBAMUG0NBMV9zaGEyNTZfNDA5Nl82NTUzN192M19jYYIJALRe
mu75nb1wMA8GA1UdEwEB/wQFMAMBAf8wCwYDVR0PBAQDAgIEMA0GCSqGSIb3DQEB
CwUAA4ICAQB0JegVSsJjBFcBq6iaMPj4v/pP8agkEUg0eNVqzSS2+Hy7MobbT7pM
5kEYBhQqCP66FCYTbymiB2LuTK3V0zjxkKxX8BuGpwj8YnJ5UH0fdsnQ76HPRZjB
DdjaZ4T1+ZhmwP7ferBUvAtkdL3oKIPqkTbEo/A+JTyPF7e/96PNh/wszHflwlSf
g0/xMquiXXb8PwWI/uIYqJeBaOn6Srts8/a2AEXbmN3tgPDtiw553PH9R0BXxJre
E0bUytSreEcqDc/7L3TWKcqPqJ3yeMjJZf1xkQ1SGLc8KHs5bT8GAfXR8mX9oMuQ
Oji5zvvHoCuDFQMe5Oocgm4zAOcs2yxFKpTNXU6oKoyfNzl+UDhZNFpFX+g8Oq+7
i8J7PGsXuBdZKKNlcHw5GIjeJ2sBYmCD8WP9fPVY/q1o8kaofTYEim6RZZz7W9WK
oCu1SS3LKyKo/Botz4VxLt2lgvOl8wYU5wEC8b8XBNOnJxQMdJO+J/aOrPWJ8hjq
/xl5t+vLhJmkwQGZGzRj5YpwJrPpNS3gV6EZ39oW4QvRUkFoWq7Wr5yTVPZVKhpp
o4MqaRs940R76r3j1tK86AqK+zzK09eEX1hQl2GyH9qWFEEEqAGgVhNg9xcmM0pw
m1F4NUvjWDVtUhsEWHWRJu7/Aa+3UoHMt4SMf+nATiJix4xRs52B9w==
-----END CERTIFICATE-----
