Certificate:
    Data:
        Version: 3 (0x2)
        Serial Number: 268435548 (0x1000005c)
    Signature Algorithm: sha256WithRSAEncryption
        Issuer: CN=SRK3_sha256_2048_65537_v3_ca
        Validity
            Not Before: Mar  7 15:13:31 2018 GMT
            Not After : Mar  4 15:13:31 2028 GMT
        Subject: CN=IMG3_1_sha256_2048_65537_v3_usr
        Subject Public Key Info:
            Public Key Algorithm: rsaEncryption
                Public-Key: (2048 bit)
                Modulus:
                    00:b2:d2:5f:44:97:ad:9f:c9:68:d6:69:48:cb:4c:
                    20:f7:3b:c6:2b:0a:66:1c:e3:6a:a0:9b:2d:83:d3:
                    ed:51:1c:88:34:86:39:a7:8c:5a:eb:3f:ac:8e:d0:
                    5b:58:d1:c5:69:e7:55:f3:dd:fe:b6:a8:5f:37:77:
                    49:23:c0:be:b0:4d:5e:2f:5e:07:03:99:67:70:e0:
                    74:cb:a4:24:f6:c6:e5:e8:9c:1a:47:ac:d6:cb:38:
                    1e:63:aa:1d:51:c9:85:8f:10:4a:8e:41:3c:f3:ed:
                    18:83:e9:f0:5b:c5:13:a4:c1:a0:0e:86:8e:15:6c:
                    7a:86:c7:b2:2f:ca:28:0c:38:77:b7:24:b3:f4:c4:
                    1f:46:e2:ef:bc:0a:c6:e1:08:1c:15:ca:05:6d:09:
                    14:34:a1:46:f8:b3:ca:cf:7b:04:64:be:5e:45:ee:
                    3d:6a:a1:e6:da:b7:ff:fd:49:10:2a:1d:9a:2c:0f:
                    49:b4:38:ca:61:58:6c:57:b2:f3:1f:d4:b5:23:af:
                    f0:2a:52:5f:10:a1:6a:ce:14:0d:7f:e1:8e:82:a6:
                    b7:8f:ff:84:65:e0:d3:96:9a:b0:2a:74:98:c8:93:
                    5f:87:49:8f:da:19:59:78:51:d2:53:33:21:18:b6:
                    78:ab:db:6e:84:3d:e6:2f:f9:1f:e8:09:a6:79:ec:
                    eb:dd
                Exponent: 65537 (0x10001)
        X509v3 extensions:
            X509v3 Basic Constraints: 
                CA:FALSE
            Netscape Comment: 
                OpenSSL Generated Certificate
            X509v3 Subject Key Identifier: 
                97:B4:4D:03:3D:75:FA:8E:EF:70:61:49:F1:22:3D:B7:07:7C:29:6A
            X509v3 Authority Key Identifier: 
                keyid:B6:71:8A:C5:23:6F:6E:BE:93:55:7F:39:CE:B5:5C:33:FD:6E:D4:B8

    Signature Algorithm: sha256WithRSAEncryption
         94:e5:91:7a:95:bd:62:c3:5b:83:13:3d:f3:17:db:12:6b:3f:
         9e:f5:0f:dc:e1:76:35:3c:c9:d5:44:70:81:25:ac:83:be:61:
         f9:3b:b7:f8:c1:e3:33:dc:37:c1:42:d8:d9:ed:f9:e6:1d:46:
         d1:ec:aa:f8:de:0e:8c:44:55:8b:d6:b8:2f:9c:a5:67:e2:36:
         74:bb:c5:de:3f:2a:9c:1b:5e:2f:fc:73:6c:6d:7c:55:6b:9b:
         ac:80:26:00:57:01:d1:73:10:5b:13:2e:42:9c:49:1f:da:bb:
         3b:f4:32:c8:d1:6b:bf:43:03:96:f5:9a:af:e0:a6:c1:34:a1:
         30:b5:f6:51:a5:bf:4f:97:b2:66:8b:92:7c:77:4c:3d:0d:5d:
         57:97:5d:7f:42:d9:6a:6e:73:47:1a:b5:e5:60:b4:45:88:f1:
         0d:21:03:87:06:d1:98:b3:c0:cd:7e:07:13:da:14:31:6d:da:
         b1:49:66:25:70:2d:cc:cd:31:b6:73:a3:9a:4d:e7:10:2f:b5:
         44:cf:66:7e:77:88:50:43:32:fb:5a:dd:12:fe:32:ec:70:54:
         b3:4b:ab:3a:a8:7c:77:16:5b:dd:12:b5:5b:59:16:ad:32:69:
         7e:c4:05:e6:e8:e1:a1:cb:8e:d1:6d:26:15:72:d6:2a:f9:bf:
         bf:e8:c6:a8
-----BEGIN CERTIFICATE-----
MIIDSjCCAjKgAwIBAgIEEAAAXDANBgkqhkiG9w0BAQsFADAnMSUwIwYDVQQDDBxT
UkszX3NoYTI1Nl8yMDQ4XzY1NTM3X3YzX2NhMB4XDTE4MDMwNzE1MTMzMVoXDTI4
MDMwNDE1MTMzMVowKjEoMCYGA1UEAwwfSU1HM18xX3NoYTI1Nl8yMDQ4XzY1NTM3
X3YzX3VzcjCCASIwDQYJKoZIhvcNAQEBBQADggEPADCCAQoCggEBALLSX0SXrZ/J
aNZpSMtMIPc7xisKZhzjaqCbLYPT7VEciDSGOaeMWus/rI7QW1jRxWnnVfPd/rao
Xzd3SSPAvrBNXi9eBwOZZ3DgdMukJPbG5eicGkes1ss4HmOqHVHJhY8QSo5BPPPt
GIPp8FvFE6TBoA6GjhVseobHsi/KKAw4d7cks/TEH0bi77wKxuEIHBXKBW0JFDSh
Rvizys97BGS+XkXuPWqh5tq3//1JECodmiwPSbQ4ymFYbFey8x/UtSOv8CpSXxCh
as4UDX/hjoKmt4//hGXg05aasCp0mMiTX4dJj9oZWXhR0lMzIRi2eKvbboQ95i/5
H+gJpnns690CAwEAAaN7MHkwCQYDVR0TBAIwADAsBglghkgBhvhCAQ0EHxYdT3Bl
blNTTCBHZW5lcmF0ZWQgQ2VydGlmaWNhdGUwHQYDVR0OBBYEFJe0TQM9dfqO73Bh
SfEiPbcHfClqMB8GA1UdIwQYMBaAFLZxisUjb26+k1V/Oc61XDP9btS4MA0GCSqG
SIb3DQEBCwUAA4IBAQCU5ZF6lb1iw1uDEz3zF9sSaz+e9Q/c4XY1PMnVRHCBJayD
vmH5O7f4weMz3DfBQtjZ7fnmHUbR7Kr43g6MRFWL1rgvnKVn4jZ0u8XePyqcG14v
/HNsbXxVa5usgCYAVwHRcxBbEy5CnEkf2rs79DLI0Wu/QwOW9Zqv4KbBNKEwtfZR
pb9Pl7Jmi5J8d0w9DV1Xl11/QtlqbnNHGrXlYLRFiPENIQOHBtGYs8DNfgcT2hQx
bdqxSWYlcC3MzTG2c6OaTecQL7VEz2Z+d4hQQzL7Wt0S/jLscFSzS6s6qHx3Flvd
ErVbWRatMml+xAXm6OGhy47RbSYVctYq+b+/6Mao
-----END CERTIFICATE-----
