Certificate:
    Data:
        Version: 3 (0x2)
        Serial Number: 268435537 (0x10000051)
    Signature Algorithm: sha256WithRSAEncryption
        Issuer: CN=CA1_sha256_1024_65537_v3_ca
        Validity
            Not Before: Mar  7 15:13:30 2018 GMT
            Not After : Mar  4 15:13:30 2028 GMT
        Subject: CN=SRK4_sha256_1024_65537_v3_ca
        Subject Public Key Info:
            Public Key Algorithm: rsaEncryption
                Public-Key: (1024 bit)
                Modulus:
                    00:e3:7e:f2:97:c4:db:48:25:fd:34:e0:5d:62:39:
                    08:89:8a:06:52:e5:3d:83:b2:fc:8e:ce:2c:a9:04:
                    0f:d4:2e:e6:dc:0d:45:4f:e5:07:d9:78:24:c4:2d:
                    e2:2e:19:05:5b:20:29:7f:f2:b0:b9:62:c5:ee:d3:
                    61:15:6f:89:03:91:d5:96:09:61:18:98:c1:66:a6:
                    93:84:9d:3c:03:d8:24:2a:e4:98:8f:ee:6a:a1:85:
                    7e:21:f6:c7:70:91:8b:62:d7:dc:c6:9f:5e:63:b8:
                    54:00:a3:d9:d3:65:d8:64:36:53:3e:a4:fa:db:33:
                    0d:e5:ea:97:6a:a2:ab:74:07
                Exponent: 65537 (0x10001)
        X509v3 extensions:
            X509v3 Subject Key Identifier: 
                CD:C7:7D:EE:CE:23:5A:6A:08:7A:8B:AC:42:0B:46:58:BA:62:F7:B8
            X509v3 Authority Key Identifier: 
                keyid:74:64:6E:26:30:BE:E2:DF:27:41:E5:E5:E0:D1:55:1C:90:33:0D:4A
                DirName:/CN=CA1_sha256_1024_65537_v3_ca
                serial:B1:9D:E8:9F:1E:CC:7C:8C

            X509v3 Basic Constraints: critical
                CA:TRUE
            X509v3 Key Usage: 
                Certificate Sign
    Signature Algorithm: sha256WithRSAEncryption
         9f:eb:59:a1:42:b2:08:af:fe:28:60:8c:03:ee:1d:36:72:16:
         e2:46:b0:06:ff:1b:5b:de:41:19:2c:52:cd:40:24:80:46:9b:
         ce:27:ed:5f:98:76:c8:27:77:42:40:f2:bd:fe:a1:21:36:ae:
         ef:7b:be:c3:83:10:79:92:39:f0:5a:b4:67:e3:8b:20:aa:c0:
         29:14:4d:1e:3e:41:4d:97:34:ad:5e:7f:0d:cf:ca:41:04:ff:
         75:a2:fb:a2:90:44:90:2a:28:c1:00:ba:75:cd:92:37:93:3f:
         12:89:f9:b0:62:7e:a6:5c:64:03:16:6e:b6:1d:74:75:0e:36:
         34:d3
-----BEGIN CERTIFICATE-----
MIICXzCCAcigAwIBAgIEEAAAUTANBgkqhkiG9w0BAQsFADAmMSQwIgYDVQQDFBtD
QTFfc2hhMjU2XzEwMjRfNjU1MzdfdjNfY2EwHhcNMTgwMzA3MTUxMzMwWhcNMjgw
MzA0MTUxMzMwWjAnMSUwIwYDVQQDDBxTUks0X3NoYTI1Nl8xMDI0XzY1NTM3X3Yz
X2NhMIGfMA0GCSqGSIb3DQEBAQUAA4GNADCBiQKBgQDjfvKXxNtIJf004F1iOQiJ
igZS5T2DsvyOziypBA/ULubcDUVP5QfZeCTELeIuGQVbICl/8rC5YsXu02EVb4kD
kdWWCWEYmMFmppOEnTwD2CQq5JiP7mqhhX4h9sdwkYti19zGn15juFQAo9nTZdhk
NlM+pPrbMw3l6pdqoqt0BwIDAQABo4GYMIGVMB0GA1UdDgQWBBTNx33uziNaagh6
i6xCC0ZYumL3uDBWBgNVHSMETzBNgBR0ZG4mML7i3ydB5eXg0VUckDMNSqEqpCgw
JjEkMCIGA1UEAxQbQ0ExX3NoYTI1Nl8xMDI0XzY1NTM3X3YzX2NhggkAsZ3onx7M
fIwwDwYDVR0TAQH/BAUwAwEB/zALBgNVHQ8EBAMCAgQwDQYJKoZIhvcNAQELBQAD
gYEAn+tZoUKyCK/+KGCMA+4dNnIW4kawBv8bW95BGSxSzUAkgEabziftX5h2yCd3
QkDyvf6hITau73u+w4MQeZI58Fq0Z+OLIKrAKRRNHj5BTZc0rV5/Dc/KQQT/daL7
opBEkCoowQC6dc2SN5M/Eon5sGJ+plxkAxZuth10dQ42NNM=
-----END CERTIFICATE-----
