Certificate:
    Data:
        Version: 3 (0x2)
        Serial Number: 268435559 (0x10000067)
    Signature Algorithm: sha256WithRSAEncryption
        Issuer: CN=SRK3_sha256_4096_65537_v3_ca
        Validity
            Not Before: Mar  7 15:13:37 2018 GMT
            Not After : Mar  4 15:13:37 2028 GMT
        Subject: CN=CSF3_1_sha256_4096_65537_v3_usr
        Subject Public Key Info:
            Public Key Algorithm: rsaEncryption
                Public-Key: (4096 bit)
                Modulus:
                    00:cc:49:17:c7:0e:52:1b:5a:45:f9:73:27:2a:4d:
                    6d:1d:11:7c:a6:f4:37:ab:08:8e:77:19:e1:1b:5b:
                    08:ed:8a:30:a7:48:cd:d6:40:08:ff:17:a5:1c:b2:
                    51:1c:da:a7:44:c5:cb:ca:ee:df:8f:30:1b:38:b6:
                    e9:62:73:e7:bd:be:a1:cc:29:ee:d3:c3:55:c7:ab:
                    b8:81:8f:75:3a:b1:40:59:c5:8f:aa:51:a6:0e:7c:
                    8f:ac:27:a6:49:00:97:fb:0c:a6:e3:e0:ff:ba:69:
                    40:92:c2:8a:1f:25:b5:0f:73:66:f7:23:da:1c:2b:
                    ef:f6:42:af:92:5c:f2:73:ab:c0:a8:00:be:a2:21:
                    bd:66:e2:2d:ad:52:69:38:01:ec:74:50:50:ac:8b:
                    47:76:6a:96:09:85:33:46:ce:3e:6f:35:f3:fc:61:
                    2c:c9:1f:e7:e0:c3:2a:9e:ba:d0:94:0c:bc:1f:b0:
                    61:12:13:fc:ec:20:04:9b:9a:ca:ae:01:f3:93:dd:
                    67:a0:b5:de:0a:19:ca:51:1f:ff:b9:2b:83:5c:dd:
                    a1:bc:bf:61:02:cd:e4:cf:36:ff:a3:08:a6:15:cb:
                    44:99:14:32:35:d1:49:c2:a6:e5:1d:f3:c3:7d:8d:
                    9f:58:86:57:f5:da:de:10:ee:7c:11:e5:e6:97:31:
                    c5:ce:22:11:b0:09:11:df:37:23:14:a8:63:2c:09:
                    7f:2d:06:32:db:d9:ff:6b:af:36:33:8f:d8:13:a5:
                    56:1d:c8:c8:e7:32:78:86:b4:99:08:77:8a:a8:52:
                    55:c4:49:31:b5:1c:4a:e2:c8:d9:46:2d:c0:d7:c4:
                    ae:c7:78:06:e8:51:01:8b:5d:54:84:44:79:07:3a:
                    e0:c6:21:9f:a6:b9:eb:08:c8:f5:e2:3d:f9:b4:a4:
                    20:80:ed:d4:c2:5e:6e:f2:5b:cb:d4:f7:11:c3:5c:
                    96:ab:e9:85:b2:e9:4c:fb:45:d3:bb:29:6b:c6:15:
                    51:83:d8:dd:a9:e7:ce:f1:24:5e:5c:09:7b:ef:a4:
                    f5:79:5c:2e:a6:7b:8d:ac:f1:7a:29:5a:eb:90:74:
                    f9:99:f0:cc:92:a3:63:14:33:ec:2f:34:55:68:8e:
                    32:58:4b:16:2a:61:97:ba:0a:9b:36:42:fc:78:6a:
                    d3:1e:55:7b:35:72:d0:36:60:ec:1b:22:ea:df:ea:
                    54:30:4e:3e:52:86:e5:30:94:bc:4e:95:d8:a9:d0:
                    50:3a:04:82:7c:73:4d:11:a2:dc:78:bb:04:c0:4e:
                    02:d4:3c:f6:9d:a2:de:65:66:8e:5e:f9:7a:99:70:
                    0f:b0:72:7c:10:b3:26:ce:d3:e3:31:7b:f3:b5:ac:
                    40:30:a3
                Exponent: 65537 (0x10001)
        X509v3 extensions:
            X509v3 Basic Constraints: 
                CA:FALSE
            Netscape Comment: 
                OpenSSL Generated Certificate
            X509v3 Subject Key Identifier: 
                3F:4D:26:26:C7:4E:9F:13:51:10:FD:61:3F:28:92:BC:76:F9:52:62
            X509v3 Authority Key Identifier: 
                keyid:27:1B:83:F6:9D:82:26:2A:DC:EA:DC:19:93:C0:D9:25:46:6F:EB:2E

    Signature Algorithm: sha256WithRSAEncryption
         be:d3:1b:02:96:5f:a1:75:f4:8e:69:2a:c8:53:1a:20:d2:3a:
         7e:ba:29:f0:b9:66:66:ab:91:d3:5b:ef:a5:d1:78:aa:4f:82:
         f7:dd:d4:01:b1:63:7f:b2:c1:84:90:c1:dc:02:09:3e:33:37:
         fe:54:57:42:c1:17:ce:bf:48:c5:7a:bd:9a:3c:a5:83:0e:fc:
         28:3e:c6:a2:09:a1:f8:42:5b:60:33:f9:6e:e7:db:0e:be:f2:
         d0:1c:6f:7c:74:66:a2:9d:e1:ea:26:1d:19:5b:f4:c9:a2:3c:
         ce:df:64:5c:09:18:31:1d:49:7e:38:74:ab:13:62:38:2b:7b:
         8d:75:31:b1:f3:79:9c:17:ad:11:a4:3b:50:77:c8:ea:bd:08:
         7f:7c:46:98:32:e6:fc:07:6a:d5:6e:39:75:72:40:74:33:4a:
         8a:dd:64:59:58:3a:61:b7:3a:a7:d4:56:8b:57:8b:8a:0e:88:
         d2:5e:a6:61:9e:08:bd:c0:ed:15:ba:ee:65:5d:9a:06:60:5e:
         ab:26:12:7b:86:df:df:13:0c:44:8d:16:84:ac:5c:48:2c:17:
         be:24:16:75:e3:a3:53:30:92:87:69:f3:3d:48:91:37:17:9d:
         3f:86:b2:5a:cf:07:54:72:9e:33:c2:f6:5c:54:cf:43:e7:26:
         c2:5a:5e:f4:fb:15:52:ea:2d:d6:7f:97:b3:f5:f3:19:08:64:
         3f:52:ce:aa:d3:eb:49:36:19:9c:01:4a:8d:be:75:29:1d:03:
         6b:22:79:ad:f9:64:a9:5d:1c:4e:70:72:9a:ba:aa:30:3a:89:
         cc:a5:03:9b:6c:02:a2:c3:94:8f:e2:d1:99:7e:42:2f:36:8a:
         69:6c:b8:d2:55:a7:6a:cc:5d:5e:93:23:9f:0f:88:d8:91:9a:
         59:b5:a9:43:0c:3c:4e:38:af:15:57:26:f7:0f:a5:d2:f7:fe:
         68:89:fb:38:c9:94:ca:0b:32:88:ca:87:93:f7:56:b6:93:86:
         6a:ac:ab:54:65:c6:3b:ad:5b:0b:96:2f:25:56:74:b4:05:c8:
         04:c6:fd:06:21:c3:50:65:c7:9e:18:18:2f:b4:a1:74:4f:9d:
         54:a9:c4:90:45:2a:7b:b7:ca:4f:76:8d:f7:0d:f9:fd:76:4f:
         81:f3:80:7c:2d:da:95:6b:bd:ad:db:ee:8d:0f:29:0d:61:3d:
         ec:df:26:7d:87:a6:9f:b7:a2:50:20:c7:26:d0:84:f9:63:1c:
         d8:d9:32:38:89:6e:23:e0:40:d2:16:8c:bb:68:73:21:52:2e:
         1c:d6:13:41:08:d3:5d:a7:f3:7c:51:c8:76:b0:2e:68:75:97:
         31:07:2c:b6:44:5b:16:37
-----BEGIN CERTIFICATE-----
MIIFSjCCAzKgAwIBAgIEEAAAZzANBgkqhkiG9w0BAQsFADAnMSUwIwYDVQQDDBxT
UkszX3NoYTI1Nl80MDk2XzY1NTM3X3YzX2NhMB4XDTE4MDMwNzE1MTMzN1oXDTI4
MDMwNDE1MTMzN1owKjEoMCYGA1UEAwwfQ1NGM18xX3NoYTI1Nl80MDk2XzY1NTM3
X3YzX3VzcjCCAiIwDQYJKoZIhvcNAQEBBQADggIPADCCAgoCggIBAMxJF8cOUhta
RflzJypNbR0RfKb0N6sIjncZ4RtbCO2KMKdIzdZACP8XpRyyURzap0TFy8ru348w
Gzi26WJz572+ocwp7tPDVceruIGPdTqxQFnFj6pRpg58j6wnpkkAl/sMpuPg/7pp
QJLCih8ltQ9zZvcj2hwr7/ZCr5Jc8nOrwKgAvqIhvWbiLa1SaTgB7HRQUKyLR3Zq
lgmFM0bOPm818/xhLMkf5+DDKp660JQMvB+wYRIT/OwgBJuayq4B85PdZ6C13goZ
ylEf/7krg1zdoby/YQLN5M82/6MIphXLRJkUMjXRScKm5R3zw32Nn1iGV/Xa3hDu
fBHl5pcxxc4iEbAJEd83IxSoYywJfy0GMtvZ/2uvNjOP2BOlVh3IyOcyeIa0mQh3
iqhSVcRJMbUcSuLI2UYtwNfErsd4BuhRAYtdVIREeQc64MYhn6a56wjI9eI9+bSk
IIDt1MJebvJby9T3EcNclqvphbLpTPtF07spa8YVUYPY3annzvEkXlwJe++k9Xlc
LqZ7jazxeila65B0+ZnwzJKjYxQz7C80VWiOMlhLFiphl7oKmzZC/Hhq0x5VezVy
0DZg7Bsi6t/qVDBOPlKG5TCUvE6V2KnQUDoEgnxzTRGi3Hi7BMBOAtQ89p2i3mVm
jl75eplwD7ByfBCzJs7T4zF787WsQDCjAgMBAAGjezB5MAkGA1UdEwQCMAAwLAYJ
YIZIAYb4QgENBB8WHU9wZW5TU0wgR2VuZXJhdGVkIENlcnRpZmljYXRlMB0GA1Ud
DgQWBBQ/TSYmx06fE1EQ/WE/KJK8dvlSYjAfBgNVHSMEGDAWgBQnG4P2nYImKtzq
3BmTwNklRm/rLjANBgkqhkiG9w0BAQsFAAOCAgEAvtMbApZfoXX0jmkqyFMaINI6
frop8LlmZquR01vvpdF4qk+C993UAbFjf7LBhJDB3AIJPjM3/lRXQsEXzr9IxXq9
mjylgw78KD7Gogmh+EJbYDP5bufbDr7y0BxvfHRmop3h6iYdGVv0yaI8zt9kXAkY
MR1Jfjh0qxNiOCt7jXUxsfN5nBetEaQ7UHfI6r0If3xGmDLm/Adq1W45dXJAdDNK
it1kWVg6Ybc6p9RWi1eLig6I0l6mYZ4IvcDtFbruZV2aBmBeqyYSe4bf3xMMRI0W
hKxcSCwXviQWdeOjUzCSh2nzPUiRNxedP4ayWs8HVHKeM8L2XFTPQ+cmwlpe9PsV
Uuot1n+Xs/XzGQhkP1LOqtPrSTYZnAFKjb51KR0DayJ5rflkqV0cTnBymrqqMDqJ
zKUDm2wCosOUj+LRmX5CLzaKaWy40lWnasxdXpMjnw+I2JGaWbWpQww8TjivFVcm
9w+l0vf+aIn7OMmUygsyiMqHk/dWtpOGaqyrVGXGO61bC5YvJVZ0tAXIBMb9BiHD
UGXHnhgYL7ShdE+dVKnEkEUqe7fKT3aN9w35/XZPgfOAfC3alWu9rdvujQ8pDWE9
7N8mfYemn7eiUCDHJtCE+WMc2NkyOIluI+BA0haMu2hzIVIuHNYTQQjTXafzfFHI
drAuaHWXMQcstkRbFjc=
-----END CERTIFICATE-----
