Certificate:
    Data:
        Version: 3 (0x2)
        Serial Number: 268435547 (0x1000005b)
    Signature Algorithm: sha256WithRSAEncryption
        Issuer: CN=SRK3_sha256_2048_65537_v3_ca
        Validity
            Not Before: Mar  7 15:13:31 2018 GMT
            Not After : Mar  4 15:13:31 2028 GMT
        Subject: CN=CSF3_1_sha256_2048_65537_v3_usr
        Subject Public Key Info:
            Public Key Algorithm: rsaEncryption
                Public-Key: (2048 bit)
                Modulus:
                    00:ca:e0:6a:11:ee:b7:79:aa:34:aa:08:7c:f3:9a:
                    89:40:de:c9:68:a7:df:85:52:46:22:16:52:7c:1a:
                    86:e8:08:40:02:d4:a5:9c:08:e1:a7:ae:a1:72:c5:
                    98:a3:aa:a4:98:db:93:d3:de:cf:9b:dd:e6:56:15:
                    b6:40:89:39:a3:83:91:b4:f2:83:2f:37:d2:3a:3b:
                    07:cd:a1:63:bd:66:00:55:b0:b0:e6:f0:5b:b8:47:
                    ef:7b:b9:89:d7:14:97:fc:ec:56:6f:09:81:a1:04:
                    9d:be:e8:1b:bc:be:67:c1:98:13:f3:0e:e6:c2:80:
                    72:55:e0:90:e4:22:a2:d0:6f:62:8c:cf:ba:68:6e:
                    5e:2d:1f:2a:39:39:ec:d9:6f:8d:8f:6d:8b:2f:14:
                    85:4a:c2:67:c5:bb:03:45:d6:b3:45:d5:df:14:57:
                    2a:3e:44:47:af:3f:39:cd:d9:92:16:3f:aa:9b:1e:
                    7a:0d:b6:58:2b:66:18:12:6e:a9:64:be:0a:d0:21:
                    83:41:c2:01:9c:bf:a4:af:98:8d:72:7a:7b:9c:29:
                    65:6a:50:32:03:62:a4:8a:35:ea:cd:95:15:30:0d:
                    98:d1:44:dd:d1:e0:88:2c:bb:ba:47:41:a8:63:20:
                    94:79:6e:ce:5e:7c:64:0c:2b:5f:5a:69:7c:95:b8:
                    66:d3
                Exponent: 65537 (0x10001)
        X509v3 extensions:
            X509v3 Basic Constraints: 
                CA:FALSE
            Netscape Comment: 
                OpenSSL Generated Certificate
            X509v3 Subject Key Identifier: 
                C3:61:DC:36:2A:C1:5B:79:40:B7:1D:99:36:CA:43:C6:E7:18:BD:9D
            X509v3 Authority Key Identifier: 
                keyid:B6:71:8A:C5:23:6F:6E:BE:93:55:7F:39:CE:B5:5C:33:FD:6E:D4:B8

    Signature Algorithm: sha256WithRSAEncryption
         23:5b:5f:5b:dc:69:68:6b:b5:59:bc:70:02:18:22:a1:b8:e2:
         26:e5:e7:89:4f:9c:20:53:34:f8:c0:0c:34:ea:10:34:1c:af:
         57:95:db:b0:f1:16:15:7b:14:3d:47:7d:60:40:af:9d:f1:f4:
         f8:eb:c9:2f:45:bc:18:d1:cb:fd:f7:01:15:ce:48:37:86:c7:
         98:fe:dd:40:33:55:ff:a7:75:d9:8a:d0:c6:86:b3:e1:ff:11:
         31:4e:a7:70:f6:07:0a:49:1f:0e:b4:96:0a:7a:b9:36:65:fb:
         0c:e0:2f:e7:e9:aa:1f:1d:bb:8f:a2:eb:dc:9b:ee:5a:10:d6:
         ed:a2:ac:4b:b5:cf:b7:dc:ed:6d:7a:ae:22:c2:3b:09:36:19:
         16:0d:95:59:55:4c:01:ab:59:dc:f3:11:ad:74:1f:ca:67:36:
         0c:02:6d:0d:2f:db:b7:8d:5c:9f:5e:0c:8e:af:ab:2e:53:e0:
         82:1a:36:e9:97:c6:30:45:36:57:a7:9e:0e:93:c4:42:74:c5:
         83:69:0c:db:7e:95:18:3b:7d:12:6f:7b:33:a3:a8:67:02:61:
         fc:cd:57:e5:82:9d:16:c8:15:6b:24:34:6b:55:5c:44:b4:28:
         5f:cc:6d:19:7a:30:5a:cc:4d:c7:9a:bc:3f:ad:75:b3:ee:bb:
         45:d7:fb:cd
-----BEGIN CERTIFICATE-----
MIIDSjCCAjKgAwIBAgIEEAAAWzANBgkqhkiG9w0BAQsFADAnMSUwIwYDVQQDDBxT
UkszX3NoYTI1Nl8yMDQ4XzY1NTM3X3YzX2NhMB4XDTE4MDMwNzE1MTMzMVoXDTI4
MDMwNDE1MTMzMVowKjEoMCYGA1UEAwwfQ1NGM18xX3NoYTI1Nl8yMDQ4XzY1NTM3
X3YzX3VzcjCCASIwDQYJKoZIhvcNAQEBBQADggEPADCCAQoCggEBAMrgahHut3mq
NKoIfPOaiUDeyWin34VSRiIWUnwahugIQALUpZwI4aeuoXLFmKOqpJjbk9Pez5vd
5lYVtkCJOaODkbTygy830jo7B82hY71mAFWwsObwW7hH73u5idcUl/zsVm8JgaEE
nb7oG7y+Z8GYE/MO5sKAclXgkOQiotBvYozPumhuXi0fKjk57NlvjY9tiy8UhUrC
Z8W7A0XWs0XV3xRXKj5ER68/Oc3ZkhY/qpseeg22WCtmGBJuqWS+CtAhg0HCAZy/
pK+YjXJ6e5wpZWpQMgNipIo16s2VFTANmNFE3dHgiCy7ukdBqGMglHluzl58ZAwr
X1ppfJW4ZtMCAwEAAaN7MHkwCQYDVR0TBAIwADAsBglghkgBhvhCAQ0EHxYdT3Bl
blNTTCBHZW5lcmF0ZWQgQ2VydGlmaWNhdGUwHQYDVR0OBBYEFMNh3DYqwVt5QLcd
mTbKQ8bnGL2dMB8GA1UdIwQYMBaAFLZxisUjb26+k1V/Oc61XDP9btS4MA0GCSqG
SIb3DQEBCwUAA4IBAQAjW19b3Gloa7VZvHACGCKhuOIm5eeJT5wgUzT4wAw06hA0
HK9Xlduw8RYVexQ9R31gQK+d8fT468kvRbwY0cv99wEVzkg3hseY/t1AM1X/p3XZ
itDGhrPh/xExTqdw9gcKSR8OtJYKerk2ZfsM4C/n6aofHbuPouvcm+5aENbtoqxL
tc+33O1teq4iwjsJNhkWDZVZVUwBq1nc8xGtdB/KZzYMAm0NL9u3jVyfXgyOr6su
U+CCGjbpl8YwRTZXp54Ok8RCdMWDaQzbfpUYO30Sb3szo6hnAmH8zVflgp0WyBVr
JDRrVVxEtChfzG0ZejBazE3Hmrw/rXWz7rtF1/vN
-----END CERTIFICATE-----
