Certificate:
    Data:
        Version: 3 (0x2)
        Serial Number: 268435528 (0x10000048)
    Signature Algorithm: sha256WithRSAEncryption
        Issuer: CN=CA1_sha256_1024_65537_v3_ca
        Validity
            Not Before: Mar  7 15:13:29 2018 GMT
            Not After : Mar  4 15:13:29 2028 GMT
        Subject: CN=SRK1_sha256_1024_65537_v3_ca
        Subject Public Key Info:
            Public Key Algorithm: rsaEncryption
                Public-Key: (1024 bit)
                Modulus:
                    00:9f:ce:db:29:49:54:58:51:ac:41:9d:31:c3:f6:
                    92:5c:39:c2:ee:44:04:29:de:36:ff:5e:06:d2:e0:
                    75:0f:f4:00:2e:d1:13:8f:c4:36:a2:33:b6:2a:71:
                    bd:43:bd:68:6c:4b:62:98:70:9f:7f:ad:52:3b:9f:
                    90:45:8f:6c:ac:33:8e:b8:58:10:2c:51:34:e5:9b:
                    6d:fe:2c:12:a7:e5:f0:2d:88:ac:d8:b2:33:69:e6:
                    04:31:2f:2b:f8:84:3c:a6:73:fe:69:50:9a:5e:f5:
                    ca:9b:38:94:26:1f:8c:58:37:cb:b7:5f:85:35:4a:
                    d7:3c:b9:da:8a:7f:83:49:39
                Exponent: 65537 (0x10001)
        X509v3 extensions:
            X509v3 Subject Key Identifier: 
                D7:53:2A:32:D6:72:47:26:19:BA:12:27:6A:B1:DB:92:50:29:A8:A5
            X509v3 Authority Key Identifier: 
                keyid:74:64:6E:26:30:BE:E2:DF:27:41:E5:E5:E0:D1:55:1C:90:33:0D:4A
                DirName:/CN=CA1_sha256_1024_65537_v3_ca
                serial:B1:9D:E8:9F:1E:CC:7C:8C

            X509v3 Basic Constraints: critical
                CA:TRUE
            X509v3 Key Usage: 
                Certificate Sign
    Signature Algorithm: sha256WithRSAEncryption
         09:63:ad:29:c1:dd:d8:3d:f8:62:42:e7:d5:25:e6:63:fe:4d:
         e1:9a:d7:25:2c:6d:89:78:ab:17:cd:ad:f2:b0:b5:3c:a1:b1:
         54:94:fd:3a:9c:7d:31:fc:4c:e2:47:a4:aa:ff:ac:06:de:2c:
         3b:6d:08:62:c3:9b:7c:43:35:53:7d:e0:02:56:d8:54:b1:8e:
         b2:bb:d7:73:9a:0d:30:a4:e8:00:cf:c9:64:ab:d4:84:5d:9d:
         b0:07:a7:86:24:3d:09:75:aa:cd:00:bd:8f:1c:df:06:e4:dd:
         b3:a0:8e:5a:41:27:c3:41:6a:77:cc:c8:c1:5b:82:5c:e9:6d:
         c7:59
-----BEGIN CERTIFICATE-----
MIICXzCCAcigAwIBAgIEEAAASDANBgkqhkiG9w0BAQsFADAmMSQwIgYDVQQDFBtD
QTFfc2hhMjU2XzEwMjRfNjU1MzdfdjNfY2EwHhcNMTgwMzA3MTUxMzI5WhcNMjgw
MzA0MTUxMzI5WjAnMSUwIwYDVQQDDBxTUksxX3NoYTI1Nl8xMDI0XzY1NTM3X3Yz
X2NhMIGfMA0GCSqGSIb3DQEBAQUAA4GNADCBiQKBgQCfztspSVRYUaxBnTHD9pJc
OcLuRAQp3jb/XgbS4HUP9AAu0ROPxDaiM7Yqcb1DvWhsS2KYcJ9/rVI7n5BFj2ys
M464WBAsUTTlm23+LBKn5fAtiKzYsjNp5gQxLyv4hDymc/5pUJpe9cqbOJQmH4xY
N8u3X4U1Stc8udqKf4NJOQIDAQABo4GYMIGVMB0GA1UdDgQWBBTXUyoy1nJHJhm6
EidqsduSUCmopTBWBgNVHSMETzBNgBR0ZG4mML7i3ydB5eXg0VUckDMNSqEqpCgw
JjEkMCIGA1UEAxQbQ0ExX3NoYTI1Nl8xMDI0XzY1NTM3X3YzX2NhggkAsZ3onx7M
fIwwDwYDVR0TAQH/BAUwAwEB/zALBgNVHQ8EBAMCAgQwDQYJKoZIhvcNAQELBQAD
gYEACWOtKcHd2D34YkLn1SXmY/5N4ZrXJSxtiXirF82t8rC1PKGxVJT9Opx9MfxM
4kekqv+sBt4sO20IYsObfEM1U33gAlbYVLGOsrvXc5oNMKToAM/JZKvUhF2dsAen
hiQ9CXWqzQC9jxzfBuTds6COWkEnw0Fqd8zIwVuCXOltx1k=
-----END CERTIFICATE-----
