Certificate:
    Data:
        Version: 3 (0x2)
        Serial Number: 268435532 (0x1000004c)
    Signature Algorithm: sha256WithRSAEncryption
        Issuer: CN=SRK2_sha256_1024_65537_v3_ca
        Validity
            Not Before: Mar  7 15:13:29 2018 GMT
            Not After : Mar  4 15:13:29 2028 GMT
        Subject: CN=CSF2_1_sha256_1024_65537_v3_usr
        Subject Public Key Info:
            Public Key Algorithm: rsaEncryption
                Public-Key: (1024 bit)
                Modulus:
                    00:e7:2b:d8:36:15:3a:8f:98:d2:6e:10:04:31:bb:
                    72:27:90:75:e0:a1:14:85:4d:fc:d5:02:ad:84:92:
                    b6:f7:60:01:81:59:a5:bd:77:eb:38:41:24:e5:fe:
                    ce:13:99:1b:5a:5e:c7:dc:70:78:e0:ab:d3:cc:5b:
                    2d:99:69:0c:a6:13:02:c5:e4:4d:83:dc:85:a0:67:
                    cd:bb:92:98:f9:e9:b4:cf:e0:be:83:67:13:86:48:
                    06:94:e4:05:06:96:da:94:1c:21:fb:8d:0b:4f:fc:
                    37:92:92:2d:18:17:cf:22:47:ef:d2:a2:e2:44:a9:
                    a8:8c:ba:e9:a7:d5:ca:8d:67
                Exponent: 65537 (0x10001)
        X509v3 extensions:
            X509v3 Basic Constraints: 
                CA:FALSE
            Netscape Comment: 
                OpenSSL Generated Certificate
            X509v3 Subject Key Identifier: 
                8F:13:2B:25:9D:6F:15:E9:2B:94:54:44:B2:49:35:29:46:EC:10:EB
            X509v3 Authority Key Identifier: 
                keyid:AD:1D:37:3A:BD:F1:1B:5F:EB:C5:8B:20:C6:22:44:1E:00:1B:98:06

    Signature Algorithm: sha256WithRSAEncryption
         15:75:b8:3d:be:88:dd:c2:c5:70:33:75:21:81:14:da:22:e9:
         aa:38:a9:2c:38:f3:23:7b:2f:1b:f7:8c:68:31:5b:db:e0:d1:
         16:04:da:c2:37:e3:2c:a1:70:b8:44:e9:fd:17:cf:74:e5:1f:
         94:bb:3a:99:33:6e:73:a0:7f:7e:9f:a1:da:5a:d0:c5:e1:76:
         fb:3f:6e:b9:cb:2d:4e:d1:b5:89:ac:19:37:21:f7:3a:2f:43:
         3e:7a:58:8a:74:44:de:c4:37:9d:6a:e3:dc:02:51:2d:c2:fd:
         c5:e1:6c:e3:89:74:e6:5f:0d:f8:22:fd:a8:e8:7a:3c:6f:c8:
         c4:c3
-----BEGIN CERTIFICATE-----
MIICRTCCAa6gAwIBAgIEEAAATDANBgkqhkiG9w0BAQsFADAnMSUwIwYDVQQDDBxT
UksyX3NoYTI1Nl8xMDI0XzY1NTM3X3YzX2NhMB4XDTE4MDMwNzE1MTMyOVoXDTI4
MDMwNDE1MTMyOVowKjEoMCYGA1UEAwwfQ1NGMl8xX3NoYTI1Nl8xMDI0XzY1NTM3
X3YzX3VzcjCBnzANBgkqhkiG9w0BAQEFAAOBjQAwgYkCgYEA5yvYNhU6j5jSbhAE
MbtyJ5B14KEUhU381QKthJK292ABgVmlvXfrOEEk5f7OE5kbWl7H3HB44KvTzFst
mWkMphMCxeRNg9yFoGfNu5KY+em0z+C+g2cThkgGlOQFBpbalBwh+40LT/w3kpIt
GBfPIkfv0qLiRKmojLrpp9XKjWcCAwEAAaN7MHkwCQYDVR0TBAIwADAsBglghkgB
hvhCAQ0EHxYdT3BlblNTTCBHZW5lcmF0ZWQgQ2VydGlmaWNhdGUwHQYDVR0OBBYE
FI8TKyWdbxXpK5RURLJJNSlG7BDrMB8GA1UdIwQYMBaAFK0dNzq98Rtf68WLIMYi
RB4AG5gGMA0GCSqGSIb3DQEBCwUAA4GBABV1uD2+iN3CxXAzdSGBFNoi6ao4qSw4
8yN7Lxv3jGgxW9vg0RYE2sI34yyhcLhE6f0Xz3TlH5S7OpkzbnOgf36fodpa0MXh
dvs/brnLLU7RtYmsGTch9zovQz56WIp0RN7EN51q49wCUS3C/cXhbOOJdOZfDfgi
/ajoejxvyMTD
-----END CERTIFICATE-----
