Certificate:
    Data:
        Version: 3 (0x2)
        Serial Number: 268435562 (0x1000006a)
    Signature Algorithm: sha256WithRSAEncryption
        Issuer: CN=SRK4_sha256_4096_65537_v3_ca
        Validity
            Not Before: Mar  7 15:13:40 2018 GMT
            Not After : Mar  4 15:13:40 2028 GMT
        Subject: CN=CSF4_1_sha256_4096_65537_v3_usr
        Subject Public Key Info:
            Public Key Algorithm: rsaEncryption
                Public-Key: (4096 bit)
                Modulus:
                    00:cc:ed:dd:7b:36:66:d1:82:02:1b:db:75:74:26:
                    60:0f:43:87:ea:fa:0c:c0:66:09:3e:3b:da:30:5e:
                    73:4f:b4:18:83:41:e9:a0:bb:7f:af:f9:f7:c9:c1:
                    d6:4b:0f:e5:cb:c8:fa:5b:88:6d:30:2b:c0:52:15:
                    30:bc:0c:47:0c:09:60:49:bb:4e:07:44:2d:2f:e8:
                    91:a8:ab:38:4d:06:bc:da:c4:3b:8b:c1:e5:f7:e2:
                    11:d1:c0:a5:3b:98:12:25:64:bd:35:46:07:7b:ca:
                    a9:5d:98:14:c9:53:32:d5:8b:5d:b0:85:bb:06:0f:
                    49:48:57:54:e4:85:d9:a2:f7:81:fb:92:f3:88:b2:
                    9e:e8:75:d9:9d:a5:ef:51:55:e1:a1:69:23:c2:a7:
                    91:e9:a9:9d:63:80:e2:2e:10:74:fa:dd:bb:a3:c3:
                    6f:08:35:dc:05:a6:1c:54:11:0f:67:dd:c1:fc:f2:
                    f4:71:30:1a:42:ea:af:d5:a3:52:39:7c:fc:33:2a:
                    a2:f4:54:da:5e:1a:67:a5:54:ee:2b:d3:80:9a:5c:
                    6f:f7:f3:3f:8e:a4:51:a2:ee:85:6c:a1:0b:e9:ad:
                    cb:07:43:da:3e:0b:e6:5f:43:36:17:6d:21:6b:2b:
                    0b:e8:89:34:01:0e:df:93:48:47:2b:89:ac:71:1d:
                    26:c7:2b:ea:ac:51:a2:73:78:c5:e1:f2:a5:cd:9a:
                    09:5e:e1:26:83:16:3b:03:ef:c1:fe:41:a1:af:1b:
                    af:49:b2:02:9c:5c:80:c5:f7:78:ee:a2:b9:24:f8:
                    9d:6f:ca:83:2a:8e:7f:68:2f:1e:c3:17:16:4e:d7:
                    3b:ef:05:98:8b:b2:16:60:a4:a6:78:76:78:35:74:
                    df:82:16:9a:0a:5a:7b:e7:72:fd:fd:45:e6:4d:f2:
                    70:1b:58:d5:13:93:58:cc:10:6a:80:95:25:89:63:
                    a2:d6:ab:ce:d0:e2:d7:02:c2:74:ca:dd:f5:27:8f:
                    31:6d:6f:53:51:88:80:61:ba:5d:19:4a:a6:3b:2c:
                    0f:0f:de:21:50:ba:0d:17:0f:53:d4:ed:17:8c:c4:
                    99:61:6e:63:8e:7e:ed:a4:fd:f9:87:81:02:19:aa:
                    10:36:a7:74:aa:8e:3d:5a:3a:af:ad:1f:dd:ca:ae:
                    95:77:80:d0:b0:b4:e6:5d:52:b6:57:8e:ed:1c:25:
                    3a:e2:53:63:1c:a7:3d:8e:ab:b2:ab:3a:58:60:ca:
                    78:69:eb:3a:1a:c7:ab:14:6d:86:6d:90:d2:76:da:
                    5b:da:ac:b9:6a:8f:c7:74:e3:b3:5e:2d:fd:19:3e:
                    79:6e:39:eb:76:7d:9e:a1:e1:33:3e:96:87:f3:ac:
                    cf:4d:8b
                Exponent: 65537 (0x10001)
        X509v3 extensions:
            X509v3 Basic Constraints: 
                CA:FALSE
            Netscape Comment: 
                OpenSSL Generated Certificate
            X509v3 Subject Key Identifier: 
                C7:40:F3:79:85:83:35:2B:07:96:7A:60:3C:C6:4E:8D:A4:5D:AB:AF
            X509v3 Authority Key Identifier: 
                keyid:18:3B:3A:F5:48:DD:E0:BA:CD:CF:1E:76:C5:E7:EF:F1:2A:37:A4:35

    Signature Algorithm: sha256WithRSAEncryption
         6b:fc:83:47:73:8a:7b:23:0b:cc:16:62:5a:fa:a7:6c:42:eb:
         6a:a0:a6:f7:b1:9f:e2:cc:71:61:f0:4d:a1:52:63:a5:5f:fa:
         6d:90:f9:2a:0b:b2:26:33:8c:ab:1a:7f:b7:96:a8:c5:cb:50:
         c0:a1:3a:20:af:b2:3d:02:5e:f5:93:0d:b9:6a:46:5b:81:5c:
         56:0d:4e:4c:12:d6:8d:2e:14:ab:f2:54:cc:7b:d8:07:ce:f1:
         92:b1:c1:ab:c2:83:f7:db:91:30:cb:dc:ee:c2:e5:c8:52:18:
         a9:b8:51:4f:6b:01:a5:23:c0:f7:af:18:24:80:76:f7:51:12:
         39:86:4f:98:43:18:39:39:ef:28:fd:0b:d3:f7:ef:e7:f3:36:
         e6:18:7b:d3:f8:91:59:54:a6:54:58:4f:71:68:d3:f6:98:94:
         19:6d:93:be:9c:2d:0c:aa:bf:f5:cc:e3:04:24:b6:c5:ff:e1:
         02:41:7c:42:dc:fe:16:f2:0e:05:b5:fb:71:be:fb:e1:9d:28:
         65:65:5c:26:2c:65:c2:16:f9:77:15:63:16:08:61:0b:17:8e:
         81:bd:83:89:16:f9:26:75:9f:da:07:1f:4c:67:06:60:75:94:
         48:f8:ad:54:60:24:63:6b:d5:13:1b:da:17:da:2b:0e:40:b3:
         eb:64:ff:52:33:12:26:ec:8c:95:a3:f9:f0:10:93:7b:1a:26:
         f7:69:db:ac:75:db:06:14:b6:bc:15:66:04:77:c9:87:81:3c:
         33:2a:5e:60:7b:1e:8d:1b:32:5a:f6:b0:0d:cd:7a:c4:63:eb:
         6c:f8:05:9d:b8:de:30:65:e6:2d:2f:dd:30:e2:38:a8:6d:48:
         50:fd:b2:8f:ba:84:5a:ce:4a:c7:07:93:3f:c5:14:3f:b1:95:
         c3:ac:55:16:fb:41:ae:a7:86:5b:76:47:11:a1:88:6d:f8:4e:
         5b:1e:c4:4b:f3:ce:29:2c:c9:f5:5f:e2:5f:65:ba:a4:4f:0a:
         85:44:ab:5a:05:db:b7:e9:17:9b:3b:95:3d:bd:5a:78:98:3e:
         b4:38:2e:72:eb:79:c9:45:a8:df:ec:0d:93:3b:eb:6e:5d:b9:
         be:e4:51:a8:a8:16:10:e6:98:50:5a:12:c8:77:3c:31:95:44:
         0e:ba:90:db:1b:68:d6:80:c2:67:93:ea:cd:97:95:38:22:39:
         84:d0:29:46:b8:a6:bb:72:e2:e3:45:6c:92:4a:55:48:3b:d7:
         f9:cc:b1:7f:da:02:5b:86:fa:9d:a1:2d:9b:84:62:6d:4b:1a:
         6a:8d:ab:58:d9:56:4b:b9:11:96:1a:e8:36:a5:30:8d:e2:8c:
         71:ca:76:a9:6f:79:bc:1e
-----BEGIN CERTIFICATE-----
MIIFSjCCAzKgAwIBAgIEEAAAajANBgkqhkiG9w0BAQsFADAnMSUwIwYDVQQDDBxT
Uks0X3NoYTI1Nl80MDk2XzY1NTM3X3YzX2NhMB4XDTE4MDMwNzE1MTM0MFoXDTI4
MDMwNDE1MTM0MFowKjEoMCYGA1UEAwwfQ1NGNF8xX3NoYTI1Nl80MDk2XzY1NTM3
X3YzX3VzcjCCAiIwDQYJKoZIhvcNAQEBBQADggIPADCCAgoCggIBAMzt3Xs2ZtGC
AhvbdXQmYA9Dh+r6DMBmCT472jBec0+0GINB6aC7f6/598nB1ksP5cvI+luIbTAr
wFIVMLwMRwwJYEm7TgdELS/okairOE0GvNrEO4vB5ffiEdHApTuYEiVkvTVGB3vK
qV2YFMlTMtWLXbCFuwYPSUhXVOSF2aL3gfuS84iynuh12Z2l71FV4aFpI8Knkemp
nWOA4i4QdPrdu6PDbwg13AWmHFQRD2fdwfzy9HEwGkLqr9WjUjl8/DMqovRU2l4a
Z6VU7ivTgJpcb/fzP46kUaLuhWyhC+mtywdD2j4L5l9DNhdtIWsrC+iJNAEO35NI
RyuJrHEdJscr6qxRonN4xeHypc2aCV7hJoMWOwPvwf5Boa8br0myApxcgMX3eO6i
uST4nW/KgyqOf2gvHsMXFk7XO+8FmIuyFmCkpnh2eDV034IWmgpae+dy/f1F5k3y
cBtY1ROTWMwQaoCVJYljotarztDi1wLCdMrd9SePMW1vU1GIgGG6XRlKpjssDw/e
IVC6DRcPU9TtF4zEmWFuY45+7aT9+YeBAhmqEDandKqOPVo6r60f3cqulXeA0LC0
5l1StleO7RwlOuJTYxynPY6rsqs6WGDKeGnrOhrHqxRthm2Q0nbaW9qsuWqPx3Tj
s14t/Rk+eW4563Z9nqHhMz6Wh/Osz02LAgMBAAGjezB5MAkGA1UdEwQCMAAwLAYJ
YIZIAYb4QgENBB8WHU9wZW5TU0wgR2VuZXJhdGVkIENlcnRpZmljYXRlMB0GA1Ud
DgQWBBTHQPN5hYM1KweWemA8xk6NpF2rrzAfBgNVHSMEGDAWgBQYOzr1SN3gus3P
HnbF5+/xKjekNTANBgkqhkiG9w0BAQsFAAOCAgEAa/yDR3OKeyMLzBZiWvqnbELr
aqCm97Gf4sxxYfBNoVJjpV/6bZD5KguyJjOMqxp/t5aoxctQwKE6IK+yPQJe9ZMN
uWpGW4FcVg1OTBLWjS4Uq/JUzHvYB87xkrHBq8KD99uRMMvc7sLlyFIYqbhRT2sB
pSPA968YJIB291ESOYZPmEMYOTnvKP0L0/fv5/M25hh70/iRWVSmVFhPcWjT9piU
GW2TvpwtDKq/9czjBCS2xf/hAkF8Qtz+FvIOBbX7cb774Z0oZWVcJixlwhb5dxVj
FghhCxeOgb2DiRb5JnWf2gcfTGcGYHWUSPitVGAkY2vVExvaF9orDkCz62T/UjMS
JuyMlaP58BCTexom92nbrHXbBhS2vBVmBHfJh4E8MypeYHsejRsyWvawDc16xGPr
bPgFnbjeMGXmLS/dMOI4qG1IUP2yj7qEWs5KxweTP8UUP7GVw6xVFvtBrqeGW3ZH
EaGIbfhOWx7ES/POKSzJ9V/iX2W6pE8KhUSrWgXbt+kXmzuVPb1aeJg+tDgucut5
yUWo3+wNkzvrbl25vuRRqKgWEOaYUFoSyHc8MZVEDrqQ2xto1oDCZ5PqzZeVOCI5
hNApRrimu3Li40VskkpVSDvX+cyxf9oCW4b6naEtm4RibUsaao2rWNlWS7kRlhro
NqUwjeKMccp2qW95vB4=
-----END CERTIFICATE-----
