Certificate:
    Data:
        Version: 3 (0x2)
        Serial Number: 268435484 (0x1000001c)
    Signature Algorithm: sha256WithRSAEncryption
        Issuer: CN=SRK2_sha256_1024_65537_v3_ca
        Validity
            Not Before: Mar  7 14:25:10 2018 GMT
            Not After : Mar  4 14:25:10 2028 GMT
        Subject: CN=CSF2_1_sha256_1024_65537_v3_usr
        Subject Public Key Info:
            Public Key Algorithm: rsaEncryption
                Public-Key: (1024 bit)
                Modulus:
                    00:ad:3f:e9:80:f8:22:ab:bb:d6:7b:d2:f0:4f:9d:
                    f1:d8:03:07:a9:cd:4a:eb:1f:ee:7c:6a:ec:dc:28:
                    fc:b8:92:6d:c8:ee:42:6d:84:13:9a:16:e3:34:76:
                    82:4d:a2:0a:48:d4:8b:d7:9c:fc:e8:12:c7:0d:81:
                    0f:49:95:be:70:cf:f1:d2:9a:1a:e5:2e:6c:19:ab:
                    fa:28:1e:a4:27:7c:68:a1:b7:6b:81:90:e5:36:0b:
                    7d:c2:a6:30:e6:f4:5f:50:5b:10:59:b1:6c:8d:42:
                    e0:cc:00:18:e5:a0:c9:c8:67:75:ad:06:44:00:0c:
                    80:b6:e0:8f:22:dd:47:34:0b
                Exponent: 65537 (0x10001)
        X509v3 extensions:
            X509v3 Basic Constraints: 
                CA:FALSE
            Netscape Comment: 
                OpenSSL Generated Certificate
            X509v3 Subject Key Identifier: 
                4C:00:0C:69:A9:74:9D:89:96:68:77:B6:84:76:29:18:3A:E8:96:82
            X509v3 Authority Key Identifier: 
                keyid:15:AE:8F:3E:4C:E1:37:BA:CF:B0:2B:F6:AF:72:D3:01:E6:0A:A0:D2

    Signature Algorithm: sha256WithRSAEncryption
         15:e3:40:e4:70:cd:41:f0:a6:b8:67:db:99:f6:f4:24:44:92:
         5d:15:cd:d9:23:ff:0d:67:fc:ae:ac:55:ba:d8:b9:3e:2f:64:
         86:d4:e3:a2:d7:2b:11:0a:5a:2d:b8:ff:22:7b:e6:4b:af:e4:
         87:f0:f9:f1:e1:c8:47:d9:0a:e7:7c:62:df:17:8b:a6:93:42:
         49:ac:66:72:ea:00:c8:ee:a1:14:a9:4d:99:ef:34:75:33:90:
         75:35:f9:d3:12:7e:f2:70:41:a2:09:34:dc:db:f3:33:93:c8:
         38:d4:5c:01:4f:36:9f:a2:69:7f:67:27:5a:83:9f:14:84:15:
         81:59
-----BEGIN CERTIFICATE-----
MIICRTCCAa6gAwIBAgIEEAAAHDANBgkqhkiG9w0BAQsFADAnMSUwIwYDVQQDDBxT
UksyX3NoYTI1Nl8xMDI0XzY1NTM3X3YzX2NhMB4XDTE4MDMwNzE0MjUxMFoXDTI4
MDMwNDE0MjUxMFowKjEoMCYGA1UEAwwfQ1NGMl8xX3NoYTI1Nl8xMDI0XzY1NTM3
X3YzX3VzcjCBnzANBgkqhkiG9w0BAQEFAAOBjQAwgYkCgYEArT/pgPgiq7vWe9Lw
T53x2AMHqc1K6x/ufGrs3Cj8uJJtyO5CbYQTmhbjNHaCTaIKSNSL15z86BLHDYEP
SZW+cM/x0poa5S5sGav6KB6kJ3xoobdrgZDlNgt9wqYw5vRfUFsQWbFsjULgzAAY
5aDJyGd1rQZEAAyAtuCPIt1HNAsCAwEAAaN7MHkwCQYDVR0TBAIwADAsBglghkgB
hvhCAQ0EHxYdT3BlblNTTCBHZW5lcmF0ZWQgQ2VydGlmaWNhdGUwHQYDVR0OBBYE
FEwADGmpdJ2Jlmh3toR2KRg66JaCMB8GA1UdIwQYMBaAFBWujz5M4Te6z7Ar9q9y
0wHmCqDSMA0GCSqGSIb3DQEBCwUAA4GBABXjQORwzUHwprhn25n29CREkl0Vzdkj
/w1n/K6sVbrYuT4vZIbU46LXKxEKWi24/yJ75kuv5Ifw+fHhyEfZCud8Yt8Xi6aT
QkmsZnLqAMjuoRSpTZnvNHUzkHU1+dMSfvJwQaIJNNzb8zOTyDjUXAFPNp+iaX9n
J1qDnxSEFYFZ
-----END CERTIFICATE-----
