Certificate:
    Data:
        Version: 3 (0x2)
        Serial Number: 268435469 (0x1000000d)
    Signature Algorithm: sha256WithRSAEncryption
        Issuer: CN=SRK1_sha256_2048_65537_v3_ca
        Validity
            Not Before: Mar  1 15:26:20 2018 GMT
            Not After : Feb 27 15:26:20 2028 GMT
        Subject: CN=CSF1_1_sha256_2048_65537_v3_usr
        Subject Public Key Info:
            Public Key Algorithm: rsaEncryption
                Public-Key: (2048 bit)
                Modulus:
                    00:df:8f:6c:40:18:8c:05:7c:3e:3c:c9:4a:c8:36:
                    ea:a5:6d:b5:f3:6d:fe:22:4f:b9:af:d2:06:7e:68:
                    34:7d:ef:58:d5:24:9b:db:de:d8:26:f6:af:f3:d2:
                    10:02:ed:b6:60:18:ee:87:a8:7b:ea:d9:a1:23:4a:
                    b2:0b:a3:87:48:4d:ac:1b:65:20:48:40:b5:9e:6b:
                    ae:c6:88:02:2b:b9:67:d8:9b:4d:4a:50:e4:f5:12:
                    b7:6f:cf:11:d2:99:99:9f:fc:fa:1b:52:97:21:c5:
                    11:74:a3:96:d5:7e:86:34:78:d0:5e:cc:9f:13:d0:
                    d7:f4:a0:05:c9:7f:27:70:13:3e:6c:a1:60:30:f1:
                    fc:0e:14:79:b1:37:c1:3e:f1:c5:13:77:10:77:e2:
                    a9:bd:5e:bc:09:98:e5:e7:ab:d1:d2:3d:54:4f:d7:
                    6e:93:81:d7:46:64:73:af:80:7e:c8:69:fe:89:a7:
                    3c:53:38:5f:7d:55:28:86:c7:79:17:25:18:0f:18:
                    e9:b3:95:7a:12:6d:f7:7f:66:01:db:4e:0e:8a:e0:
                    91:bd:a5:9c:05:d2:ce:a3:fa:49:83:a1:27:58:ad:
                    68:5d:f5:92:b8:35:12:3e:7d:6d:f8:b9:3a:4a:8c:
                    b6:74:7a:8f:57:4e:f5:5e:b7:36:8d:b6:11:9f:7f:
                    37:33
                Exponent: 65537 (0x10001)
        X509v3 extensions:
            X509v3 Basic Constraints: 
                CA:FALSE
            Netscape Comment: 
                OpenSSL Generated Certificate
            X509v3 Subject Key Identifier: 
                4A:E3:4D:2F:6B:16:21:7E:91:06:72:8D:EB:8F:78:BF:7D:45:5A:4E
            X509v3 Authority Key Identifier: 
                keyid:99:70:A4:7E:B1:C9:45:B8:5A:AE:D3:A0:D5:06:E0:78:18:F3:F4:6A

    Signature Algorithm: sha256WithRSAEncryption
         28:57:04:f2:67:76:38:a8:18:53:ae:a7:24:3d:5c:25:cf:ca:
         c1:2a:85:13:55:3e:c6:bd:d0:e4:58:84:0b:b7:ac:e4:c7:46:
         55:14:7c:f5:bd:d0:29:fb:dc:b9:0a:06:29:3a:e6:3e:8f:ea:
         57:42:23:89:97:f9:5c:5e:44:cc:9b:db:fb:fa:50:29:28:6b:
         48:14:84:b2:70:b7:de:f0:72:93:2c:94:5d:14:5b:4d:85:4e:
         f4:52:03:1e:8c:d3:cc:5e:3b:47:3e:80:6e:d9:28:e2:a8:1f:
         59:a4:b1:fd:35:6e:68:e0:36:1c:aa:c7:67:b3:1d:96:5e:b9:
         c1:19:69:d0:d3:d9:2f:a8:1f:2a:6e:e9:25:df:d2:eb:71:fd:
         54:a6:1e:12:ad:35:01:a3:fa:36:8e:c7:af:44:f1:0d:0c:2a:
         4c:a7:5a:14:75:70:b5:4a:74:a6:6d:af:d7:32:f9:32:dc:ed:
         b2:11:40:42:0f:f9:9d:0c:91:2e:48:0b:ba:d4:f8:4c:4c:ec:
         68:53:f1:f9:16:f1:d7:7b:f6:46:6a:b1:f5:d7:08:78:68:bf:
         f7:02:4e:3d:f6:17:d1:ef:c9:fc:ed:35:6a:e7:30:ba:aa:d5:
         30:a4:7e:32:c1:68:8a:86:5f:ff:c7:9c:2d:c9:4a:fb:f0:6e:
         84:cc:04:b3
-----BEGIN CERTIFICATE-----
MIIDSjCCAjKgAwIBAgIEEAAADTANBgkqhkiG9w0BAQsFADAnMSUwIwYDVQQDDBxT
UksxX3NoYTI1Nl8yMDQ4XzY1NTM3X3YzX2NhMB4XDTE4MDMwMTE1MjYyMFoXDTI4
MDIyNzE1MjYyMFowKjEoMCYGA1UEAwwfQ1NGMV8xX3NoYTI1Nl8yMDQ4XzY1NTM3
X3YzX3VzcjCCASIwDQYJKoZIhvcNAQEBBQADggEPADCCAQoCggEBAN+PbEAYjAV8
PjzJSsg26qVttfNt/iJPua/SBn5oNH3vWNUkm9ve2Cb2r/PSEALttmAY7oeoe+rZ
oSNKsgujh0hNrBtlIEhAtZ5rrsaIAiu5Z9ibTUpQ5PUSt2/PEdKZmZ/8+htSlyHF
EXSjltV+hjR40F7MnxPQ1/SgBcl/J3ATPmyhYDDx/A4UebE3wT7xxRN3EHfiqb1e
vAmY5eer0dI9VE/XbpOB10Zkc6+Afshp/omnPFM4X31VKIbHeRclGA8Y6bOVehJt
939mAdtODorgkb2lnAXSzqP6SYOhJ1itaF31krg1Ej59bfi5OkqMtnR6j1dO9V63
No22EZ9/NzMCAwEAAaN7MHkwCQYDVR0TBAIwADAsBglghkgBhvhCAQ0EHxYdT3Bl
blNTTCBHZW5lcmF0ZWQgQ2VydGlmaWNhdGUwHQYDVR0OBBYEFErjTS9rFiF+kQZy
jeuPeL99RVpOMB8GA1UdIwQYMBaAFJlwpH6xyUW4Wq7ToNUG4HgY8/RqMA0GCSqG
SIb3DQEBCwUAA4IBAQAoVwTyZ3Y4qBhTrqckPVwlz8rBKoUTVT7GvdDkWIQLt6zk
x0ZVFHz1vdAp+9y5CgYpOuY+j+pXQiOJl/lcXkTMm9v7+lApKGtIFISycLfe8HKT
LJRdFFtNhU70UgMejNPMXjtHPoBu2SjiqB9ZpLH9NW5o4DYcqsdnsx2WXrnBGWnQ
09kvqB8qbukl39Lrcf1Uph4SrTUBo/o2jsevRPENDCpMp1oUdXC1SnSmba/XMvky
3O2yEUBCD/mdDJEuSAu61PhMTOxoU/H5FvHXe/ZGarH11wh4aL/3Ak499hfR78n8
7TVq5zC6qtUwpH4ywWiKhl//x5wtyUr78G6EzASz
-----END CERTIFICATE-----
