Certificate:
    Data:
        Version: 3 (0x2)
        Serial Number: 268435460 (0x10000004)
    Signature Algorithm: sha256WithRSAEncryption
        Issuer: CN=SRK2_sha256_4096_65537_v3_ca
        Validity
            Not Before: Feb 21 14:24:43 2018 GMT
            Not After : Feb 19 14:24:43 2028 GMT
        Subject: CN=CSF2_1_sha256_4096_65537_v3_usr
        Subject Public Key Info:
            Public Key Algorithm: rsaEncryption
                Public-Key: (4096 bit)
                Modulus:
                    00:a3:4b:f5:e9:ed:4b:71:48:53:ae:b5:b1:7d:a9:
                    f8:d7:af:87:e4:15:3c:75:f5:bc:36:c8:b4:c8:18:
                    73:c7:33:f8:88:37:60:71:1a:97:be:ee:aa:c1:83:
                    71:c1:a0:3b:7c:56:51:cf:76:22:5b:1c:2d:e9:91:
                    48:6a:96:f1:ea:65:9b:d9:bc:41:9d:fd:1e:3c:13:
                    1d:f5:04:c2:3a:24:29:a6:3b:07:20:09:9f:25:30:
                    23:25:c6:e3:b2:8a:20:90:27:3e:6e:a8:88:ed:d6:
                    ac:4e:fc:90:d5:31:25:27:ff:d9:dc:53:de:45:dd:
                    c8:91:c6:4b:e7:10:fe:3e:19:82:83:6e:e4:64:b0:
                    5d:6e:c0:60:51:5d:cd:ab:c8:fe:55:53:a7:fd:1b:
                    1c:77:7a:51:b9:a4:40:d0:c9:10:7b:28:75:27:03:
                    dd:13:d6:6b:1b:4e:a1:7c:08:cf:5f:b4:b4:ce:da:
                    13:be:19:42:36:b9:d9:8d:67:72:ab:7e:dd:d5:74:
                    b9:3a:56:37:01:f4:98:d8:57:9b:5a:2b:3f:e8:cb:
                    d6:c4:99:8c:e0:cc:5b:65:d5:96:02:07:8a:f4:ea:
                    0c:4f:2c:f6:0a:ee:7e:11:e6:38:5f:c5:ea:67:ba:
                    32:d0:43:82:d0:75:df:c6:a3:5c:da:6b:4b:22:a6:
                    b8:5b:76:d6:2d:05:c0:31:4c:64:55:26:2a:bf:e2:
                    08:3e:ec:5a:e3:16:63:86:08:54:43:74:b0:f2:d1:
                    58:76:a5:93:a6:c9:a1:04:c6:e8:9c:b5:26:21:86:
                    f7:8d:f5:88:50:62:07:ae:42:18:d7:e7:73:63:33:
                    32:2f:31:de:07:42:64:45:56:46:ba:84:ec:0e:0a:
                    19:7b:49:44:0b:bb:71:5b:d6:6f:21:19:bf:07:af:
                    e3:27:cf:78:42:ff:8b:03:19:2f:92:81:20:1e:08:
                    01:a9:9b:b2:62:29:70:5c:5f:df:e7:22:82:55:4c:
                    f7:cc:a2:16:9f:98:0c:18:8b:cd:c2:b5:4d:4b:7e:
                    5c:2c:8d:b5:d3:e7:a6:5b:03:37:12:5f:1f:77:9a:
                    98:d8:ed:5c:9b:e2:ab:d9:33:81:85:64:ee:05:b9:
                    cc:19:10:7d:b1:aa:32:cf:04:cf:37:0d:03:df:47:
                    70:a4:d6:03:31:cc:21:fb:50:ec:0c:86:7a:d9:91:
                    de:25:f9:35:81:c0:e2:57:e4:ca:9f:67:71:88:c7:
                    dc:0c:d6:8d:a5:77:d1:3a:71:21:51:53:91:16:2b:
                    24:5a:57:50:cc:f0:f5:17:3d:93:2a:7b:a7:40:8b:
                    91:38:f0:c6:e9:75:6b:4a:c7:49:1f:d4:79:2d:d5:
                    ab:57:2f
                Exponent: 65537 (0x10001)
        X509v3 extensions:
            X509v3 Basic Constraints: 
                CA:FALSE
            Netscape Comment: 
                OpenSSL Generated Certificate
            X509v3 Subject Key Identifier: 
                3F:57:01:E3:DA:57:45:ED:F8:F3:53:10:97:33:ED:E9:C9:88:8E:1E
            X509v3 Authority Key Identifier: 
                keyid:D8:01:CD:AD:23:F5:43:5F:A4:60:F0:E6:89:10:E4:AE:42:7E:E7:3E

    Signature Algorithm: sha256WithRSAEncryption
         9e:42:32:36:b0:ce:c8:7c:30:ef:e1:13:f1:fb:fa:43:04:cf:
         1f:7d:3e:22:a1:3b:35:a9:20:e9:f9:c6:d4:ad:e1:c1:a4:d5:
         a3:ad:f1:63:5d:30:3f:1c:93:11:5e:7d:d0:8f:2e:47:99:bc:
         aa:3c:cb:e2:47:db:e8:52:b8:51:6d:c9:c6:24:98:6b:40:7b:
         cb:60:e0:b6:63:e8:6d:f2:9b:57:75:ae:22:57:b5:a0:fc:ae:
         e7:a0:1c:72:0e:d0:ec:cd:36:f0:68:b1:93:e8:f1:71:2a:6e:
         54:6b:09:9c:8a:9e:cf:56:b6:bf:03:93:06:38:b4:3d:7a:e2:
         3b:34:67:fe:98:b2:1e:af:c7:ce:37:03:6e:93:a0:bd:dd:3b:
         2a:98:00:1e:03:a4:fd:ce:87:89:a1:b8:d2:dd:00:f8:34:60:
         10:e1:9f:2a:20:be:94:54:eb:d3:59:0f:d6:99:19:01:0b:a5:
         ee:96:d3:48:3e:51:75:b8:d8:5a:bd:ea:85:78:77:d8:40:22:
         44:2c:4a:8b:14:08:41:90:c6:df:a1:2d:bf:63:ba:c4:06:d3:
         88:36:94:d0:65:1b:29:89:9b:e3:13:a9:fd:3c:5c:28:15:87:
         bd:95:1b:17:14:e1:8b:25:62:76:70:d3:b2:18:56:4c:02:41:
         4e:21:20:6f:f0:df:b5:c2:08:c6:4c:b7:89:07:9f:b9:e1:e3:
         fd:f6:45:2a:9a:d7:a9:3f:5b:af:f7:72:49:2b:af:9c:f5:8d:
         24:c3:56:4f:71:fb:fe:db:de:65:df:5e:61:1d:bd:0d:65:53:
         2d:ec:92:66:c4:0b:a5:da:69:a2:23:1c:1d:2e:9b:a8:6e:40:
         c1:db:df:71:c9:39:ab:cb:3a:f3:59:d3:70:db:58:7b:e3:ae:
         38:6e:92:44:15:ef:cf:9a:b5:06:fa:d0:ef:a8:ac:ac:36:18:
         1d:f8:37:e4:2a:cc:c3:39:c0:82:79:fb:40:6a:6a:ba:52:0b:
         49:74:46:1d:44:04:14:98:cb:92:ee:94:f1:b0:c2:e3:fd:2b:
         a0:85:e0:4b:78:71:e7:5c:2d:2b:55:5b:48:00:16:c7:7e:d6:
         b5:44:8e:04:14:c6:ed:ff:62:8e:d1:46:63:52:bd:c1:5e:5a:
         55:30:9b:cd:40:71:f3:06:e2:3f:92:ef:c3:bb:63:82:cd:b8:
         cc:8f:a5:b0:dc:95:51:b8:18:9a:38:a3:76:27:1d:c6:a5:ea:
         28:f0:3c:0e:aa:6d:54:9f:ee:56:97:40:ed:da:91:e3:a1:46:
         f5:22:ab:f0:8c:14:cb:4f:ba:2d:4b:ba:91:bc:50:22:f0:0b:
         0a:c8:d5:5b:36:c3:ed:f6
-----BEGIN CERTIFICATE-----
MIIFSjCCAzKgAwIBAgIEEAAABDANBgkqhkiG9w0BAQsFADAnMSUwIwYDVQQDDBxT
UksyX3NoYTI1Nl80MDk2XzY1NTM3X3YzX2NhMB4XDTE4MDIyMTE0MjQ0M1oXDTI4
MDIxOTE0MjQ0M1owKjEoMCYGA1UEAwwfQ1NGMl8xX3NoYTI1Nl80MDk2XzY1NTM3
X3YzX3VzcjCCAiIwDQYJKoZIhvcNAQEBBQADggIPADCCAgoCggIBAKNL9entS3FI
U661sX2p+Nevh+QVPHX1vDbItMgYc8cz+Ig3YHEal77uqsGDccGgO3xWUc92Ilsc
LemRSGqW8eplm9m8QZ39HjwTHfUEwjokKaY7ByAJnyUwIyXG47KKIJAnPm6oiO3W
rE78kNUxJSf/2dxT3kXdyJHGS+cQ/j4ZgoNu5GSwXW7AYFFdzavI/lVTp/0bHHd6
UbmkQNDJEHsodScD3RPWaxtOoXwIz1+0tM7aE74ZQja52Y1ncqt+3dV0uTpWNwH0
mNhXm1orP+jL1sSZjODMW2XVlgIHivTqDE8s9grufhHmOF/F6me6MtBDgtB138aj
XNprSyKmuFt21i0FwDFMZFUmKr/iCD7sWuMWY4YIVEN0sPLRWHalk6bJoQTG6Jy1
JiGG9431iFBiB65CGNfnc2MzMi8x3gdCZEVWRrqE7A4KGXtJRAu7cVvWbyEZvwev
4yfPeEL/iwMZL5KBIB4IAambsmIpcFxf3+ciglVM98yiFp+YDBiLzcK1TUt+XCyN
tdPnplsDNxJfH3eamNjtXJviq9kzgYVk7gW5zBkQfbGqMs8EzzcNA99HcKTWAzHM
IftQ7AyGetmR3iX5NYHA4lfkyp9ncYjH3AzWjaV30TpxIVFTkRYrJFpXUMzw9Rc9
kyp7p0CLkTjwxul1a0rHSR/UeS3Vq1cvAgMBAAGjezB5MAkGA1UdEwQCMAAwLAYJ
YIZIAYb4QgENBB8WHU9wZW5TU0wgR2VuZXJhdGVkIENlcnRpZmljYXRlMB0GA1Ud
DgQWBBQ/VwHj2ldF7fjzUxCXM+3pyYiOHjAfBgNVHSMEGDAWgBTYAc2tI/VDX6Rg
8OaJEOSuQn7nPjANBgkqhkiG9w0BAQsFAAOCAgEAnkIyNrDOyHww7+ET8fv6QwTP
H30+IqE7Nakg6fnG1K3hwaTVo63xY10wPxyTEV590I8uR5m8qjzL4kfb6FK4UW3J
xiSYa0B7y2DgtmPobfKbV3WuIle1oPyu56Accg7Q7M028Gixk+jxcSpuVGsJnIqe
z1a2vwOTBji0PXriOzRn/piyHq/HzjcDbpOgvd07KpgAHgOk/c6HiaG40t0A+DRg
EOGfKiC+lFTr01kP1pkZAQul7pbTSD5RdbjYWr3qhXh32EAiRCxKixQIQZDG36Et
v2O6xAbTiDaU0GUbKYmb4xOp/TxcKBWHvZUbFxThiyVidnDTshhWTAJBTiEgb/Df
tcIIxky3iQefueHj/fZFKprXqT9br/dySSuvnPWNJMNWT3H7/tveZd9eYR29DWVT
LeySZsQLpdppoiMcHS6bqG5Awdvfcck5q8s681nTcNtYe+OuOG6SRBXvz5q1BvrQ
76isrDYYHfg35CrMwznAgnn7QGpqulILSXRGHUQEFJjLku6U8bDC4/0roIXgS3hx
51wtK1VbSAAWx37WtUSOBBTG7f9ijtFGY1K9wV5aVTCbzUBx8wbiP5Lvw7tjgs24
zI+lsNyVUbgYmjijdicdxqXqKPA8DqptVJ/uVpdA7dqR46FG9SKr8IwUy0+6LUu6
kbxQIvALCsjVWzbD7fY=
-----END CERTIFICATE-----
