Certificate:
    Data:
        Version: 3 (0x2)
        Serial Number: 268435459 (0x10000003)
    Signature Algorithm: sha256WithRSAEncryption
        Issuer: CN=CA1_sha256_4096_65537_v3_ca
        Validity
            Not Before: Feb 21 14:24:43 2018 GMT
            Not After : Feb 19 14:24:43 2028 GMT
        Subject: CN=SRK2_sha256_4096_65537_v3_ca
        Subject Public Key Info:
            Public Key Algorithm: rsaEncryption
                Public-Key: (4096 bit)
                Modulus:
                    00:c7:8d:54:de:86:e0:1f:3d:80:b3:14:ee:91:cc:
                    46:2c:bb:18:46:24:5c:5c:ce:5d:ae:05:f5:9f:78:
                    3e:44:54:bf:27:14:78:34:cb:b3:5d:a9:90:20:54:
                    43:06:41:12:5d:d9:ce:56:83:fa:a9:ef:b3:5b:0a:
                    ee:4a:11:0f:6d:87:dd:93:d9:44:bb:ff:fc:fa:dd:
                    df:54:ba:7f:e5:9f:11:b0:e9:3c:be:db:b2:7d:19:
                    f3:91:3b:20:f7:bf:18:5b:81:bd:3b:9b:47:a1:14:
                    dd:61:7b:8d:08:c7:39:40:81:e5:29:26:87:9e:c4:
                    2c:59:9d:8b:ad:85:5a:9c:f0:73:7f:d7:26:e4:25:
                    da:6c:d4:a8:21:b8:e8:52:e7:5b:e7:cf:4d:d8:00:
                    fa:38:4e:5d:6a:73:c1:37:5d:c5:17:00:4e:75:8b:
                    d7:b3:e8:98:29:0d:1b:2f:cc:a8:11:ec:64:c3:8b:
                    b1:6c:fb:07:77:64:9b:66:25:f9:36:de:3c:ef:dd:
                    98:38:3a:c5:b1:a0:c4:ba:2d:2d:51:50:a7:9a:ab:
                    6c:68:f6:a0:60:41:10:02:04:78:0a:a4:8e:ca:f1:
                    ec:a0:0b:bb:57:b7:0a:4a:40:09:75:84:31:00:82:
                    ec:ee:0c:85:22:9a:65:e5:34:94:2a:a5:fa:c8:10:
                    c2:32:5e:83:91:8b:86:f7:73:db:f7:a9:f9:61:52:
                    05:53:80:75:0b:b0:cc:0b:cb:64:61:ab:8e:f1:1d:
                    bf:db:03:fd:a4:29:40:b5:51:40:f6:93:64:59:49:
                    4d:58:78:8f:61:e6:ab:a9:1e:2b:e3:e4:cc:07:7a:
                    b8:0f:e4:4c:2c:e3:05:e0:f8:f3:ee:a8:0d:9c:9d:
                    53:f3:67:0c:36:79:b1:6f:fa:2f:d6:1d:94:6f:c2:
                    6f:6c:9c:2f:ca:e1:8a:f8:cb:08:08:ee:57:be:4e:
                    ba:6a:50:db:bf:66:0a:bd:99:18:b7:7d:67:60:28:
                    0d:04:34:6e:2a:6e:99:43:17:e1:42:09:a7:69:f6:
                    bd:d5:a5:45:b4:dc:fc:1d:ef:da:ac:2f:65:b9:7b:
                    d4:03:05:e0:f4:9b:ca:72:7f:ee:bc:27:65:bb:bf:
                    b9:5c:0c:c8:2a:97:05:46:aa:c6:a4:87:fd:28:86:
                    1a:79:63:1d:5e:54:f4:c7:3b:43:86:74:95:22:42:
                    64:c9:d0:33:78:de:50:7d:42:97:08:b3:c5:78:05:
                    74:e4:a2:38:49:2d:2c:4d:e7:60:8a:5a:6a:fa:ad:
                    f2:43:12:21:30:1c:53:84:be:53:99:be:96:1d:ed:
                    2d:fd:bc:b9:a7:f0:7d:7d:b9:c5:0d:d1:2e:b5:58:
                    19:e5:9d
                Exponent: 65537 (0x10001)
        X509v3 extensions:
            X509v3 Subject Key Identifier: 
                D8:01:CD:AD:23:F5:43:5F:A4:60:F0:E6:89:10:E4:AE:42:7E:E7:3E
            X509v3 Authority Key Identifier: 
                keyid:03:D4:EF:8E:00:F2:B5:6A:26:85:70:6A:67:45:8E:DB:5D:72:9E:B0
                DirName:/CN=CA1_sha256_4096_65537_v3_ca
                serial:A6:7F:BE:42:32:53:AE:16

            X509v3 Basic Constraints: critical
                CA:TRUE
            X509v3 Key Usage: 
                Certificate Sign
    Signature Algorithm: sha256WithRSAEncryption
         b6:05:f0:af:f1:08:44:cb:b1:ce:c5:71:04:72:cf:db:7d:5a:
         ee:48:3c:ab:0b:61:79:5c:a5:a2:1d:17:53:d0:95:df:6a:3a:
         db:5c:db:94:f9:53:b3:b6:94:da:b5:b9:4e:f7:e6:d4:64:82:
         cb:c0:52:b7:7f:a9:d2:bf:23:7c:6d:95:a0:fc:57:ad:be:7c:
         10:6f:13:3a:89:a9:89:c6:bd:bd:0c:7c:37:b9:0a:a3:dd:67:
         cd:bf:9d:12:41:3e:9c:0a:19:0d:7a:d9:02:11:c2:6f:98:2f:
         92:b1:02:af:22:04:f1:d7:93:12:38:b2:32:be:bb:1f:0a:d9:
         03:fd:d2:39:e2:0a:42:43:b9:ce:c4:44:89:ba:69:1a:8b:44:
         47:fc:85:e2:ee:9d:00:a6:0b:14:cb:a0:93:d4:82:1c:b3:75:
         53:c2:b5:24:8e:c0:3c:ea:a0:1b:75:5a:d7:d3:0f:eb:d8:8c:
         74:6f:21:1e:90:5b:b8:f5:77:42:74:8a:4b:b6:75:6b:01:ff:
         0c:d2:ad:ff:2d:30:22:98:8f:87:70:e9:58:00:f2:77:a2:c9:
         af:df:ac:9a:1e:10:0a:78:62:88:66:21:2e:3b:2d:24:90:5c:
         f4:64:4f:cd:3d:3c:7e:1a:b6:b3:e1:69:54:21:6d:d9:de:02:
         84:3d:fd:74:08:2a:d6:84:37:94:fa:7c:d1:e8:11:fa:bf:5c:
         33:3a:24:4e:45:53:06:a3:0b:1f:68:cc:04:a2:e6:8e:3d:cd:
         48:65:f1:7e:65:b3:e8:63:87:33:cf:0e:f4:21:8e:c4:cc:86:
         68:19:33:8b:bb:c9:91:24:3e:02:3e:f0:e0:fe:e8:e7:fb:40:
         f0:2f:9c:e9:b1:dc:80:c2:d7:a5:4a:a9:5e:bd:3f:f6:16:f9:
         58:c7:38:e1:40:e2:9d:fa:1d:8f:d7:04:0f:af:da:99:17:8a:
         c1:0b:31:ca:d1:5c:0b:c8:a5:ab:db:20:b0:5c:30:ef:c2:a1:
         c4:f4:75:8a:3e:66:e1:f6:a2:15:f8:78:3f:b5:ef:95:0d:4e:
         cc:fd:90:40:27:e9:e1:cb:7e:35:ce:96:f3:3b:b2:24:18:b6:
         7b:35:73:bf:25:de:1e:99:a5:e4:93:ea:cb:35:ff:d1:1a:9d:
         46:e6:f5:cf:59:c9:10:1d:5a:30:da:e3:f4:02:b2:2c:ae:78:
         64:af:fe:ff:91:e8:3d:1d:bc:9b:b8:9f:d9:a8:18:bc:40:ef:
         b7:80:7e:6c:0c:f4:50:a6:49:e0:e1:11:81:69:39:bd:f2:67:
         11:f5:8d:71:44:0d:4c:42:4d:49:16:36:4f:1c:ab:da:c9:bc:
         38:c4:86:07:b1:c2:a4:08
-----BEGIN CERTIFICATE-----
MIIFZDCCA0ygAwIBAgIEEAAAAzANBgkqhkiG9w0BAQsFADAmMSQwIgYDVQQDFBtD
QTFfc2hhMjU2XzQwOTZfNjU1MzdfdjNfY2EwHhcNMTgwMjIxMTQyNDQzWhcNMjgw
MjE5MTQyNDQzWjAnMSUwIwYDVQQDDBxTUksyX3NoYTI1Nl80MDk2XzY1NTM3X3Yz
X2NhMIICIjANBgkqhkiG9w0BAQEFAAOCAg8AMIICCgKCAgEAx41U3obgHz2AsxTu
kcxGLLsYRiRcXM5drgX1n3g+RFS/JxR4NMuzXamQIFRDBkESXdnOVoP6qe+zWwru
ShEPbYfdk9lEu//8+t3fVLp/5Z8RsOk8vtuyfRnzkTsg978YW4G9O5tHoRTdYXuN
CMc5QIHlKSaHnsQsWZ2LrYVanPBzf9cm5CXabNSoIbjoUudb589N2AD6OE5danPB
N13FFwBOdYvXs+iYKQ0bL8yoEexkw4uxbPsHd2SbZiX5Nt48792YODrFsaDEui0t
UVCnmqtsaPagYEEQAgR4CqSOyvHsoAu7V7cKSkAJdYQxAILs7gyFIppl5TSUKqX6
yBDCMl6DkYuG93Pb96n5YVIFU4B1C7DMC8tkYauO8R2/2wP9pClAtVFA9pNkWUlN
WHiPYearqR4r4+TMB3q4D+RMLOMF4Pjz7qgNnJ1T82cMNnmxb/ov1h2Ub8JvbJwv
yuGK+MsICO5Xvk66alDbv2YKvZkYt31nYCgNBDRuKm6ZQxfhQgmnafa91aVFtNz8
He/arC9luXvUAwXg9JvKcn/uvCdlu7+5XAzIKpcFRqrGpIf9KIYaeWMdXlT0xztD
hnSVIkJkydAzeN5QfUKXCLPFeAV05KI4SS0sTedgilpq+q3yQxIhMBxThL5Tmb6W
He0t/by5p/B9fbnFDdEutVgZ5Z0CAwEAAaOBmDCBlTAdBgNVHQ4EFgQU2AHNrSP1
Q1+kYPDmiRDkrkJ+5z4wVgYDVR0jBE8wTYAUA9TvjgDytWomhXBqZ0WO211ynrCh
KqQoMCYxJDAiBgNVBAMUG0NBMV9zaGEyNTZfNDA5Nl82NTUzN192M19jYYIJAKZ/
vkIyU64WMA8GA1UdEwEB/wQFMAMBAf8wCwYDVR0PBAQDAgIEMA0GCSqGSIb3DQEB
CwUAA4ICAQC2BfCv8QhEy7HOxXEEcs/bfVruSDyrC2F5XKWiHRdT0JXfajrbXNuU
+VOztpTatblO9+bUZILLwFK3f6nSvyN8bZWg/FetvnwQbxM6iamJxr29DHw3uQqj
3WfNv50SQT6cChkNetkCEcJvmC+SsQKvIgTx15MSOLIyvrsfCtkD/dI54gpCQ7nO
xESJumkai0RH/IXi7p0ApgsUy6CT1IIcs3VTwrUkjsA86qAbdVrX0w/r2Ix0byEe
kFu49XdCdIpLtnVrAf8M0q3/LTAimI+HcOlYAPJ3osmv36yaHhAKeGKIZiEuOy0k
kFz0ZE/NPTx+Graz4WlUIW3Z3gKEPf10CCrWhDeU+nzR6BH6v1wzOiRORVMGowsf
aMwEouaOPc1IZfF+ZbPoY4czzw70IY7EzIZoGTOLu8mRJD4CPvDg/ujn+0DwL5zp
sdyAwtelSqlevT/2FvlYxzjhQOKd+h2P1wQPr9qZF4rBCzHK0VwLyKWr2yCwXDDv
wqHE9HWKPmbh9qIV+Hg/te+VDU7M/ZBAJ+nhy341zpbzO7IkGLZ7NXO/Jd4emaXk
k+rLNf/RGp1G5vXPWckQHVow2uP0ArIsrnhkr/7/keg9HbybuJ/ZqBi8QO+3gH5s
DPRQpkng4RGBaTm98mcR9Y1xRA1MQk1JFjZPHKvaybw4xIYHscKkCA==
-----END CERTIFICATE-----
