Certificate:
    Data:
        Version: 3 (0x2)
        Serial Number: 268435476 (0x10000014)
    Signature Algorithm: sha256WithRSAEncryption
        Issuer: CN=SRK3_sha256_2048_65537_v3_ca
        Validity
            Not Before: Mar  1 15:26:21 2018 GMT
            Not After : Feb 27 15:26:21 2028 GMT
        Subject: CN=IMG3_1_sha256_2048_65537_v3_usr
        Subject Public Key Info:
            Public Key Algorithm: rsaEncryption
                Public-Key: (2048 bit)
                Modulus:
                    00:ed:e3:dc:f8:af:5e:90:c0:92:4a:f7:e4:12:fe:
                    c1:7e:aa:e4:bc:57:8c:fe:7b:a3:3c:3f:73:54:cc:
                    28:8b:06:44:67:36:b9:98:2f:b5:bd:74:17:73:0d:
                    a5:0f:5a:60:34:b7:54:5d:df:2f:96:e2:e1:a6:b4:
                    a8:d7:fc:31:f1:6f:f1:95:b2:8c:8b:4c:bf:1f:c2:
                    6c:74:0f:1d:97:73:67:05:d7:09:ea:08:1c:2a:22:
                    95:66:af:aa:4c:63:fe:19:13:12:ff:d5:a8:90:64:
                    09:fe:8e:24:23:7a:68:cf:7b:75:24:bc:2a:6e:c5:
                    27:1a:47:90:e8:d9:8d:72:fc:29:a2:4c:58:a7:90:
                    08:de:33:a5:c3:12:d7:1e:42:f5:4e:a9:4c:3b:ce:
                    2c:c6:1e:29:68:d1:01:69:c2:87:49:3d:9c:97:98:
                    11:f2:56:cc:db:ea:c2:64:e2:61:74:0b:90:1b:c2:
                    d3:7f:16:34:31:34:b2:e2:27:9a:b9:6b:df:f5:05:
                    99:e7:d2:29:4e:cb:a5:83:a5:44:cb:c1:49:5b:95:
                    7b:f7:e8:aa:1e:4c:ac:eb:d9:f2:7d:f6:a4:e0:9e:
                    68:49:9a:eb:fb:23:00:52:79:e2:dd:1b:91:1b:61:
                    07:35:02:4a:80:8a:be:74:0a:a1:4c:bb:c7:81:4a:
                    a3:85
                Exponent: 65537 (0x10001)
        X509v3 extensions:
            X509v3 Basic Constraints: 
                CA:FALSE
            Netscape Comment: 
                OpenSSL Generated Certificate
            X509v3 Subject Key Identifier: 
                8E:1C:79:A1:BC:3C:D4:EA:30:62:55:2C:0E:B2:6C:8D:54:BD:10:EC
            X509v3 Authority Key Identifier: 
                keyid:30:70:75:71:C6:9B:4F:A6:0E:F8:A2:20:56:BE:E8:2C:02:D6:AE:06

    Signature Algorithm: sha256WithRSAEncryption
         9c:6b:2d:6f:2a:4b:d7:40:61:96:30:ac:af:d3:84:82:b5:d8:
         c9:1d:8b:5f:ef:69:f6:b3:e4:f5:4d:f5:1e:2c:c0:20:04:fd:
         94:ac:f2:bc:0f:63:2a:e0:6b:75:7e:fc:f2:e3:37:db:d1:2c:
         d8:ab:a5:24:30:1b:5a:48:74:1e:16:35:3d:97:6a:8e:79:cc:
         ba:4e:32:3e:b3:28:78:ef:45:59:fd:12:e0:be:5b:9c:33:24:
         d4:fa:01:19:25:75:20:c8:e4:48:2d:dc:5a:05:84:71:89:b3:
         bf:d2:8b:c1:68:06:78:17:0f:7b:3f:93:5e:a3:da:d8:60:65:
         64:45:9a:e6:e3:27:be:da:6b:ff:39:e1:d6:50:b4:5d:bf:f5:
         01:30:ca:07:d5:ac:ee:d4:ab:10:a5:29:ee:0a:fa:00:d0:c1:
         e7:d8:64:b6:43:87:de:cf:fe:04:aa:e0:27:ca:4b:03:a1:fd:
         c7:08:a6:4d:86:59:b1:43:ad:16:ac:eb:a3:9e:42:98:98:25:
         a4:89:c4:ba:8e:2b:fb:fe:05:40:f5:d9:10:74:19:e0:9b:40:
         0f:1b:64:08:66:6b:be:8f:f3:c6:6c:6b:e9:d1:09:7b:c2:7c:
         4b:ff:75:09:3d:80:7e:14:58:83:06:d8:64:97:73:c9:3c:48:
         57:e1:19:bf
-----BEGIN CERTIFICATE-----
MIIDSjCCAjKgAwIBAgIEEAAAFDANBgkqhkiG9w0BAQsFADAnMSUwIwYDVQQDDBxT
UkszX3NoYTI1Nl8yMDQ4XzY1NTM3X3YzX2NhMB4XDTE4MDMwMTE1MjYyMVoXDTI4
MDIyNzE1MjYyMVowKjEoMCYGA1UEAwwfSU1HM18xX3NoYTI1Nl8yMDQ4XzY1NTM3
X3YzX3VzcjCCASIwDQYJKoZIhvcNAQEBBQADggEPADCCAQoCggEBAO3j3PivXpDA
kkr35BL+wX6q5LxXjP57ozw/c1TMKIsGRGc2uZgvtb10F3MNpQ9aYDS3VF3fL5bi
4aa0qNf8MfFv8ZWyjItMvx/CbHQPHZdzZwXXCeoIHCoilWavqkxj/hkTEv/VqJBk
Cf6OJCN6aM97dSS8Km7FJxpHkOjZjXL8KaJMWKeQCN4zpcMS1x5C9U6pTDvOLMYe
KWjRAWnCh0k9nJeYEfJWzNvqwmTiYXQLkBvC038WNDE0suInmrlr3/UFmefSKU7L
pYOlRMvBSVuVe/foqh5MrOvZ8n32pOCeaEma6/sjAFJ54t0bkRthBzUCSoCKvnQK
oUy7x4FKo4UCAwEAAaN7MHkwCQYDVR0TBAIwADAsBglghkgBhvhCAQ0EHxYdT3Bl
blNTTCBHZW5lcmF0ZWQgQ2VydGlmaWNhdGUwHQYDVR0OBBYEFI4ceaG8PNTqMGJV
LA6ybI1UvRDsMB8GA1UdIwQYMBaAFDBwdXHGm0+mDviiIFa+6CwC1q4GMA0GCSqG
SIb3DQEBCwUAA4IBAQCcay1vKkvXQGGWMKyv04SCtdjJHYtf72n2s+T1TfUeLMAg
BP2UrPK8D2Mq4Gt1fvzy4zfb0SzYq6UkMBtaSHQeFjU9l2qOecy6TjI+syh470VZ
/RLgvlucMyTU+gEZJXUgyORILdxaBYRxibO/0ovBaAZ4Fw97P5Neo9rYYGVkRZrm
4ye+2mv/OeHWULRdv/UBMMoH1azu1KsQpSnuCvoA0MHn2GS2Q4fez/4EquAnyksD
of3HCKZNhlmxQ60WrOujnkKYmCWkicS6jiv7/gVA9dkQdBngm0APG2QIZmu+j/PG
bGvp0Ql7wnxL/3UJPYB+FFiDBthkl3PJPEhX4Rm/
-----END CERTIFICATE-----
