Certificate:
    Data:
        Version: 3 (0x2)
        Serial Number: 268435481 (0x10000019)
    Signature Algorithm: sha256WithRSAEncryption
        Issuer: CN=SRK1_sha256_1024_65537_v3_ca
        Validity
            Not Before: Mar  7 14:25:10 2018 GMT
            Not After : Mar  4 14:25:10 2028 GMT
        Subject: CN=CSF1_1_sha256_1024_65537_v3_usr
        Subject Public Key Info:
            Public Key Algorithm: rsaEncryption
                Public-Key: (1024 bit)
                Modulus:
                    00:cf:4a:fd:dc:47:ca:12:d8:97:77:e4:40:2c:9c:
                    39:70:ba:61:d5:65:91:6c:6f:f4:e7:22:9a:f2:3c:
                    34:6d:49:6d:ba:71:48:e6:b7:79:20:e0:ac:80:90:
                    2e:84:fe:47:f9:a0:f5:8d:bb:94:10:cf:7c:31:d1:
                    a7:4c:49:47:72:15:38:9a:2e:50:26:19:a4:17:72:
                    f2:70:72:70:8d:71:9e:21:a5:00:cb:85:09:1b:67:
                    54:25:73:eb:c1:14:b2:e8:f0:b8:c1:4d:eb:05:97:
                    53:4a:88:ef:9a:c2:b1:cc:75:2c:e7:ee:ea:9c:17:
                    a7:19:dc:7d:67:c4:67:ef:1b
                Exponent: 65537 (0x10001)
        X509v3 extensions:
            X509v3 Basic Constraints: 
                CA:FALSE
            Netscape Comment: 
                OpenSSL Generated Certificate
            X509v3 Subject Key Identifier: 
                A2:51:5D:F9:A1:C4:C2:73:0D:3B:90:DF:B4:05:55:61:48:0B:A9:60
            X509v3 Authority Key Identifier: 
                keyid:A5:5E:E8:13:92:E2:43:53:60:B5:69:FC:C6:F3:32:D1:DF:00:3F:E5

    Signature Algorithm: sha256WithRSAEncryption
         63:9f:00:66:8f:ae:5d:fe:18:af:90:3b:a9:9c:83:e6:91:5c:
         1f:e4:b7:74:98:ec:78:33:e8:a2:b4:84:86:60:d3:f5:45:15:
         05:3b:13:63:cc:4e:79:74:dc:3b:6c:93:f7:b6:03:c9:78:33:
         c6:a8:17:1b:cc:8d:1a:58:72:38:5b:c9:8c:15:a0:b4:90:a0:
         09:49:aa:3c:e9:c8:b7:0e:df:95:28:1e:b8:4b:57:08:f9:15:
         e4:37:b7:c7:df:44:42:48:6a:c3:45:ee:61:77:b1:4e:60:05:
         23:23:2f:63:c1:3a:fc:9a:2f:9c:00:55:fb:c7:67:1f:02:47:
         66:eb
-----BEGIN CERTIFICATE-----
MIICRTCCAa6gAwIBAgIEEAAAGTANBgkqhkiG9w0BAQsFADAnMSUwIwYDVQQDDBxT
UksxX3NoYTI1Nl8xMDI0XzY1NTM3X3YzX2NhMB4XDTE4MDMwNzE0MjUxMFoXDTI4
MDMwNDE0MjUxMFowKjEoMCYGA1UEAwwfQ1NGMV8xX3NoYTI1Nl8xMDI0XzY1NTM3
X3YzX3VzcjCBnzANBgkqhkiG9w0BAQEFAAOBjQAwgYkCgYEAz0r93EfKEtiXd+RA
LJw5cLph1WWRbG/05yKa8jw0bUltunFI5rd5IOCsgJAuhP5H+aD1jbuUEM98MdGn
TElHchU4mi5QJhmkF3LycHJwjXGeIaUAy4UJG2dUJXPrwRSy6PC4wU3rBZdTSojv
msKxzHUs5+7qnBenGdx9Z8Rn7xsCAwEAAaN7MHkwCQYDVR0TBAIwADAsBglghkgB
hvhCAQ0EHxYdT3BlblNTTCBHZW5lcmF0ZWQgQ2VydGlmaWNhdGUwHQYDVR0OBBYE
FKJRXfmhxMJzDTuQ37QFVWFIC6lgMB8GA1UdIwQYMBaAFKVe6BOS4kNTYLVp/Mbz
MtHfAD/lMA0GCSqGSIb3DQEBCwUAA4GBAGOfAGaPrl3+GK+QO6mcg+aRXB/kt3SY
7Hgz6KK0hIZg0/VFFQU7E2PMTnl03Dtsk/e2A8l4M8aoFxvMjRpYcjhbyYwVoLSQ
oAlJqjzpyLcO35UoHrhLVwj5FeQ3t8ffREJIasNF7mF3sU5gBSMjL2PBOvyaL5wA
VfvHZx8CR2br
-----END CERTIFICATE-----
