Certificate:
    Data:
        Version: 3 (0x2)
        Serial Number: 268435489 (0x10000021)
    Signature Algorithm: sha256WithRSAEncryption
        Issuer: CN=CA1_sha256_1024_65537_v3_ca
        Validity
            Not Before: Mar  7 14:25:11 2018 GMT
            Not After : Mar  4 14:25:11 2028 GMT
        Subject: CN=SRK4_sha256_1024_65537_v3_ca
        Subject Public Key Info:
            Public Key Algorithm: rsaEncryption
                Public-Key: (1024 bit)
                Modulus:
                    00:a5:df:a1:c0:ff:fe:73:47:ab:5a:9b:47:f4:d8:
                    39:58:39:34:21:b8:d9:1b:6f:ca:e7:4f:a3:79:fa:
                    ca:02:85:67:82:48:ec:5b:41:bb:34:bc:db:e6:1a:
                    c6:bc:2f:e2:f1:c5:03:ad:44:4e:c8:cc:cc:6e:23:
                    35:58:1c:00:f8:45:ad:e5:54:d0:42:7f:7b:ab:af:
                    4a:9e:f0:3c:24:25:7a:92:00:79:3a:6a:a3:0f:d6:
                    4f:ed:cf:4f:b5:93:c6:96:69:8d:37:cb:91:4e:38:
                    cf:3b:6e:d1:5e:2f:7a:db:ce:f0:e1:a5:71:f4:61:
                    a8:38:2c:de:88:27:a8:9d:79
                Exponent: 65537 (0x10001)
        X509v3 extensions:
            X509v3 Subject Key Identifier: 
                5A:32:8B:72:75:21:6E:6A:81:6B:8D:8F:1A:46:F8:E8:EA:A7:E8:8D
            X509v3 Authority Key Identifier: 
                keyid:94:6A:86:56:18:97:62:01:3A:5A:7E:C3:E8:BB:BD:64:23:EC:E9:3F
                DirName:/CN=CA1_sha256_1024_65537_v3_ca
                serial:F0:B7:CA:EC:81:54:BB:A9

            X509v3 Basic Constraints: critical
                CA:TRUE
            X509v3 Key Usage: 
                Certificate Sign
    Signature Algorithm: sha256WithRSAEncryption
         1d:4f:05:5a:e9:7d:3a:2c:6c:7c:18:d8:15:1a:2f:cb:a9:41:
         5c:56:a5:13:a6:a7:79:db:e4:6b:c5:8a:40:64:ea:0b:42:90:
         91:d5:02:35:cf:6a:37:c6:19:48:42:e0:87:34:6d:b7:76:e3:
         9e:5f:ab:db:d3:23:e2:92:d3:8a:30:42:d3:44:17:24:01:86:
         10:5f:24:7f:d3:52:1c:da:ee:e2:47:48:1c:4c:fb:ea:3a:64:
         6e:f4:1e:c4:21:76:34:5d:21:ec:79:bd:c2:02:01:45:21:be:
         b3:ee:e2:41:14:27:be:a7:b8:11:fd:c5:9d:2c:73:b5:3b:cf:
         58:1a
-----BEGIN CERTIFICATE-----
MIICXzCCAcigAwIBAgIEEAAAITANBgkqhkiG9w0BAQsFADAmMSQwIgYDVQQDFBtD
QTFfc2hhMjU2XzEwMjRfNjU1MzdfdjNfY2EwHhcNMTgwMzA3MTQyNTExWhcNMjgw
MzA0MTQyNTExWjAnMSUwIwYDVQQDDBxTUks0X3NoYTI1Nl8xMDI0XzY1NTM3X3Yz
X2NhMIGfMA0GCSqGSIb3DQEBAQUAA4GNADCBiQKBgQCl36HA//5zR6tam0f02DlY
OTQhuNkbb8rnT6N5+soChWeCSOxbQbs0vNvmGsa8L+LxxQOtRE7IzMxuIzVYHAD4
Ra3lVNBCf3urr0qe8DwkJXqSAHk6aqMP1k/tz0+1k8aWaY03y5FOOM87btFeL3rb
zvDhpXH0Yag4LN6IJ6ideQIDAQABo4GYMIGVMB0GA1UdDgQWBBRaMotydSFuaoFr
jY8aRvjo6qfojTBWBgNVHSMETzBNgBSUaoZWGJdiATpafsPou71kI+zpP6EqpCgw
JjEkMCIGA1UEAxQbQ0ExX3NoYTI1Nl8xMDI0XzY1NTM3X3YzX2NhggkA8LfK7IFU
u6kwDwYDVR0TAQH/BAUwAwEB/zALBgNVHQ8EBAMCAgQwDQYJKoZIhvcNAQELBQAD
gYEAHU8FWul9OixsfBjYFRovy6lBXFalE6anedvka8WKQGTqC0KQkdUCNc9qN8YZ
SELghzRtt3bjnl+r29Mj4pLTijBC00QXJAGGEF8kf9NSHNru4kdIHEz76jpkbvQe
xCF2NF0h7Hm9wgIBRSG+s+7iQRQnvqe4Ef3FnSxztTvPWBo=
-----END CERTIFICATE-----
