Certificate:
    Data:
        Version: 3 (0x2)
        Serial Number: 268435480 (0x10000018)
    Signature Algorithm: sha256WithRSAEncryption
        Issuer: CN=CA1_sha256_1024_65537_v3_ca
        Validity
            Not Before: Mar  7 14:25:10 2018 GMT
            Not After : Mar  4 14:25:10 2028 GMT
        Subject: CN=SRK1_sha256_1024_65537_v3_ca
        Subject Public Key Info:
            Public Key Algorithm: rsaEncryption
                Public-Key: (1024 bit)
                Modulus:
                    00:ce:ae:fa:70:04:33:e0:8b:6a:83:71:28:c0:0e:
                    1e:5e:80:ca:ce:14:65:b6:1a:3f:e2:85:61:9d:92:
                    c4:00:ab:9d:a7:db:d5:e4:85:80:c2:28:14:90:0e:
                    d0:43:a3:b7:60:d4:fc:62:98:04:c7:71:ff:e9:54:
                    16:af:98:11:08:c7:4e:3a:c8:d1:40:ea:f9:01:a0:
                    d1:cb:5d:c9:aa:ad:9d:db:20:45:79:9e:89:c2:bf:
                    20:6f:45:94:e3:f1:4b:65:6f:48:09:43:1f:e1:01:
                    98:9e:d8:58:74:ea:64:3b:90:6a:8b:9a:d3:e2:f9:
                    c5:69:c6:e5:b4:8f:89:b5:b7
                Exponent: 65537 (0x10001)
        X509v3 extensions:
            X509v3 Subject Key Identifier: 
                A5:5E:E8:13:92:E2:43:53:60:B5:69:FC:C6:F3:32:D1:DF:00:3F:E5
            X509v3 Authority Key Identifier: 
                keyid:94:6A:86:56:18:97:62:01:3A:5A:7E:C3:E8:BB:BD:64:23:EC:E9:3F
                DirName:/CN=CA1_sha256_1024_65537_v3_ca
                serial:F0:B7:CA:EC:81:54:BB:A9

            X509v3 Basic Constraints: critical
                CA:TRUE
            X509v3 Key Usage: 
                Certificate Sign
    Signature Algorithm: sha256WithRSAEncryption
         5c:93:34:9c:26:f2:ec:7f:a7:e9:bf:5d:1d:ad:f8:32:c3:44:
         fc:0f:57:67:f8:47:64:d6:77:43:e5:bd:a9:72:f4:41:8b:62:
         40:72:29:b2:98:8b:c5:e5:48:a2:6d:53:63:0b:bf:e0:1f:7d:
         02:ea:0b:ca:27:b1:28:65:ac:b6:09:64:1a:37:97:1c:10:80:
         20:43:89:2e:79:25:32:f9:3b:35:d1:94:5d:ac:84:06:04:e5:
         39:ad:f6:65:e3:5b:ff:be:1b:31:4c:43:71:3a:9c:8d:0f:f9:
         3f:0c:42:0b:7a:f2:31:ba:25:87:f6:18:6c:50:8a:e3:5b:c2:
         83:c3
-----BEGIN CERTIFICATE-----
MIICXzCCAcigAwIBAgIEEAAAGDANBgkqhkiG9w0BAQsFADAmMSQwIgYDVQQDFBtD
QTFfc2hhMjU2XzEwMjRfNjU1MzdfdjNfY2EwHhcNMTgwMzA3MTQyNTEwWhcNMjgw
MzA0MTQyNTEwWjAnMSUwIwYDVQQDDBxTUksxX3NoYTI1Nl8xMDI0XzY1NTM3X3Yz
X2NhMIGfMA0GCSqGSIb3DQEBAQUAA4GNADCBiQKBgQDOrvpwBDPgi2qDcSjADh5e
gMrOFGW2Gj/ihWGdksQAq52n29XkhYDCKBSQDtBDo7dg1PximATHcf/pVBavmBEI
x046yNFA6vkBoNHLXcmqrZ3bIEV5nonCvyBvRZTj8Utlb0gJQx/hAZie2Fh06mQ7
kGqLmtPi+cVpxuW0j4m1twIDAQABo4GYMIGVMB0GA1UdDgQWBBSlXugTkuJDU2C1
afzG8zLR3wA/5TBWBgNVHSMETzBNgBSUaoZWGJdiATpafsPou71kI+zpP6EqpCgw
JjEkMCIGA1UEAxQbQ0ExX3NoYTI1Nl8xMDI0XzY1NTM3X3YzX2NhggkA8LfK7IFU
u6kwDwYDVR0TAQH/BAUwAwEB/zALBgNVHQ8EBAMCAgQwDQYJKoZIhvcNAQELBQAD
gYEAXJM0nCby7H+n6b9dHa34MsNE/A9XZ/hHZNZ3Q+W9qXL0QYtiQHIpspiLxeVI
om1TYwu/4B99AuoLyiexKGWstglkGjeXHBCAIEOJLnklMvk7NdGUXayEBgTlOa32
ZeNb/74bMUxDcTqcjQ/5PwxCC3ryMbolh/YYbFCK41vCg8M=
-----END CERTIFICATE-----
