Certificate:
    Data:
        Version: 3 (0x2)
        Serial Number: 268435471 (0x1000000f)
    Signature Algorithm: sha256WithRSAEncryption
        Issuer: CN=CA1_sha256_2048_65537_v3_ca
        Validity
            Not Before: Mar  1 15:26:20 2018 GMT
            Not After : Feb 27 15:26:20 2028 GMT
        Subject: CN=SRK2_sha256_2048_65537_v3_ca
        Subject Public Key Info:
            Public Key Algorithm: rsaEncryption
                Public-Key: (2048 bit)
                Modulus:
                    00:bc:0e:65:7b:4f:31:fe:76:80:fb:a0:72:2a:07:
                    28:3e:8d:22:80:59:bb:5d:29:8c:74:c1:d5:25:0b:
                    56:c6:86:99:cf:9c:1a:7b:89:0d:5a:d5:4a:74:59:
                    67:99:00:fa:1e:3c:35:28:df:78:da:f5:d3:c0:38:
                    4a:eb:b9:c9:c4:07:50:76:1c:78:ef:0a:2c:73:11:
                    7c:d3:0a:3e:fd:81:e0:74:7f:d5:2f:cc:15:0a:f7:
                    d2:c8:ec:b2:da:6d:b2:7e:4a:1f:e5:8c:1b:a8:cb:
                    65:80:dc:5e:e4:b7:9c:d1:a6:64:00:25:98:b6:a6:
                    17:dd:bc:21:35:f5:1c:4b:3e:c4:d5:f6:a6:02:c1:
                    8d:51:27:65:18:46:68:b5:85:0d:ef:da:54:df:05:
                    21:08:98:7c:e4:ce:23:6d:55:b2:7d:da:65:c9:4f:
                    5e:1a:8d:ab:3e:56:1e:8c:1d:e1:c5:08:44:6c:a9:
                    df:b3:3e:e6:19:91:2d:e6:29:15:eb:51:92:de:c1:
                    7c:37:a8:ee:f1:57:84:7f:be:5e:47:9a:c5:c8:0f:
                    9b:5d:01:e1:a8:7b:c1:c3:c4:5b:b3:4d:40:53:6e:
                    ba:be:76:4e:77:c4:38:0f:2e:3f:56:df:e6:52:f6:
                    54:2a:af:ad:ad:41:cc:c6:e4:28:83:30:98:c4:cf:
                    4f:2f
                Exponent: 65537 (0x10001)
        X509v3 extensions:
            X509v3 Subject Key Identifier: 
                CD:0D:57:89:B3:0F:8E:27:D7:80:C8:C6:66:E2:B0:3D:BF:0B:E6:58
            X509v3 Authority Key Identifier: 
                keyid:9F:2D:1A:CC:B2:E8:04:6C:CE:3A:CA:69:29:2F:35:E5:AB:08:08:EE
                DirName:/CN=CA1_sha256_2048_65537_v3_ca
                serial:CF:E0:8C:DB:9F:2F:21:BF

            X509v3 Basic Constraints: critical
                CA:TRUE
            X509v3 Key Usage: 
                Certificate Sign
    Signature Algorithm: sha256WithRSAEncryption
         53:30:b9:44:4a:fb:81:ea:c4:88:51:d0:fb:83:eb:73:65:05:
         c6:26:cc:a8:b2:c4:da:94:54:3b:aa:85:14:60:f5:c7:04:08:
         d7:29:95:69:0f:0b:1d:55:57:07:7c:ef:ad:1b:f3:3d:d8:79:
         82:a1:17:5b:cb:24:0e:d7:07:3a:ad:14:d0:0b:54:a0:d1:c5:
         6b:c2:e9:da:a4:e9:9a:37:ed:b1:72:f3:1d:cd:a1:73:2f:e9:
         8b:41:cc:43:30:af:43:70:13:1e:74:39:db:fb:47:a9:34:e0:
         91:1b:19:86:eb:21:02:15:44:ee:40:06:25:68:f1:00:16:23:
         05:ee:4a:c8:9b:24:82:2a:3a:82:d9:dd:ab:77:8f:6f:ff:7c:
         70:15:bf:ed:ef:9f:93:d9:b6:23:7a:b0:21:a1:fd:88:ef:c9:
         2f:46:e8:2d:67:fb:3e:7a:3f:35:f3:8c:2a:e6:e7:2f:b6:96:
         b9:86:50:1f:90:f3:9d:bd:93:ac:29:2b:83:66:d5:96:d4:19:
         df:62:94:49:70:ca:28:2f:7f:7f:2c:33:19:60:1e:95:d5:35:
         5a:d0:79:e2:a6:6e:6a:59:3d:00:63:62:1d:5d:e2:5e:0d:04:
         73:7a:25:8c:87:92:5b:f2:e2:31:15:89:9b:32:e8:e4:72:b0:
         67:d7:0a:97
-----BEGIN CERTIFICATE-----
MIIDZDCCAkygAwIBAgIEEAAADzANBgkqhkiG9w0BAQsFADAmMSQwIgYDVQQDFBtD
QTFfc2hhMjU2XzIwNDhfNjU1MzdfdjNfY2EwHhcNMTgwMzAxMTUyNjIwWhcNMjgw
MjI3MTUyNjIwWjAnMSUwIwYDVQQDDBxTUksyX3NoYTI1Nl8yMDQ4XzY1NTM3X3Yz
X2NhMIIBIjANBgkqhkiG9w0BAQEFAAOCAQ8AMIIBCgKCAQEAvA5le08x/naA+6By
KgcoPo0igFm7XSmMdMHVJQtWxoaZz5wae4kNWtVKdFlnmQD6Hjw1KN942vXTwDhK
67nJxAdQdhx47woscxF80wo+/YHgdH/VL8wVCvfSyOyy2m2yfkof5YwbqMtlgNxe
5Lec0aZkACWYtqYX3bwhNfUcSz7E1famAsGNUSdlGEZotYUN79pU3wUhCJh85M4j
bVWyfdplyU9eGo2rPlYejB3hxQhEbKnfsz7mGZEt5ikV61GS3sF8N6ju8VeEf75e
R5rFyA+bXQHhqHvBw8Rbs01AU266vnZOd8Q4Dy4/Vt/mUvZUKq+trUHMxuQogzCY
xM9PLwIDAQABo4GYMIGVMB0GA1UdDgQWBBTNDVeJsw+OJ9eAyMZm4rA9vwvmWDBW
BgNVHSMETzBNgBSfLRrMsugEbM46ymkpLzXlqwgI7qEqpCgwJjEkMCIGA1UEAxQb
Q0ExX3NoYTI1Nl8yMDQ4XzY1NTM3X3YzX2NhggkAz+CM258vIb8wDwYDVR0TAQH/
BAUwAwEB/zALBgNVHQ8EBAMCAgQwDQYJKoZIhvcNAQELBQADggEBAFMwuURK+4Hq
xIhR0PuD63NlBcYmzKiyxNqUVDuqhRRg9ccECNcplWkPCx1VVwd8760b8z3YeYKh
F1vLJA7XBzqtFNALVKDRxWvC6dqk6Zo37bFy8x3NoXMv6YtBzEMwr0NwEx50Odv7
R6k04JEbGYbrIQIVRO5ABiVo8QAWIwXuSsibJIIqOoLZ3at3j2//fHAVv+3vn5PZ
tiN6sCGh/YjvyS9G6C1n+z56PzXzjCrm5y+2lrmGUB+Q8529k6wpK4Nm1ZbUGd9i
lElwyigvf38sMxlgHpXVNVrQeeKmbmpZPQBjYh1d4l4NBHN6JYyHklvy4jEViZsy
6ORysGfXCpc=
-----END CERTIFICATE-----
