Certificate:
    Data:
        Version: 3 (0x2)
        Serial Number: 268435488 (0x10000020)
    Signature Algorithm: sha256WithRSAEncryption
        Issuer: CN=SRK3_sha256_1024_65537_v3_ca
        Validity
            Not Before: Mar  7 14:25:10 2018 GMT
            Not After : Mar  4 14:25:10 2028 GMT
        Subject: CN=IMG3_1_sha256_1024_65537_v3_usr
        Subject Public Key Info:
            Public Key Algorithm: rsaEncryption
                Public-Key: (1024 bit)
                Modulus:
                    00:e1:63:96:f3:d7:44:95:c8:48:a5:5f:f7:15:be:
                    b5:8a:77:00:9f:52:6a:cd:12:8c:cf:b6:a7:bd:d2:
                    c9:fb:d2:13:e8:b4:d1:e8:c2:d1:b1:3d:a3:b7:7b:
                    55:bf:ab:2e:df:8e:91:72:74:97:24:b8:30:e3:2d:
                    15:a6:ee:65:41:3c:8b:a1:86:a3:bc:85:7f:f5:bf:
                    79:bb:0a:c3:18:7d:b4:38:1d:01:dc:51:3f:35:8d:
                    e2:6a:1b:d3:c8:38:54:f1:3a:01:a8:8c:a3:37:86:
                    b4:27:4d:2a:11:f0:e2:4a:af:ec:64:2a:39:64:e0:
                    aa:59:3a:83:6c:c9:14:62:cf
                Exponent: 65537 (0x10001)
        X509v3 extensions:
            X509v3 Basic Constraints: 
                CA:FALSE
            Netscape Comment: 
                OpenSSL Generated Certificate
            X509v3 Subject Key Identifier: 
                21:3B:11:B3:AF:5F:AB:FB:3A:64:30:11:CF:78:94:07:4B:4D:8A:15
            X509v3 Authority Key Identifier: 
                keyid:7D:57:EB:0C:27:C7:C5:FF:0D:A0:7C:3D:32:59:DB:80:8F:01:4F:9D

    Signature Algorithm: sha256WithRSAEncryption
         34:91:54:65:6f:33:39:2a:37:b9:b2:1f:8f:98:8e:2d:ad:22:
         65:2e:9e:8d:66:43:13:04:44:8c:95:2a:de:d5:56:2a:3c:19:
         27:da:ab:e1:dd:1e:29:f1:38:2c:93:d9:e3:e3:72:15:a2:c5:
         64:d2:9d:6f:2c:de:d1:b8:d0:b7:4b:e9:b2:07:fb:fd:08:d5:
         39:91:24:fc:18:c4:40:8f:98:fc:6b:71:98:4d:78:42:ec:4f:
         d3:ac:64:0b:b8:cd:88:8a:fe:20:26:64:c7:d9:f5:57:4b:ba:
         20:a0:53:ba:5c:12:29:1e:4f:0b:fd:b3:9e:7b:6d:c8:ff:63:
         18:53
-----BEGIN CERTIFICATE-----
MIICRTCCAa6gAwIBAgIEEAAAIDANBgkqhkiG9w0BAQsFADAnMSUwIwYDVQQDDBxT
UkszX3NoYTI1Nl8xMDI0XzY1NTM3X3YzX2NhMB4XDTE4MDMwNzE0MjUxMFoXDTI4
MDMwNDE0MjUxMFowKjEoMCYGA1UEAwwfSU1HM18xX3NoYTI1Nl8xMDI0XzY1NTM3
X3YzX3VzcjCBnzANBgkqhkiG9w0BAQEFAAOBjQAwgYkCgYEA4WOW89dElchIpV/3
Fb61incAn1JqzRKMz7anvdLJ+9IT6LTR6MLRsT2jt3tVv6su346RcnSXJLgw4y0V
pu5lQTyLoYajvIV/9b95uwrDGH20OB0B3FE/NY3iahvTyDhU8ToBqIyjN4a0J00q
EfDiSq/sZCo5ZOCqWTqDbMkUYs8CAwEAAaN7MHkwCQYDVR0TBAIwADAsBglghkgB
hvhCAQ0EHxYdT3BlblNTTCBHZW5lcmF0ZWQgQ2VydGlmaWNhdGUwHQYDVR0OBBYE
FCE7EbOvX6v7OmQwEc94lAdLTYoVMB8GA1UdIwQYMBaAFH1X6wwnx8X/DaB8PTJZ
24CPAU+dMA0GCSqGSIb3DQEBCwUAA4GBADSRVGVvMzkqN7myH4+Yji2tImUuno1m
QxMERIyVKt7VVio8GSfaq+HdHinxOCyT2ePjchWixWTSnW8s3tG40LdL6bIH+/0I
1TmRJPwYxECPmPxrcZhNeELsT9OsZAu4zYiK/iAmZMfZ9VdLuiCgU7pcEikeTwv9
s557bcj/YxhT
-----END CERTIFICATE-----
