Certificate:
    Data:
        Version: 3 (0x2)
        Serial Number: 268435456 (0x10000000)
    Signature Algorithm: sha256WithRSAEncryption
        Issuer: CN=CA1_sha256_4096_65537_v3_ca
        Validity
            Not Before: Feb 21 14:24:42 2018 GMT
            Not After : Feb 19 14:24:42 2028 GMT
        Subject: CN=SRK1_sha256_4096_65537_v3_ca
        Subject Public Key Info:
            Public Key Algorithm: rsaEncryption
                Public-Key: (4096 bit)
                Modulus:
                    00:be:43:be:50:5a:68:d2:6d:08:68:cb:94:60:0c:
                    aa:36:b8:c8:9b:4e:8e:e3:83:eb:9a:53:df:86:05:
                    3f:e3:2c:1a:3d:78:e0:71:9f:1d:20:d3:f7:1e:55:
                    88:b0:61:16:79:32:7a:03:46:80:0c:ab:a4:a5:20:
                    dd:22:0f:69:3c:07:d5:96:dd:e6:e9:a4:6b:09:05:
                    d8:38:58:08:b5:df:84:7a:98:61:af:dc:55:41:01:
                    50:25:99:18:f9:86:50:17:7b:cd:48:92:a8:1a:e9:
                    e4:5d:98:de:f8:1e:3a:ca:bd:26:00:a2:ab:3f:52:
                    bb:b2:cb:d9:99:3c:ba:61:3f:e9:b6:cb:e4:ec:08:
                    e9:5c:d2:8a:6c:7e:27:40:1f:c8:f8:9b:94:01:31:
                    65:24:92:ff:f2:8e:b8:81:23:50:5c:31:e2:24:63:
                    aa:33:7e:f2:71:b0:92:c0:37:11:dc:e1:b8:33:4b:
                    4b:f8:15:17:e1:bc:4f:b6:79:43:71:ba:75:86:24:
                    a7:25:da:56:f4:ef:dc:11:72:ec:81:55:39:33:83:
                    4e:1d:28:b2:2c:c0:72:c3:13:16:c9:bc:73:07:2d:
                    ec:44:61:3d:ec:e0:5e:71:50:00:7b:bc:d5:cf:d5:
                    cc:2e:d6:a7:8c:aa:9f:1d:bd:c4:3d:c1:12:ba:44:
                    d0:49:64:38:94:e6:a9:86:16:15:8f:e5:07:00:0b:
                    77:4b:06:3c:a6:a0:ab:57:3c:01:7b:8f:52:a1:f4:
                    36:ac:36:de:69:ce:16:23:4e:24:84:29:26:a8:7f:
                    b7:86:46:5d:e1:51:02:54:94:99:49:10:97:d3:66:
                    8d:28:59:e5:e5:23:42:55:17:fb:a9:7a:47:54:18:
                    71:54:81:ff:10:de:38:21:b2:b6:eb:a3:b0:92:ab:
                    8a:2f:e5:5c:de:d3:40:e6:6e:43:36:48:d4:0d:22:
                    ed:6d:4a:f2:29:25:db:70:da:b8:90:84:31:45:21:
                    43:01:f8:77:81:f8:48:8e:29:61:63:03:05:8c:ac:
                    f3:63:88:db:90:de:76:ee:20:eb:1b:83:dc:c3:33:
                    bf:6f:ad:25:0d:16:35:19:45:1b:5c:77:78:bd:e1:
                    d2:30:64:23:33:93:7d:96:c5:28:bf:3e:1c:0c:e2:
                    5f:60:c4:2b:aa:85:a1:d4:97:6a:04:40:e4:40:51:
                    c8:2f:e3:b1:fe:fe:df:c1:b5:8c:5e:ac:7b:42:4d:
                    a2:d2:84:7f:6f:d4:f2:3b:a2:b7:3e:35:3c:80:da:
                    e5:93:83:f6:dc:a8:37:9b:34:d6:df:53:09:12:d8:
                    97:37:70:bf:cb:e3:61:4b:0d:7a:7e:b1:38:a0:b4:
                    9b:c3:d3
                Exponent: 65537 (0x10001)
        X509v3 extensions:
            X509v3 Subject Key Identifier: 
                8D:86:5C:54:6E:93:0B:C1:54:83:74:17:CC:F3:68:17:84:8B:D2:CF
            X509v3 Authority Key Identifier: 
                keyid:03:D4:EF:8E:00:F2:B5:6A:26:85:70:6A:67:45:8E:DB:5D:72:9E:B0
                DirName:/CN=CA1_sha256_4096_65537_v3_ca
                serial:A6:7F:BE:42:32:53:AE:16

            X509v3 Basic Constraints: critical
                CA:TRUE
            X509v3 Key Usage: 
                Certificate Sign
    Signature Algorithm: sha256WithRSAEncryption
         a5:04:cc:34:ba:52:b0:8b:54:05:07:a2:c6:25:a4:2e:cc:95:
         f8:dc:e1:aa:cf:bb:48:ab:45:2e:31:73:34:03:a9:de:3c:fb:
         92:08:d9:c4:6b:1b:11:16:d4:9d:11:16:b6:92:02:38:1a:dc:
         0d:3a:a1:26:65:c3:7b:48:38:8e:fe:62:7f:b3:20:3f:af:a1:
         b1:8c:33:d6:65:e1:6f:c5:25:7e:f7:ce:b6:97:d8:b0:64:40:
         54:94:18:b6:e1:1e:74:f9:6e:7e:81:e7:7e:5b:56:d2:03:c9:
         ce:8c:09:35:f6:85:64:4f:45:b9:fa:99:06:87:cb:33:56:5c:
         05:ce:53:46:61:eb:c2:89:1c:df:32:3d:bb:34:34:4f:8b:09:
         23:5b:81:d9:fd:d2:87:da:b6:7d:d9:d9:a9:b2:db:e5:d9:57:
         9c:77:e5:5a:11:eb:68:22:14:94:38:4a:1b:b9:1c:df:3d:43:
         dc:63:a1:d0:bc:2a:ac:22:b5:b7:f7:bc:cb:ca:6e:0a:af:55:
         47:34:38:e7:80:1c:cd:8d:36:76:17:97:ba:e2:26:2c:e9:5d:
         04:81:b5:50:4e:55:1b:0f:c3:4f:0f:04:99:24:0c:6d:06:4f:
         d5:f1:94:41:65:ee:f6:97:fd:1a:64:bf:49:df:3e:56:6b:31:
         13:d8:a0:f5:67:20:49:02:e4:71:87:78:42:a2:cc:bc:45:70:
         05:fe:23:a4:d7:41:13:13:a6:12:0a:ae:cd:8e:86:a7:b9:94:
         39:b0:70:3f:a1:9c:1e:72:c3:ca:4e:9a:a5:db:9e:0c:c2:60:
         4e:f3:b3:e5:0f:a4:10:9d:7c:74:e9:83:0e:e8:dc:78:a9:e3:
         f1:73:79:04:12:b9:4a:39:1d:67:8d:20:2d:27:df:fc:5b:48:
         7d:49:88:40:58:32:f4:3e:10:d8:1b:59:ef:5d:56:6a:09:a2:
         29:ef:1a:79:e4:a6:a5:8e:fe:e2:3b:9b:8d:0c:b7:66:4b:c4:
         6d:4f:fb:4c:37:d7:62:c2:5d:c4:ae:50:92:6c:c8:13:db:7d:
         62:67:18:fe:00:c3:e2:cb:bf:d2:50:1e:93:54:8a:0e:1e:bd:
         f5:91:4f:11:d1:d7:60:e7:33:9d:c7:0f:14:98:9d:f4:41:e1:
         c5:d7:e3:26:73:48:d3:3d:17:cb:bd:18:04:6d:12:35:83:2c:
         7b:47:fa:42:8b:b5:cd:f7:1e:0c:ef:53:96:c6:48:1c:10:0d:
         e5:1f:7b:36:c3:1d:3d:cd:67:14:1c:00:a2:79:a1:09:bc:95:
         90:71:db:ca:c2:35:e2:9c:8e:2b:51:75:9a:a8:a5:0c:b8:53:
         c4:91:92:2b:b5:7b:c8:5e
-----BEGIN CERTIFICATE-----
MIIFZDCCA0ygAwIBAgIEEAAAADANBgkqhkiG9w0BAQsFADAmMSQwIgYDVQQDFBtD
QTFfc2hhMjU2XzQwOTZfNjU1MzdfdjNfY2EwHhcNMTgwMjIxMTQyNDQyWhcNMjgw
MjE5MTQyNDQyWjAnMSUwIwYDVQQDDBxTUksxX3NoYTI1Nl80MDk2XzY1NTM3X3Yz
X2NhMIICIjANBgkqhkiG9w0BAQEFAAOCAg8AMIICCgKCAgEAvkO+UFpo0m0IaMuU
YAyqNrjIm06O44PrmlPfhgU/4ywaPXjgcZ8dINP3HlWIsGEWeTJ6A0aADKukpSDd
Ig9pPAfVlt3m6aRrCQXYOFgItd+Eephhr9xVQQFQJZkY+YZQF3vNSJKoGunkXZje
+B46yr0mAKKrP1K7ssvZmTy6YT/ptsvk7AjpXNKKbH4nQB/I+JuUATFlJJL/8o64
gSNQXDHiJGOqM37ycbCSwDcR3OG4M0tL+BUX4bxPtnlDcbp1hiSnJdpW9O/cEXLs
gVU5M4NOHSiyLMBywxMWybxzBy3sRGE97OBecVAAe7zVz9XMLtanjKqfHb3EPcES
ukTQSWQ4lOaphhYVj+UHAAt3SwY8pqCrVzwBe49SofQ2rDbeac4WI04khCkmqH+3
hkZd4VECVJSZSRCX02aNKFnl5SNCVRf7qXpHVBhxVIH/EN44IbK266OwkquKL+Vc
3tNA5m5DNkjUDSLtbUryKSXbcNq4kIQxRSFDAfh3gfhIjilhYwMFjKzzY4jbkN52
7iDrG4PcwzO/b60lDRY1GUUbXHd4veHSMGQjM5N9lsUovz4cDOJfYMQrqoWh1Jdq
BEDkQFHIL+Ox/v7fwbWMXqx7Qk2i0oR/b9TyO6K3PjU8gNrlk4P23Kg3mzTW31MJ
EtiXN3C/y+NhSw16frE4oLSbw9MCAwEAAaOBmDCBlTAdBgNVHQ4EFgQUjYZcVG6T
C8FUg3QXzPNoF4SL0s8wVgYDVR0jBE8wTYAUA9TvjgDytWomhXBqZ0WO211ynrCh
KqQoMCYxJDAiBgNVBAMUG0NBMV9zaGEyNTZfNDA5Nl82NTUzN192M19jYYIJAKZ/
vkIyU64WMA8GA1UdEwEB/wQFMAMBAf8wCwYDVR0PBAQDAgIEMA0GCSqGSIb3DQEB
CwUAA4ICAQClBMw0ulKwi1QFB6LGJaQuzJX43OGqz7tIq0UuMXM0A6nePPuSCNnE
axsRFtSdERa2kgI4GtwNOqEmZcN7SDiO/mJ/syA/r6GxjDPWZeFvxSV+9862l9iw
ZEBUlBi24R50+W5+ged+W1bSA8nOjAk19oVkT0W5+pkGh8szVlwFzlNGYevCiRzf
Mj27NDRPiwkjW4HZ/dKH2rZ92dmpstvl2Vecd+VaEetoIhSUOEobuRzfPUPcY6HQ
vCqsIrW397zLym4Kr1VHNDjngBzNjTZ2F5e64iYs6V0EgbVQTlUbD8NPDwSZJAxt
Bk/V8ZRBZe72l/0aZL9J3z5WazET2KD1ZyBJAuRxh3hCosy8RXAF/iOk10ETE6YS
Cq7NjoanuZQ5sHA/oZwecsPKTpql254MwmBO87PlD6QQnXx06YMO6Nx4qePxc3kE
ErlKOR1njSAtJ9/8W0h9SYhAWDL0PhDYG1nvXVZqCaIp7xp55Kaljv7iO5uNDLdm
S8RtT/tMN9diwl3ErlCSbMgT231iZxj+AMPiy7/SUB6TVIoOHr31kU8R0ddg5zOd
xw8UmJ30QeHF1+Mmc0jTPRfLvRgEbRI1gyx7R/pCi7XN9x4M71OWxkgcEA3lH3s2
wx09zWcUHACieaEJvJWQcdvKwjXinI4rUXWaqKUMuFPEkZIrtXvIXg==
-----END CERTIFICATE-----
