Certificate:
    Data:
        Version: 3 (0x2)
        Serial Number: 268435482 (0x1000001a)
    Signature Algorithm: sha256WithRSAEncryption
        Issuer: CN=SRK1_sha256_1024_65537_v3_ca
        Validity
            Not Before: Mar  7 14:25:10 2018 GMT
            Not After : Mar  4 14:25:10 2028 GMT
        Subject: CN=IMG1_1_sha256_1024_65537_v3_usr
        Subject Public Key Info:
            Public Key Algorithm: rsaEncryption
                Public-Key: (1024 bit)
                Modulus:
                    00:b1:0e:e4:4a:fb:16:91:c2:68:d7:4e:cd:0f:c6:
                    81:39:3f:d3:83:0a:f8:6e:3e:fc:8b:ed:4a:52:5b:
                    c8:0f:46:74:54:74:ab:a3:2c:0d:c7:f0:16:33:ec:
                    9e:0d:c0:13:36:1f:8a:04:cd:4d:7a:48:48:c1:47:
                    9a:51:e3:68:e8:3a:43:f6:5b:6a:82:d4:8b:25:6b:
                    aa:17:c1:68:01:e6:2b:71:3f:fd:be:a5:e1:88:bf:
                    1c:a1:dd:71:e4:42:88:5f:d0:ee:16:0a:f7:0b:6c:
                    d9:88:29:53:64:ba:6a:c5:cd:df:25:09:54:dd:82:
                    1e:2c:60:49:25:84:42:57:4d
                Exponent: 65537 (0x10001)
        X509v3 extensions:
            X509v3 Basic Constraints: 
                CA:FALSE
            Netscape Comment: 
                OpenSSL Generated Certificate
            X509v3 Subject Key Identifier: 
                6E:04:3F:96:14:1D:88:25:37:60:43:FD:CC:90:70:C7:06:5E:06:76
            X509v3 Authority Key Identifier: 
                keyid:A5:5E:E8:13:92:E2:43:53:60:B5:69:FC:C6:F3:32:D1:DF:00:3F:E5

    Signature Algorithm: sha256WithRSAEncryption
         53:eb:bd:ab:13:c8:78:84:ba:6f:8d:bf:4c:08:26:bc:1a:45:
         8a:eb:b6:b2:bc:01:1d:a8:33:61:11:42:81:18:0c:bf:72:f1:
         f9:e9:52:56:1f:10:0f:95:3e:98:09:99:ad:67:91:13:e1:8e:
         ae:0f:86:61:2b:dd:ed:6b:0c:6a:fc:11:31:eb:33:70:4b:9b:
         61:a6:0a:11:4f:b7:ba:d0:3d:cd:ee:ed:fb:37:75:9e:b5:e2:
         72:31:25:22:0b:b7:1f:ad:86:af:fc:3a:66:49:b5:98:7e:3c:
         26:46:87:4b:c4:2b:6a:d8:7d:67:fc:96:66:f0:e2:e1:57:95:
         2d:1e
-----BEGIN CERTIFICATE-----
MIICRTCCAa6gAwIBAgIEEAAAGjANBgkqhkiG9w0BAQsFADAnMSUwIwYDVQQDDBxT
UksxX3NoYTI1Nl8xMDI0XzY1NTM3X3YzX2NhMB4XDTE4MDMwNzE0MjUxMFoXDTI4
MDMwNDE0MjUxMFowKjEoMCYGA1UEAwwfSU1HMV8xX3NoYTI1Nl8xMDI0XzY1NTM3
X3YzX3VzcjCBnzANBgkqhkiG9w0BAQEFAAOBjQAwgYkCgYEAsQ7kSvsWkcJo107N
D8aBOT/Tgwr4bj78i+1KUlvID0Z0VHSroywNx/AWM+yeDcATNh+KBM1NekhIwUea
UeNo6DpD9ltqgtSLJWuqF8FoAeYrcT/9vqXhiL8cod1x5EKIX9DuFgr3C2zZiClT
ZLpqxc3fJQlU3YIeLGBJJYRCV00CAwEAAaN7MHkwCQYDVR0TBAIwADAsBglghkgB
hvhCAQ0EHxYdT3BlblNTTCBHZW5lcmF0ZWQgQ2VydGlmaWNhdGUwHQYDVR0OBBYE
FG4EP5YUHYglN2BD/cyQcMcGXgZ2MB8GA1UdIwQYMBaAFKVe6BOS4kNTYLVp/Mbz
MtHfAD/lMA0GCSqGSIb3DQEBCwUAA4GBAFPrvasTyHiEum+Nv0wIJrwaRYrrtrK8
AR2oM2ERQoEYDL9y8fnpUlYfEA+VPpgJma1nkRPhjq4PhmEr3e1rDGr8ETHrM3BL
m2GmChFPt7rQPc3u7fs3dZ614nIxJSILtx+thq/8OmZJtZh+PCZGh0vEK2rYfWf8
lmbw4uFXlS0e
-----END CERTIFICATE-----
