Certificate:
    Data:
        Version: 3 (0x2)
        Serial Number: 268435470 (0x1000000e)
    Signature Algorithm: sha256WithRSAEncryption
        Issuer: CN=SRK1_sha256_2048_65537_v3_ca
        Validity
            Not Before: Mar  1 15:26:20 2018 GMT
            Not After : Feb 27 15:26:20 2028 GMT
        Subject: CN=IMG1_1_sha256_2048_65537_v3_usr
        Subject Public Key Info:
            Public Key Algorithm: rsaEncryption
                Public-Key: (2048 bit)
                Modulus:
                    00:96:50:81:28:51:45:cf:5e:63:02:59:dd:7a:18:
                    2b:27:77:a1:86:3e:b8:f5:37:3b:44:d5:61:78:e1:
                    8e:f8:66:a8:9e:f5:b3:f1:fd:2f:02:f8:6d:f0:36:
                    76:0c:77:9f:90:11:67:3e:fb:2b:51:f0:3c:6d:7b:
                    3a:07:0c:8a:26:67:cc:58:ed:10:cd:e5:a2:f5:91:
                    1d:5c:5c:58:45:88:0d:61:8f:42:7f:07:bd:92:26:
                    81:77:90:de:a5:d3:d9:fe:43:79:26:ea:84:84:9d:
                    35:6a:61:52:48:fb:16:df:7b:ed:29:33:f3:fc:25:
                    be:e0:67:ff:e6:65:41:e4:34:96:71:55:ea:49:5d:
                    3d:c9:74:80:07:8e:3e:6a:f4:0e:25:1e:6c:70:80:
                    cc:32:cc:f8:9f:2f:be:bb:3c:65:02:cd:b0:f0:de:
                    93:6e:a1:fd:36:9c:13:28:87:e2:9f:d0:1d:53:67:
                    dd:29:fc:b7:18:77:24:a1:76:9a:5a:84:1d:87:a0:
                    4c:86:31:55:ee:73:30:91:63:1b:21:ac:36:3d:5c:
                    05:7f:5c:99:31:bb:d7:a7:c5:49:1c:37:a1:91:45:
                    b0:f7:f7:64:b2:1c:09:87:eb:32:34:fd:ea:82:70:
                    d5:fb:1b:98:a0:87:c7:a8:1b:7d:fb:b0:df:0d:b1:
                    fc:79
                Exponent: 65537 (0x10001)
        X509v3 extensions:
            X509v3 Basic Constraints: 
                CA:FALSE
            Netscape Comment: 
                OpenSSL Generated Certificate
            X509v3 Subject Key Identifier: 
                9A:4F:FC:03:84:E0:31:06:E2:05:F2:BD:7C:FB:51:DE:70:19:E2:52
            X509v3 Authority Key Identifier: 
                keyid:99:70:A4:7E:B1:C9:45:B8:5A:AE:D3:A0:D5:06:E0:78:18:F3:F4:6A

    Signature Algorithm: sha256WithRSAEncryption
         60:e1:1a:c8:48:0b:42:6c:7c:95:98:80:7d:43:f2:5e:ec:88:
         64:1e:89:6b:2b:85:66:e7:1d:c1:76:89:71:59:07:90:43:14:
         18:b8:86:52:a4:01:1b:fa:3b:3d:5b:91:b2:4b:2d:2f:21:d9:
         27:43:91:4d:4c:19:4e:04:07:1e:22:e0:08:da:96:db:d8:b6:
         ca:64:8d:77:a5:7b:49:b7:a6:3b:82:b7:51:57:0a:68:41:79:
         d3:b5:3c:6f:64:41:f3:5b:00:2c:51:d6:7c:54:6f:6b:27:7e:
         3b:5d:5e:d4:2a:d2:2b:d5:96:a6:04:c6:fe:ff:0c:4c:28:3b:
         58:35:22:28:ba:29:1d:e1:40:62:81:7d:a1:40:9c:13:78:10:
         ab:ba:18:f6:f8:c9:d3:1a:c6:a6:0d:04:70:2a:56:d1:a0:69:
         9b:54:1b:1d:8c:6f:a5:56:2a:90:8a:9c:63:c3:78:b1:db:a5:
         58:bc:3b:b1:d9:8b:4f:56:44:f5:e2:37:51:2d:31:d2:58:ba:
         62:87:13:22:13:98:93:2b:22:cc:6d:2a:50:37:18:e2:36:e1:
         24:11:ce:58:0f:aa:45:11:41:73:3e:80:97:70:5d:19:cd:42:
         3b:eb:0d:b2:bf:d5:55:9c:d3:7d:fc:51:0c:01:41:2c:42:d0:
         ca:f7:8c:a9
-----BEGIN CERTIFICATE-----
MIIDSjCCAjKgAwIBAgIEEAAADjANBgkqhkiG9w0BAQsFADAnMSUwIwYDVQQDDBxT
UksxX3NoYTI1Nl8yMDQ4XzY1NTM3X3YzX2NhMB4XDTE4MDMwMTE1MjYyMFoXDTI4
MDIyNzE1MjYyMFowKjEoMCYGA1UEAwwfSU1HMV8xX3NoYTI1Nl8yMDQ4XzY1NTM3
X3YzX3VzcjCCASIwDQYJKoZIhvcNAQEBBQADggEPADCCAQoCggEBAJZQgShRRc9e
YwJZ3XoYKyd3oYY+uPU3O0TVYXjhjvhmqJ71s/H9LwL4bfA2dgx3n5ARZz77K1Hw
PG17OgcMiiZnzFjtEM3lovWRHVxcWEWIDWGPQn8HvZImgXeQ3qXT2f5DeSbqhISd
NWphUkj7Ft977Skz8/wlvuBn/+ZlQeQ0lnFV6kldPcl0gAeOPmr0DiUebHCAzDLM
+J8vvrs8ZQLNsPDek26h/TacEyiH4p/QHVNn3Sn8txh3JKF2mlqEHYegTIYxVe5z
MJFjGyGsNj1cBX9cmTG716fFSRw3oZFFsPf3ZLIcCYfrMjT96oJw1fsbmKCHx6gb
ffuw3w2x/HkCAwEAAaN7MHkwCQYDVR0TBAIwADAsBglghkgBhvhCAQ0EHxYdT3Bl
blNTTCBHZW5lcmF0ZWQgQ2VydGlmaWNhdGUwHQYDVR0OBBYEFJpP/AOE4DEG4gXy
vXz7Ud5wGeJSMB8GA1UdIwQYMBaAFJlwpH6xyUW4Wq7ToNUG4HgY8/RqMA0GCSqG
SIb3DQEBCwUAA4IBAQBg4RrISAtCbHyVmIB9Q/Je7IhkHolrK4Vm5x3BdolxWQeQ
QxQYuIZSpAEb+js9W5GySy0vIdknQ5FNTBlOBAceIuAI2pbb2LbKZI13pXtJt6Y7
grdRVwpoQXnTtTxvZEHzWwAsUdZ8VG9rJ347XV7UKtIr1ZamBMb+/wxMKDtYNSIo
uikd4UBigX2hQJwTeBCruhj2+MnTGsamDQRwKlbRoGmbVBsdjG+lViqQipxjw3ix
26VYvDux2YtPVkT14jdRLTHSWLpihxMiE5iTKyLMbSpQNxjiNuEkEc5YD6pFEUFz
PoCXcF0ZzUI76w2yv9VVnNN9/FEMAUEsQtDK94yp
-----END CERTIFICATE-----
