Certificate:
    Data:
        Version: 3 (0x2)
        Serial Number: 268435483 (0x1000001b)
    Signature Algorithm: sha256WithRSAEncryption
        Issuer: CN=CA1_sha256_1024_65537_v3_ca
        Validity
            Not Before: Mar  7 14:25:10 2018 GMT
            Not After : Mar  4 14:25:10 2028 GMT
        Subject: CN=SRK2_sha256_1024_65537_v3_ca
        Subject Public Key Info:
            Public Key Algorithm: rsaEncryption
                Public-Key: (1024 bit)
                Modulus:
                    00:b0:35:16:b4:1b:16:dc:3d:4b:74:35:ce:d9:2a:
                    7c:0d:25:d1:f9:5c:31:1e:f7:2a:64:96:56:64:4e:
                    3a:cf:fd:bf:4a:6c:cb:94:15:69:5a:07:97:9d:65:
                    51:2d:6a:90:ab:df:88:98:d5:45:4b:1d:0d:35:fe:
                    da:6a:a8:73:96:af:90:54:b5:88:30:0a:c5:4a:f7:
                    2b:7e:86:6d:2b:03:95:53:fd:35:06:26:64:d0:ca:
                    d8:87:61:76:70:dc:b7:a5:a6:6d:39:f1:66:8e:49:
                    79:fd:2c:8c:68:15:4c:b7:40:9a:4d:40:ef:46:4c:
                    d6:62:fa:87:c6:2a:4f:8c:57
                Exponent: 65537 (0x10001)
        X509v3 extensions:
            X509v3 Subject Key Identifier: 
                15:AE:8F:3E:4C:E1:37:BA:CF:B0:2B:F6:AF:72:D3:01:E6:0A:A0:D2
            X509v3 Authority Key Identifier: 
                keyid:94:6A:86:56:18:97:62:01:3A:5A:7E:C3:E8:BB:BD:64:23:EC:E9:3F
                DirName:/CN=CA1_sha256_1024_65537_v3_ca
                serial:F0:B7:CA:EC:81:54:BB:A9

            X509v3 Basic Constraints: critical
                CA:TRUE
            X509v3 Key Usage: 
                Certificate Sign
    Signature Algorithm: sha256WithRSAEncryption
         b2:22:99:72:8b:ed:d6:ff:b5:af:27:49:3a:95:9b:d5:fc:32:
         72:e7:2b:db:3e:4c:c0:4f:01:19:85:84:c0:b5:3a:c2:aa:c9:
         f5:d5:f2:d5:80:65:38:7e:c3:ec:ff:7e:b5:a8:7a:93:8b:3b:
         a9:ef:9a:83:ed:2e:90:a3:4f:13:4a:42:0c:86:ea:95:a2:b1:
         e4:36:2e:64:88:66:ba:18:24:eb:7b:cc:22:ba:7e:09:a3:64:
         95:e1:fd:8c:ed:cd:8a:99:c2:d5:44:3f:c3:a3:78:49:62:a1:
         e4:08:86:02:fe:bc:be:94:4d:9b:8f:86:3a:5c:9f:ce:01:2b:
         c2:28
-----BEGIN CERTIFICATE-----
MIICXzCCAcigAwIBAgIEEAAAGzANBgkqhkiG9w0BAQsFADAmMSQwIgYDVQQDFBtD
QTFfc2hhMjU2XzEwMjRfNjU1MzdfdjNfY2EwHhcNMTgwMzA3MTQyNTEwWhcNMjgw
MzA0MTQyNTEwWjAnMSUwIwYDVQQDDBxTUksyX3NoYTI1Nl8xMDI0XzY1NTM3X3Yz
X2NhMIGfMA0GCSqGSIb3DQEBAQUAA4GNADCBiQKBgQCwNRa0GxbcPUt0Nc7ZKnwN
JdH5XDEe9ypkllZkTjrP/b9KbMuUFWlaB5edZVEtapCr34iY1UVLHQ01/tpqqHOW
r5BUtYgwCsVK9yt+hm0rA5VT/TUGJmTQytiHYXZw3Lelpm058WaOSXn9LIxoFUy3
QJpNQO9GTNZi+ofGKk+MVwIDAQABo4GYMIGVMB0GA1UdDgQWBBQVro8+TOE3us+w
K/avctMB5gqg0jBWBgNVHSMETzBNgBSUaoZWGJdiATpafsPou71kI+zpP6EqpCgw
JjEkMCIGA1UEAxQbQ0ExX3NoYTI1Nl8xMDI0XzY1NTM3X3YzX2NhggkA8LfK7IFU
u6kwDwYDVR0TAQH/BAUwAwEB/zALBgNVHQ8EBAMCAgQwDQYJKoZIhvcNAQELBQAD
gYEAsiKZcovt1v+1rydJOpWb1fwycucr2z5MwE8BGYWEwLU6wqrJ9dXy1YBlOH7D
7P9+tah6k4s7qe+ag+0ukKNPE0pCDIbqlaKx5DYuZIhmuhgk63vMIrp+CaNkleH9
jO3NipnC1UQ/w6N4SWKh5AiGAv68vpRNm4+GOlyfzgErwig=
-----END CERTIFICATE-----
