Certificate:
    Data:
        Version: 3 (0x2)
        Serial Number: 268435472 (0x10000010)
    Signature Algorithm: sha256WithRSAEncryption
        Issuer: CN=SRK2_sha256_2048_65537_v3_ca
        Validity
            Not Before: Mar  1 15:26:20 2018 GMT
            Not After : Feb 27 15:26:20 2028 GMT
        Subject: CN=CSF2_1_sha256_2048_65537_v3_usr
        Subject Public Key Info:
            Public Key Algorithm: rsaEncryption
                Public-Key: (2048 bit)
                Modulus:
                    00:b4:63:20:9b:59:2b:83:e3:45:a7:64:91:63:91:
                    cc:96:0e:a8:68:5d:8b:bc:c3:a2:da:b8:6e:e0:0e:
                    de:bd:f0:55:e9:1e:80:0a:bc:bd:2a:57:a7:35:d7:
                    29:eb:4b:5c:06:ac:5f:7d:9b:ba:26:9d:64:75:37:
                    ed:9e:0d:bb:63:d8:52:6a:eb:05:7a:a2:0c:4d:8a:
                    eb:24:74:f1:6b:64:d8:70:66:b1:8c:7e:d0:cd:c7:
                    c4:fa:2b:5b:58:9f:c4:98:2f:59:81:e2:8a:41:6a:
                    82:d9:67:e3:c0:7e:67:08:08:6c:0d:57:ed:9a:0f:
                    b1:f3:db:6a:2c:60:a5:8f:ed:eb:d4:dd:4f:2c:35:
                    e4:70:c4:7d:8a:1c:b8:95:10:41:bb:6a:09:d2:22:
                    91:07:3f:13:f1:d5:5b:97:d6:e4:57:9d:d0:b7:be:
                    5a:cb:47:cb:1b:4f:97:8a:44:17:ba:70:e0:fc:a1:
                    62:eb:5b:56:52:74:d4:9a:2f:de:84:09:6a:ba:38:
                    a3:1f:a2:1a:81:ba:46:c4:29:d0:cc:8b:e0:c9:db:
                    5c:4a:d0:d1:1e:c5:59:7b:d0:96:54:01:ac:68:ac:
                    f6:e4:e7:43:ec:96:ab:b2:bc:53:78:2b:99:e3:fb:
                    a2:c2:2c:22:20:69:10:5a:f6:0b:28:c8:fb:17:28:
                    47:c1
                Exponent: 65537 (0x10001)
        X509v3 extensions:
            X509v3 Basic Constraints: 
                CA:FALSE
            Netscape Comment: 
                OpenSSL Generated Certificate
            X509v3 Subject Key Identifier: 
                E8:29:0D:7A:E0:90:5D:0E:88:9E:C6:FB:3F:A5:6B:7A:64:C1:2B:FE
            X509v3 Authority Key Identifier: 
                keyid:CD:0D:57:89:B3:0F:8E:27:D7:80:C8:C6:66:E2:B0:3D:BF:0B:E6:58

    Signature Algorithm: sha256WithRSAEncryption
         2d:3f:94:73:a8:f2:bc:c1:d8:0c:c4:e9:53:ba:1d:c6:7d:83:
         99:11:89:29:69:79:80:bd:82:be:9e:5f:78:de:f3:1b:bb:2a:
         c4:69:b8:08:45:7d:cc:c6:7a:a8:a0:f1:b3:40:17:59:ac:8b:
         1f:de:16:c7:ff:67:5e:a4:16:20:b6:6c:ea:78:21:d7:72:e5:
         0f:76:9c:52:02:dc:ff:a8:90:2a:7b:b9:73:03:c0:99:4b:8f:
         1c:82:8e:04:c1:6f:1a:cc:0a:80:65:3f:35:43:f4:06:67:71:
         40:f9:85:db:11:3a:8a:40:aa:8a:9f:34:44:aa:e4:9d:ae:e2:
         21:dd:8b:3a:fc:99:79:bb:95:1d:d5:a0:74:9a:fe:17:60:1f:
         48:49:5e:d3:98:83:73:35:79:1b:40:72:6e:b0:f5:5c:88:27:
         82:50:2d:dc:0c:98:bc:60:3a:c3:16:5d:ea:78:79:23:17:e6:
         34:fa:cd:cd:9d:63:56:d6:05:47:b2:83:aa:33:66:d5:bc:2c:
         49:1c:c0:31:52:c0:6b:60:d3:7f:11:3f:df:18:fa:89:dd:4a:
         ad:0c:ed:55:13:b8:0a:f0:95:2f:0a:10:ba:3e:c4:1f:d1:9b:
         07:f4:12:08:fb:c7:cc:12:0a:a7:98:f1:4d:8f:be:6e:19:9e:
         c0:02:af:23
-----BEGIN CERTIFICATE-----
MIIDSjCCAjKgAwIBAgIEEAAAEDANBgkqhkiG9w0BAQsFADAnMSUwIwYDVQQDDBxT
UksyX3NoYTI1Nl8yMDQ4XzY1NTM3X3YzX2NhMB4XDTE4MDMwMTE1MjYyMFoXDTI4
MDIyNzE1MjYyMFowKjEoMCYGA1UEAwwfQ1NGMl8xX3NoYTI1Nl8yMDQ4XzY1NTM3
X3YzX3VzcjCCASIwDQYJKoZIhvcNAQEBBQADggEPADCCAQoCggEBALRjIJtZK4Pj
RadkkWORzJYOqGhdi7zDotq4buAO3r3wVekegAq8vSpXpzXXKetLXAasX32buiad
ZHU37Z4Nu2PYUmrrBXqiDE2K6yR08Wtk2HBmsYx+0M3HxPorW1ifxJgvWYHiikFq
gtln48B+ZwgIbA1X7ZoPsfPbaixgpY/t69TdTyw15HDEfYocuJUQQbtqCdIikQc/
E/HVW5fW5Fed0Le+WstHyxtPl4pEF7pw4PyhYutbVlJ01Jov3oQJaro4ox+iGoG6
RsQp0MyL4MnbXErQ0R7FWXvQllQBrGis9uTnQ+yWq7K8U3grmeP7osIsIiBpEFr2
CyjI+xcoR8ECAwEAAaN7MHkwCQYDVR0TBAIwADAsBglghkgBhvhCAQ0EHxYdT3Bl
blNTTCBHZW5lcmF0ZWQgQ2VydGlmaWNhdGUwHQYDVR0OBBYEFOgpDXrgkF0OiJ7G
+z+la3pkwSv+MB8GA1UdIwQYMBaAFM0NV4mzD44n14DIxmbisD2/C+ZYMA0GCSqG
SIb3DQEBCwUAA4IBAQAtP5RzqPK8wdgMxOlTuh3GfYOZEYkpaXmAvYK+nl943vMb
uyrEabgIRX3MxnqooPGzQBdZrIsf3hbH/2depBYgtmzqeCHXcuUPdpxSAtz/qJAq
e7lzA8CZS48cgo4EwW8azAqAZT81Q/QGZ3FA+YXbETqKQKqKnzREquSdruIh3Ys6
/Jl5u5Ud1aB0mv4XYB9ISV7TmINzNXkbQHJusPVciCeCUC3cDJi8YDrDFl3qeHkj
F+Y0+s3NnWNW1gVHsoOqM2bVvCxJHMAxUsBrYNN/ET/fGPqJ3UqtDO1VE7gK8JUv
ChC6PsQf0ZsH9BII+8fMEgqnmPFNj75uGZ7AAq8j
-----END CERTIFICATE-----
