Certificate:
    Data:
        Version: 3 (0x2)
        Serial Number: 268435479 (0x10000017)
    Signature Algorithm: sha256WithRSAEncryption
        Issuer: CN=SRK4_sha256_2048_65537_v3_ca
        Validity
            Not Before: Mar  1 15:26:21 2018 GMT
            Not After : Feb 27 15:26:21 2028 GMT
        Subject: CN=IMG4_1_sha256_2048_65537_v3_usr
        Subject Public Key Info:
            Public Key Algorithm: rsaEncryption
                Public-Key: (2048 bit)
                Modulus:
                    00:b4:89:67:c7:50:46:5b:9d:f7:45:8a:70:da:36:
                    e2:6e:a2:61:60:e1:a2:75:76:ea:cf:18:1c:3a:3c:
                    67:90:da:a8:64:6f:ee:90:c9:0f:36:3b:bc:fc:20:
                    8d:d9:54:3d:58:34:f4:5c:23:5e:09:ef:b5:be:ae:
                    2a:57:de:50:f3:99:bf:a7:9b:39:8d:88:79:87:32:
                    7b:24:48:0a:47:5e:cf:9c:0f:b8:45:c9:82:64:1e:
                    94:df:67:23:7d:7d:38:04:ca:ad:49:86:e6:0e:f2:
                    00:95:bc:d1:34:a5:9f:81:fc:f2:60:a5:47:45:4b:
                    13:06:c4:c8:4b:2c:8a:2f:59:f7:cc:f3:ab:bc:a9:
                    55:b4:c3:1e:0f:53:da:5a:2e:44:1f:ac:9e:f9:67:
                    1e:27:41:42:ab:65:97:25:c9:76:30:78:4e:1f:35:
                    00:1e:62:ff:4f:33:bb:03:58:85:54:13:9d:f3:a0:
                    66:26:5b:94:97:be:90:29:2a:16:e3:e0:3e:18:93:
                    75:99:8f:b4:b8:eb:da:52:5d:3a:f8:40:cc:d3:a5:
                    41:07:6a:d6:14:a1:a2:59:6e:2b:63:3e:1b:95:82:
                    fc:51:72:c5:f1:3d:60:9f:be:bb:bc:47:96:3d:f1:
                    64:10:35:fe:3d:e4:ae:dd:47:52:5d:8d:66:b2:0a:
                    91:05
                Exponent: 65537 (0x10001)
        X509v3 extensions:
            X509v3 Basic Constraints: 
                CA:FALSE
            Netscape Comment: 
                OpenSSL Generated Certificate
            X509v3 Subject Key Identifier: 
                20:3C:DA:E0:47:D3:75:B5:B5:CF:B2:FE:65:02:64:B3:4F:59:7F:DE
            X509v3 Authority Key Identifier: 
                keyid:65:7B:07:D7:C5:41:69:BB:0C:E7:58:87:EB:1E:34:11:1F:E6:28:4D

    Signature Algorithm: sha256WithRSAEncryption
         9d:6d:88:a3:4a:95:ac:1c:d9:2f:1a:f2:1a:e7:bb:34:52:f3:
         8d:bb:ac:fb:bf:a4:3f:7f:f8:89:0b:80:90:3b:00:f1:b7:58:
         eb:77:84:b3:73:a5:78:a8:87:37:46:70:88:b5:08:6e:3f:4c:
         a1:47:35:fd:23:5b:28:c3:f2:ea:84:03:59:ad:2f:9f:7f:df:
         e7:18:b2:0e:7f:ba:43:ac:ad:fb:85:0f:26:ef:ae:ae:80:12:
         e1:5a:80:9a:eb:3b:84:7d:ea:7c:9e:0f:71:ee:89:71:2a:46:
         30:64:8e:44:e9:e8:f3:58:0f:b2:29:bb:15:6b:24:2c:c8:65:
         9e:ba:c2:1d:bc:cc:a5:63:b5:e5:e0:fb:f7:ef:96:81:44:2e:
         be:65:db:6e:ff:a2:65:a9:50:06:d8:da:93:68:5b:14:91:bd:
         4d:6a:7b:5b:83:a7:18:a8:95:8f:a6:6b:64:24:2b:4d:6a:d3:
         e9:50:20:5c:ad:c2:e9:38:ec:3c:ab:c0:18:a9:e0:e9:d2:79:
         57:85:96:c2:83:66:94:d9:8e:e0:92:4c:11:52:a4:1f:ee:9a:
         b0:02:3a:b6:74:78:f2:1a:32:1e:a8:25:5a:96:c9:8b:81:0d:
         58:9a:5b:07:27:7b:dd:a8:90:80:c4:a3:9a:d5:ef:12:24:1a:
         24:90:af:72
-----BEGIN CERTIFICATE-----
MIIDSjCCAjKgAwIBAgIEEAAAFzANBgkqhkiG9w0BAQsFADAnMSUwIwYDVQQDDBxT
Uks0X3NoYTI1Nl8yMDQ4XzY1NTM3X3YzX2NhMB4XDTE4MDMwMTE1MjYyMVoXDTI4
MDIyNzE1MjYyMVowKjEoMCYGA1UEAwwfSU1HNF8xX3NoYTI1Nl8yMDQ4XzY1NTM3
X3YzX3VzcjCCASIwDQYJKoZIhvcNAQEBBQADggEPADCCAQoCggEBALSJZ8dQRlud
90WKcNo24m6iYWDhonV26s8YHDo8Z5DaqGRv7pDJDzY7vPwgjdlUPVg09FwjXgnv
tb6uKlfeUPOZv6ebOY2IeYcyeyRICkdez5wPuEXJgmQelN9nI319OATKrUmG5g7y
AJW80TSln4H88mClR0VLEwbEyEssii9Z98zzq7ypVbTDHg9T2louRB+snvlnHidB
QqtllyXJdjB4Th81AB5i/08zuwNYhVQTnfOgZiZblJe+kCkqFuPgPhiTdZmPtLjr
2lJdOvhAzNOlQQdq1hSholluK2M+G5WC/FFyxfE9YJ++u7xHlj3xZBA1/j3krt1H
Ul2NZrIKkQUCAwEAAaN7MHkwCQYDVR0TBAIwADAsBglghkgBhvhCAQ0EHxYdT3Bl
blNTTCBHZW5lcmF0ZWQgQ2VydGlmaWNhdGUwHQYDVR0OBBYEFCA82uBH03W1tc+y
/mUCZLNPWX/eMB8GA1UdIwQYMBaAFGV7B9fFQWm7DOdYh+seNBEf5ihNMA0GCSqG
SIb3DQEBCwUAA4IBAQCdbYijSpWsHNkvGvIa57s0UvONu6z7v6Q/f/iJC4CQOwDx
t1jrd4Szc6V4qIc3RnCItQhuP0yhRzX9I1sow/LqhANZrS+ff9/nGLIOf7pDrK37
hQ8m766ugBLhWoCa6zuEfep8ng9x7olxKkYwZI5E6ejzWA+yKbsVayQsyGWeusId
vMylY7Xl4Pv375aBRC6+Zdtu/6JlqVAG2NqTaFsUkb1Nantbg6cYqJWPpmtkJCtN
atPpUCBcrcLpOOw8q8AYqeDp0nlXhZbCg2aU2Y7gkkwRUqQf7pqwAjq2dHjyGjIe
qCValsmLgQ1YmlsHJ3vdqJCAxKOa1e8SJBokkK9y
-----END CERTIFICATE-----
