Certificate:
    Data:
        Version: 3 (0x2)
        Serial Number: 268435474 (0x10000012)
    Signature Algorithm: sha256WithRSAEncryption
        Issuer: CN=CA1_sha256_2048_65537_v3_ca
        Validity
            Not Before: Mar  1 15:26:21 2018 GMT
            Not After : Feb 27 15:26:21 2028 GMT
        Subject: CN=SRK3_sha256_2048_65537_v3_ca
        Subject Public Key Info:
            Public Key Algorithm: rsaEncryption
                Public-Key: (2048 bit)
                Modulus:
                    00:ae:87:3c:77:93:eb:81:91:fb:49:cc:cc:ce:f0:
                    0b:43:72:20:2b:3b:28:f0:ee:3b:3e:e7:01:ae:67:
                    92:30:77:5a:aa:4b:1b:67:13:ac:7a:36:08:f7:50:
                    44:59:bc:2d:49:5c:90:fc:b4:1f:a9:6c:d0:f0:1e:
                    af:77:6d:62:ae:c8:f7:d9:3f:0d:c7:48:9b:99:ba:
                    ab:07:63:6d:84:ae:fa:7c:f9:29:ec:95:5e:17:d6:
                    6c:f0:b0:94:f2:ec:f1:86:98:c2:40:3f:ae:a0:d5:
                    2c:31:20:42:93:00:66:24:32:29:47:d8:2a:3b:65:
                    c0:bb:be:4b:81:89:e9:1d:17:2b:fa:da:20:45:1d:
                    3e:bd:2c:b2:b1:a8:74:f3:e0:19:5c:d5:dd:fc:59:
                    32:85:d7:7e:7b:d7:08:f5:bc:b1:41:eb:a2:68:af:
                    48:18:b0:0b:47:79:50:d3:91:df:43:32:75:93:c3:
                    8a:60:1e:1f:eb:fd:70:47:1b:77:32:32:07:30:9a:
                    c7:1e:20:38:e4:fd:d8:6a:4b:71:55:7d:47:7b:11:
                    98:07:0c:3d:8f:51:fd:51:8c:91:9e:04:4b:ab:52:
                    60:72:fa:a9:12:b3:4d:77:33:15:26:4b:7f:02:dc:
                    56:9f:91:c1:67:04:d0:10:59:fb:06:19:39:55:5c:
                    ca:b5
                Exponent: 65537 (0x10001)
        X509v3 extensions:
            X509v3 Subject Key Identifier: 
                30:70:75:71:C6:9B:4F:A6:0E:F8:A2:20:56:BE:E8:2C:02:D6:AE:06
            X509v3 Authority Key Identifier: 
                keyid:9F:2D:1A:CC:B2:E8:04:6C:CE:3A:CA:69:29:2F:35:E5:AB:08:08:EE
                DirName:/CN=CA1_sha256_2048_65537_v3_ca
                serial:CF:E0:8C:DB:9F:2F:21:BF

            X509v3 Basic Constraints: critical
                CA:TRUE
            X509v3 Key Usage: 
                Certificate Sign
    Signature Algorithm: sha256WithRSAEncryption
         06:a6:59:da:bc:29:88:4e:25:ad:34:b5:b6:13:75:16:2a:72:
         0f:68:ea:74:c3:a4:e3:ee:e8:f3:85:3a:39:e8:d0:bd:5d:66:
         d5:02:b0:37:4f:e5:c9:79:fa:37:48:b5:34:b5:5b:d0:6b:4b:
         87:18:00:42:15:24:60:eb:fb:6a:45:b9:3a:88:8b:e3:52:28:
         86:81:9c:c5:12:cd:fc:82:8f:16:f0:2a:47:9e:98:6c:60:e4:
         e0:e5:25:80:b6:a8:08:9d:92:37:54:05:a8:09:39:d8:5c:51:
         70:28:fb:5d:42:ad:c5:72:cb:79:91:8b:e4:6f:31:0b:a3:2f:
         1c:d8:21:39:6f:a1:d0:41:24:d2:cc:7a:ff:ed:5a:e8:50:4f:
         1d:cf:10:de:2b:5b:31:73:39:94:75:36:66:2b:1f:67:41:f7:
         e0:de:3c:3c:a6:b8:1c:9c:d0:15:15:62:2f:be:65:5d:ce:40:
         70:39:4b:0c:6f:f2:42:40:87:b7:bb:c0:bf:08:90:ea:91:14:
         19:4a:fe:a8:57:51:74:2e:a5:df:86:1e:c5:ce:4d:47:68:c9:
         bf:71:72:c1:67:3c:e3:ed:82:4b:3b:18:4b:7c:18:fa:b4:5e:
         2e:9e:57:41:a8:54:12:6f:81:69:0c:52:4d:55:bf:4a:f7:e6:
         88:a8:61:2a
-----BEGIN CERTIFICATE-----
MIIDZDCCAkygAwIBAgIEEAAAEjANBgkqhkiG9w0BAQsFADAmMSQwIgYDVQQDFBtD
QTFfc2hhMjU2XzIwNDhfNjU1MzdfdjNfY2EwHhcNMTgwMzAxMTUyNjIxWhcNMjgw
MjI3MTUyNjIxWjAnMSUwIwYDVQQDDBxTUkszX3NoYTI1Nl8yMDQ4XzY1NTM3X3Yz
X2NhMIIBIjANBgkqhkiG9w0BAQEFAAOCAQ8AMIIBCgKCAQEAroc8d5PrgZH7SczM
zvALQ3IgKzso8O47PucBrmeSMHdaqksbZxOsejYI91BEWbwtSVyQ/LQfqWzQ8B6v
d21irsj32T8Nx0ibmbqrB2NthK76fPkp7JVeF9Zs8LCU8uzxhpjCQD+uoNUsMSBC
kwBmJDIpR9gqO2XAu75LgYnpHRcr+togRR0+vSyysah08+AZXNXd/Fkyhdd+e9cI
9byxQeuiaK9IGLALR3lQ05HfQzJ1k8OKYB4f6/1wRxt3MjIHMJrHHiA45P3Yaktx
VX1HexGYBww9j1H9UYyRngRLq1JgcvqpErNNdzMVJkt/AtxWn5HBZwTQEFn7Bhk5
VVzKtQIDAQABo4GYMIGVMB0GA1UdDgQWBBQwcHVxxptPpg74oiBWvugsAtauBjBW
BgNVHSMETzBNgBSfLRrMsugEbM46ymkpLzXlqwgI7qEqpCgwJjEkMCIGA1UEAxQb
Q0ExX3NoYTI1Nl8yMDQ4XzY1NTM3X3YzX2NhggkAz+CM258vIb8wDwYDVR0TAQH/
BAUwAwEB/zALBgNVHQ8EBAMCAgQwDQYJKoZIhvcNAQELBQADggEBAAamWdq8KYhO
Ja00tbYTdRYqcg9o6nTDpOPu6POFOjno0L1dZtUCsDdP5cl5+jdItTS1W9BrS4cY
AEIVJGDr+2pFuTqIi+NSKIaBnMUSzfyCjxbwKkeemGxg5ODlJYC2qAidkjdUBagJ
OdhcUXAo+11CrcVyy3mRi+RvMQujLxzYITlvodBBJNLMev/tWuhQTx3PEN4rWzFz
OZR1NmYrH2dB9+DePDymuByc0BUVYi++ZV3OQHA5Swxv8kJAh7e7wL8IkOqRFBlK
/qhXUXQupd+GHsXOTUdoyb9xcsFnPOPtgks7GEt8GPq0Xi6eV0GoVBJvgWkMUk1V
v0r35oioYSo=
-----END CERTIFICATE-----
