Certificate:
    Data:
        Version: 3 (0x2)
        Serial Number: 268435475 (0x10000013)
    Signature Algorithm: sha256WithRSAEncryption
        Issuer: CN=SRK3_sha256_2048_65537_v3_ca
        Validity
            Not Before: Mar  1 15:26:21 2018 GMT
            Not After : Feb 27 15:26:21 2028 GMT
        Subject: CN=CSF3_1_sha256_2048_65537_v3_usr
        Subject Public Key Info:
            Public Key Algorithm: rsaEncryption
                Public-Key: (2048 bit)
                Modulus:
                    00:c3:23:35:6f:19:a4:56:79:5b:6c:98:b2:02:07:
                    12:55:63:40:bd:90:1f:98:0f:5b:bb:e7:33:a3:d9:
                    98:d3:93:ea:2c:89:6a:85:a4:f5:5a:08:b0:b9:1f:
                    73:68:62:66:b7:fe:ed:a7:00:8c:58:9f:06:5a:ec:
                    78:27:6e:e4:9e:00:4b:16:d9:30:0b:f7:fd:e9:ca:
                    4f:aa:47:d2:a7:03:8f:67:38:0e:21:fe:3b:9b:4f:
                    f5:a4:e1:e3:ae:26:39:14:8c:16:be:a6:74:e6:48:
                    6b:6d:2c:72:8b:67:21:fb:04:3a:71:9d:be:1f:7d:
                    4b:92:25:0b:ae:7e:69:3b:e7:fe:9b:9f:8f:85:50:
                    e0:20:97:cf:36:86:dc:21:a9:39:22:d0:35:13:e5:
                    95:6e:ca:48:97:68:32:1d:7a:c6:0a:dc:1f:3b:4e:
                    fc:58:4e:66:1f:1b:11:b7:3b:d3:e8:19:39:35:53:
                    0b:67:dd:dc:d9:14:cd:b2:31:17:a4:0b:a5:cb:ab:
                    4e:d8:bf:e7:c3:ab:18:b9:78:06:65:3d:50:8c:4e:
                    3e:48:70:fe:9d:e6:91:93:06:c3:86:47:ba:dd:2e:
                    32:e2:d7:3d:81:84:b9:04:96:12:64:9c:d3:94:f5:
                    ef:be:67:7d:ef:e7:2e:c4:2f:d7:52:69:4c:98:31:
                    8f:8b
                Exponent: 65537 (0x10001)
        X509v3 extensions:
            X509v3 Basic Constraints: 
                CA:FALSE
            Netscape Comment: 
                OpenSSL Generated Certificate
            X509v3 Subject Key Identifier: 
                63:5B:2D:0A:51:9A:08:7E:23:08:52:4A:E2:08:AB:80:CD:2B:79:77
            X509v3 Authority Key Identifier: 
                keyid:30:70:75:71:C6:9B:4F:A6:0E:F8:A2:20:56:BE:E8:2C:02:D6:AE:06

    Signature Algorithm: sha256WithRSAEncryption
         55:83:b1:32:83:1a:22:c7:6a:81:53:bf:b2:7c:7e:11:18:11:
         7c:0d:37:a4:7a:27:a9:51:4d:5f:96:c3:a0:ab:46:5d:d3:68:
         fc:e3:7e:53:fe:8c:bc:93:fa:f1:da:22:af:89:98:8e:41:95:
         37:26:bc:0a:1a:7d:29:b2:82:81:1c:7c:18:dc:e9:0c:28:f1:
         63:8e:f5:5b:12:46:42:6f:06:4a:89:2e:f8:4c:e0:13:7a:34:
         e1:bc:f5:bd:41:3b:b3:2d:92:bc:af:63:1c:23:3a:44:d9:9d:
         b2:09:73:b6:ab:f6:63:65:ec:f6:bd:5b:e8:58:90:eb:f1:de:
         74:05:22:9e:f3:a9:e8:fc:e5:be:1a:2b:9a:0a:7d:4b:4e:6f:
         fa:fc:54:d5:6e:02:da:d0:f1:00:0b:27:e1:09:c0:31:23:dd:
         d5:76:0a:cf:16:c4:f1:bc:74:a9:d5:75:f7:45:b4:84:48:7b:
         cc:98:96:ee:52:1c:4a:51:78:2e:90:a8:be:12:96:15:cf:30:
         36:91:34:bc:74:0e:de:14:be:8c:92:ad:40:49:a7:64:a5:aa:
         a3:1d:00:c8:68:c2:47:4c:c1:b6:e4:5d:ae:75:a8:0b:5d:92:
         5b:0c:8c:34:6e:65:0f:c8:df:94:67:d0:43:57:6a:a1:75:f9:
         2e:0c:2d:8e
-----BEGIN CERTIFICATE-----
MIIDSjCCAjKgAwIBAgIEEAAAEzANBgkqhkiG9w0BAQsFADAnMSUwIwYDVQQDDBxT
UkszX3NoYTI1Nl8yMDQ4XzY1NTM3X3YzX2NhMB4XDTE4MDMwMTE1MjYyMVoXDTI4
MDIyNzE1MjYyMVowKjEoMCYGA1UEAwwfQ1NGM18xX3NoYTI1Nl8yMDQ4XzY1NTM3
X3YzX3VzcjCCASIwDQYJKoZIhvcNAQEBBQADggEPADCCAQoCggEBAMMjNW8ZpFZ5
W2yYsgIHElVjQL2QH5gPW7vnM6PZmNOT6iyJaoWk9VoIsLkfc2hiZrf+7acAjFif
BlrseCdu5J4ASxbZMAv3/enKT6pH0qcDj2c4DiH+O5tP9aTh464mORSMFr6mdOZI
a20scotnIfsEOnGdvh99S5IlC65+aTvn/pufj4VQ4CCXzzaG3CGpOSLQNRPllW7K
SJdoMh16xgrcHztO/FhOZh8bEbc70+gZOTVTC2fd3NkUzbIxF6QLpcurTti/58Or
GLl4BmU9UIxOPkhw/p3mkZMGw4ZHut0uMuLXPYGEuQSWEmSc05T1775nfe/nLsQv
11JpTJgxj4sCAwEAAaN7MHkwCQYDVR0TBAIwADAsBglghkgBhvhCAQ0EHxYdT3Bl
blNTTCBHZW5lcmF0ZWQgQ2VydGlmaWNhdGUwHQYDVR0OBBYEFGNbLQpRmgh+IwhS
SuIIq4DNK3l3MB8GA1UdIwQYMBaAFDBwdXHGm0+mDviiIFa+6CwC1q4GMA0GCSqG
SIb3DQEBCwUAA4IBAQBVg7Eygxoix2qBU7+yfH4RGBF8DTekeiepUU1flsOgq0Zd
02j8435T/oy8k/rx2iKviZiOQZU3JrwKGn0psoKBHHwY3OkMKPFjjvVbEkZCbwZK
iS74TOATejThvPW9QTuzLZK8r2McIzpE2Z2yCXO2q/ZjZez2vVvoWJDr8d50BSKe
86no/OW+GiuaCn1LTm/6/FTVbgLa0PEACyfhCcAxI93VdgrPFsTxvHSp1XX3RbSE
SHvMmJbuUhxKUXgukKi+EpYVzzA2kTS8dA7eFL6Mkq1ASadkpaqjHQDIaMJHTMG2
5F2udagLXZJbDIw0bmUPyN+UZ9BDV2qhdfkuDC2O
-----END CERTIFICATE-----
