Certificate:
    Data:
        Version: 3 (0x2)
        Serial Number: 268435485 (0x1000001d)
    Signature Algorithm: sha256WithRSAEncryption
        Issuer: CN=SRK2_sha256_1024_65537_v3_ca
        Validity
            Not Before: Mar  7 14:25:10 2018 GMT
            Not After : Mar  4 14:25:10 2028 GMT
        Subject: CN=IMG2_1_sha256_1024_65537_v3_usr
        Subject Public Key Info:
            Public Key Algorithm: rsaEncryption
                Public-Key: (1024 bit)
                Modulus:
                    00:c9:00:69:c5:a9:2a:bc:dd:26:25:e5:8e:98:2e:
                    5a:c5:19:c4:8a:49:38:de:07:25:90:9b:ff:3f:2b:
                    cf:d4:f1:92:13:bb:e8:05:3a:f2:74:df:cc:9e:64:
                    d4:2a:24:ce:42:5c:a6:f0:98:b0:c2:f2:ac:6c:c4:
                    a8:a7:de:ea:c3:52:eb:df:73:1f:ce:9a:8c:10:32:
                    23:40:67:c3:66:67:8f:27:00:00:74:9f:0c:71:a6:
                    df:cb:15:a7:a9:fb:33:de:2a:0a:9d:32:b4:73:af:
                    96:1a:2f:b7:69:28:11:11:e7:72:64:e6:f5:b4:0f:
                    a7:39:19:7b:fd:41:f5:9b:e3
                Exponent: 65537 (0x10001)
        X509v3 extensions:
            X509v3 Basic Constraints: 
                CA:FALSE
            Netscape Comment: 
                OpenSSL Generated Certificate
            X509v3 Subject Key Identifier: 
                39:14:49:F2:C7:CF:0C:61:4C:49:AC:DF:97:84:21:F8:0D:D7:5C:0B
            X509v3 Authority Key Identifier: 
                keyid:15:AE:8F:3E:4C:E1:37:BA:CF:B0:2B:F6:AF:72:D3:01:E6:0A:A0:D2

    Signature Algorithm: sha256WithRSAEncryption
         4e:c1:57:c5:db:78:8f:cf:fa:7c:40:5f:20:2f:cc:a0:b4:b3:
         76:f0:07:d0:65:0a:4b:9e:95:4b:4f:92:5b:3c:ac:ed:e2:fd:
         5a:2f:27:07:86:33:f1:23:27:27:a2:45:be:7a:24:e2:89:f1:
         ed:e5:cd:66:09:3e:ca:3c:43:75:8e:f0:be:41:ee:88:b0:8e:
         0c:63:96:a8:cc:f7:ed:ce:de:83:a6:0f:b5:7b:51:ee:9b:fb:
         67:8b:40:1a:df:10:ae:68:d5:23:d3:19:00:2b:89:95:41:cd:
         4b:ea:01:cd:30:7b:e5:60:0e:61:60:fa:72:8d:73:fd:d2:4f:
         c8:33
-----BEGIN CERTIFICATE-----
MIICRTCCAa6gAwIBAgIEEAAAHTANBgkqhkiG9w0BAQsFADAnMSUwIwYDVQQDDBxT
UksyX3NoYTI1Nl8xMDI0XzY1NTM3X3YzX2NhMB4XDTE4MDMwNzE0MjUxMFoXDTI4
MDMwNDE0MjUxMFowKjEoMCYGA1UEAwwfSU1HMl8xX3NoYTI1Nl8xMDI0XzY1NTM3
X3YzX3VzcjCBnzANBgkqhkiG9w0BAQEFAAOBjQAwgYkCgYEAyQBpxakqvN0mJeWO
mC5axRnEikk43gclkJv/PyvP1PGSE7voBTrydN/MnmTUKiTOQlym8JiwwvKsbMSo
p97qw1Lr33MfzpqMEDIjQGfDZmePJwAAdJ8McabfyxWnqfsz3ioKnTK0c6+WGi+3
aSgREedyZOb1tA+nORl7/UH1m+MCAwEAAaN7MHkwCQYDVR0TBAIwADAsBglghkgB
hvhCAQ0EHxYdT3BlblNTTCBHZW5lcmF0ZWQgQ2VydGlmaWNhdGUwHQYDVR0OBBYE
FDkUSfLHzwxhTEms35eEIfgN11wLMB8GA1UdIwQYMBaAFBWujz5M4Te6z7Ar9q9y
0wHmCqDSMA0GCSqGSIb3DQEBCwUAA4GBAE7BV8XbeI/P+nxAXyAvzKC0s3bwB9Bl
CkuelUtPkls8rO3i/VovJweGM/EjJyeiRb56JOKJ8e3lzWYJPso8Q3WO8L5B7oiw
jgxjlqjM9+3O3oOmD7V7Ue6b+2eLQBrfEK5o1SPTGQAriZVBzUvqAc0we+VgDmFg
+nKNc/3ST8gz
-----END CERTIFICATE-----
