Certificate:
    Data:
        Version: 3 (0x2)
        Serial Number: 268435477 (0x10000015)
    Signature Algorithm: sha256WithRSAEncryption
        Issuer: CN=CA1_sha256_2048_65537_v3_ca
        Validity
            Not Before: Mar  1 15:26:21 2018 GMT
            Not After : Feb 27 15:26:21 2028 GMT
        Subject: CN=SRK4_sha256_2048_65537_v3_ca
        Subject Public Key Info:
            Public Key Algorithm: rsaEncryption
                Public-Key: (2048 bit)
                Modulus:
                    00:ae:6d:6d:2c:4c:65:cf:80:98:06:95:cd:55:52:
                    1c:00:d9:a4:16:a8:d5:01:72:51:16:54:61:30:44:
                    c0:43:ba:88:09:cf:41:a3:11:9a:66:a8:8f:fb:90:
                    e4:50:99:6d:0f:04:79:5f:e4:e2:16:00:86:04:f8:
                    a0:7d:6a:02:23:dd:d8:60:1d:3a:ef:a8:2e:9c:df:
                    01:74:ea:25:44:cc:9a:cb:68:53:d0:fc:b0:55:4a:
                    41:7a:f7:d7:c5:bc:3d:6f:c2:1d:b0:5d:1e:33:78:
                    d8:8e:e9:45:fd:5f:bd:f1:83:dd:d9:a1:dc:36:7e:
                    9e:f3:8f:e0:af:3f:c3:96:83:61:7b:35:23:10:1e:
                    4a:9c:78:f5:f7:40:a9:e7:f1:c3:4c:b4:e8:05:4f:
                    1c:f5:09:01:e3:b9:ef:05:78:9e:ef:53:c1:c8:41:
                    a0:88:fc:30:54:fd:6f:b3:41:58:53:d0:13:88:cb:
                    32:4b:f0:55:d8:3c:4b:d5:f6:d2:12:c2:72:35:b7:
                    9a:ac:e9:ec:e4:83:2c:f7:88:1c:a8:db:47:3d:4d:
                    16:95:99:1e:b8:63:08:a6:75:d9:df:24:db:2f:bb:
                    32:49:46:a7:26:82:d9:d1:ba:fc:3f:bd:4d:f4:d0:
                    8e:cf:45:0f:49:ef:16:1d:d2:bf:14:4d:7e:ba:cd:
                    fd:07
                Exponent: 65537 (0x10001)
        X509v3 extensions:
            X509v3 Subject Key Identifier: 
                65:7B:07:D7:C5:41:69:BB:0C:E7:58:87:EB:1E:34:11:1F:E6:28:4D
            X509v3 Authority Key Identifier: 
                keyid:9F:2D:1A:CC:B2:E8:04:6C:CE:3A:CA:69:29:2F:35:E5:AB:08:08:EE
                DirName:/CN=CA1_sha256_2048_65537_v3_ca
                serial:CF:E0:8C:DB:9F:2F:21:BF

            X509v3 Basic Constraints: critical
                CA:TRUE
            X509v3 Key Usage: 
                Certificate Sign
    Signature Algorithm: sha256WithRSAEncryption
         44:28:94:15:6f:69:f2:9a:d7:e5:31:60:73:7c:bc:38:51:e6:
         0d:0b:d1:1b:0c:0f:99:3d:db:e7:a9:de:28:f5:82:cd:9c:83:
         7c:70:e2:ba:d3:5c:13:39:72:e6:65:0b:b9:a4:98:2e:d8:23:
         3a:cf:94:0d:84:99:d0:d8:a0:36:9a:06:98:f2:8c:a5:1b:05:
         b6:69:ad:fb:87:c1:fc:15:c4:f4:40:39:fa:7b:b8:2f:31:67:
         aa:57:a3:08:f1:53:ae:60:07:ce:4a:86:f7:52:3f:0b:76:d4:
         58:58:25:6a:21:2f:61:31:96:62:8e:6b:c8:6e:70:d2:4d:45:
         ab:5e:99:76:7a:8d:06:97:fe:ef:a8:49:0e:2c:25:c0:e7:0a:
         ca:f2:a0:cb:7b:42:08:ce:b3:36:65:a8:3b:d5:54:ed:3c:0e:
         45:d3:1a:4b:d3:ec:5d:bb:bc:a4:78:ab:6e:af:1c:b2:b3:10:
         eb:41:e5:59:54:b0:dc:c8:fb:cb:30:55:f8:07:a8:bf:76:42:
         11:4f:53:19:83:e3:b0:8f:55:68:fe:5e:c8:fb:9e:04:14:bf:
         98:4f:44:d4:ba:97:e2:e0:05:96:19:ab:48:3b:09:fd:1b:de:
         67:af:ed:86:4c:a5:d2:f0:93:37:9b:98:f8:2a:ea:4f:78:9f:
         e1:5c:c0:48
-----BEGIN CERTIFICATE-----
MIIDZDCCAkygAwIBAgIEEAAAFTANBgkqhkiG9w0BAQsFADAmMSQwIgYDVQQDFBtD
QTFfc2hhMjU2XzIwNDhfNjU1MzdfdjNfY2EwHhcNMTgwMzAxMTUyNjIxWhcNMjgw
MjI3MTUyNjIxWjAnMSUwIwYDVQQDDBxTUks0X3NoYTI1Nl8yMDQ4XzY1NTM3X3Yz
X2NhMIIBIjANBgkqhkiG9w0BAQEFAAOCAQ8AMIIBCgKCAQEArm1tLExlz4CYBpXN
VVIcANmkFqjVAXJRFlRhMETAQ7qICc9BoxGaZqiP+5DkUJltDwR5X+TiFgCGBPig
fWoCI93YYB0676gunN8BdOolRMyay2hT0PywVUpBevfXxbw9b8IdsF0eM3jYjulF
/V+98YPd2aHcNn6e84/grz/DloNhezUjEB5KnHj190Cp5/HDTLToBU8c9QkB47nv
BXie71PByEGgiPwwVP1vs0FYU9ATiMsyS/BV2DxL1fbSEsJyNbearOns5IMs94gc
qNtHPU0WlZkeuGMIpnXZ3yTbL7sySUanJoLZ0br8P71N9NCOz0UPSe8WHdK/FE1+
us39BwIDAQABo4GYMIGVMB0GA1UdDgQWBBRlewfXxUFpuwznWIfrHjQRH+YoTTBW
BgNVHSMETzBNgBSfLRrMsugEbM46ymkpLzXlqwgI7qEqpCgwJjEkMCIGA1UEAxQb
Q0ExX3NoYTI1Nl8yMDQ4XzY1NTM3X3YzX2NhggkAz+CM258vIb8wDwYDVR0TAQH/
BAUwAwEB/zALBgNVHQ8EBAMCAgQwDQYJKoZIhvcNAQELBQADggEBAEQolBVvafKa
1+UxYHN8vDhR5g0L0RsMD5k92+ep3ij1gs2cg3xw4rrTXBM5cuZlC7mkmC7YIzrP
lA2EmdDYoDaaBpjyjKUbBbZprfuHwfwVxPRAOfp7uC8xZ6pXowjxU65gB85KhvdS
Pwt21FhYJWohL2ExlmKOa8hucNJNRatemXZ6jQaX/u+oSQ4sJcDnCsryoMt7QgjO
szZlqDvVVO08DkXTGkvT7F27vKR4q26vHLKzEOtB5VlUsNzI+8swVfgHqL92QhFP
UxmD47CPVWj+Xsj7ngQUv5hPRNS6l+LgBZYZq0g7Cf0b3mev7YZMpdLwkzebmPgq
6k94n+FcwEg=
-----END CERTIFICATE-----
