Certificate:
    Data:
        Version: 3 (0x2)
        Serial Number: 268435490 (0x10000022)
    Signature Algorithm: sha256WithRSAEncryption
        Issuer: CN=SRK4_sha256_1024_65537_v3_ca
        Validity
            Not Before: Mar  7 14:25:11 2018 GMT
            Not After : Mar  4 14:25:11 2028 GMT
        Subject: CN=CSF4_1_sha256_1024_65537_v3_usr
        Subject Public Key Info:
            Public Key Algorithm: rsaEncryption
                Public-Key: (1024 bit)
                Modulus:
                    00:e4:01:f6:cf:5a:af:cf:8e:86:32:88:d3:b7:23:
                    cb:ed:21:ed:d8:71:ef:11:f0:63:75:4c:10:88:cc:
                    cb:d3:2f:28:f8:3d:67:c3:9e:39:c5:16:b3:70:57:
                    b1:a3:d8:d1:4a:06:48:af:5a:a0:85:4f:ea:a8:d3:
                    5d:c0:2f:61:b1:55:31:f9:45:3d:38:7e:4a:28:b6:
                    30:d7:a3:7f:d1:ed:8b:f5:8e:26:e0:93:b6:c0:b1:
                    e8:53:35:df:a4:11:1d:d4:68:67:9d:a3:06:be:ec:
                    77:3c:dc:e1:fc:fe:46:d3:f9:dd:22:91:0e:ca:82:
                    af:06:de:ea:29:ca:8c:0c:65
                Exponent: 65537 (0x10001)
        X509v3 extensions:
            X509v3 Basic Constraints: 
                CA:FALSE
            Netscape Comment: 
                OpenSSL Generated Certificate
            X509v3 Subject Key Identifier: 
                8C:4B:04:65:65:A8:CA:D6:42:13:32:C6:8A:A8:A6:41:DA:0B:B8:C8
            X509v3 Authority Key Identifier: 
                keyid:5A:32:8B:72:75:21:6E:6A:81:6B:8D:8F:1A:46:F8:E8:EA:A7:E8:8D

    Signature Algorithm: sha256WithRSAEncryption
         62:41:fe:13:64:1c:06:58:ba:68:04:a0:05:dd:2b:63:90:94:
         7e:85:ac:d9:55:63:1e:7d:4c:c7:f1:06:15:de:9a:5f:9d:7f:
         7a:95:df:10:ea:56:ac:b2:41:81:93:f3:a5:d1:e4:7a:13:a5:
         b0:36:9a:1e:18:c2:f2:91:96:85:88:ac:ba:20:f4:81:ac:81:
         e0:ad:f7:e4:e3:13:61:5b:a3:3f:a1:33:2b:ec:90:47:8c:cc:
         2e:f0:00:46:97:ee:90:5f:6a:1f:4b:fd:e5:67:96:bf:a9:1d:
         b7:6f:c7:59:d5:8c:ae:e4:9d:ee:f4:60:9d:2e:84:92:cd:55:
         fc:74
-----BEGIN CERTIFICATE-----
MIICRTCCAa6gAwIBAgIEEAAAIjANBgkqhkiG9w0BAQsFADAnMSUwIwYDVQQDDBxT
Uks0X3NoYTI1Nl8xMDI0XzY1NTM3X3YzX2NhMB4XDTE4MDMwNzE0MjUxMVoXDTI4
MDMwNDE0MjUxMVowKjEoMCYGA1UEAwwfQ1NGNF8xX3NoYTI1Nl8xMDI0XzY1NTM3
X3YzX3VzcjCBnzANBgkqhkiG9w0BAQEFAAOBjQAwgYkCgYEA5AH2z1qvz46GMojT
tyPL7SHt2HHvEfBjdUwQiMzL0y8o+D1nw545xRazcFexo9jRSgZIr1qghU/qqNNd
wC9hsVUx+UU9OH5KKLYw16N/0e2L9Y4m4JO2wLHoUzXfpBEd1GhnnaMGvux3PNzh
/P5G0/ndIpEOyoKvBt7qKcqMDGUCAwEAAaN7MHkwCQYDVR0TBAIwADAsBglghkgB
hvhCAQ0EHxYdT3BlblNTTCBHZW5lcmF0ZWQgQ2VydGlmaWNhdGUwHQYDVR0OBBYE
FIxLBGVlqMrWQhMyxoqopkHaC7jIMB8GA1UdIwQYMBaAFFoyi3J1IW5qgWuNjxpG
+Ojqp+iNMA0GCSqGSIb3DQEBCwUAA4GBAGJB/hNkHAZYumgEoAXdK2OQlH6FrNlV
Yx59TMfxBhXeml+df3qV3xDqVqyyQYGT86XR5HoTpbA2mh4YwvKRloWIrLog9IGs
geCt9+TjE2Fboz+hMyvskEeMzC7wAEaX7pBfah9L/eVnlr+pHbdvx1nVjK7kne70
YJ0uhJLNVfx0
-----END CERTIFICATE-----
