Certificate:
    Data:
        Version: 3 (0x2)
        Serial Number: 268435491 (0x10000023)
    Signature Algorithm: sha256WithRSAEncryption
        Issuer: CN=SRK4_sha256_1024_65537_v3_ca
        Validity
            Not Before: Mar  7 14:25:11 2018 GMT
            Not After : Mar  4 14:25:11 2028 GMT
        Subject: CN=IMG4_1_sha256_1024_65537_v3_usr
        Subject Public Key Info:
            Public Key Algorithm: rsaEncryption
                Public-Key: (1024 bit)
                Modulus:
                    00:99:d9:dd:d6:2c:42:4e:22:b8:f0:53:b1:01:94:
                    2c:51:c0:14:91:1c:4c:ba:3f:54:ae:6d:d3:ca:27:
                    b4:64:de:99:35:a2:77:02:32:44:11:3b:5d:02:ce:
                    7c:23:67:26:52:ef:1f:75:4d:b2:40:e0:af:fe:f9:
                    a3:7a:d3:2d:eb:25:68:99:41:56:aa:14:e3:11:94:
                    fd:a8:41:28:e2:bb:24:4c:83:55:93:28:cb:ab:38:
                    39:d2:e5:4a:6a:27:d1:95:6c:22:35:52:bb:76:30:
                    61:51:50:39:39:67:c2:2f:4e:7f:f7:45:bb:79:69:
                    78:0a:ab:6d:33:32:bc:95:c3
                Exponent: 65537 (0x10001)
        X509v3 extensions:
            X509v3 Basic Constraints: 
                CA:FALSE
            Netscape Comment: 
                OpenSSL Generated Certificate
            X509v3 Subject Key Identifier: 
                60:7A:FF:70:32:AF:60:BE:FE:F0:0A:76:71:BD:DE:26:80:0E:C1:DA
            X509v3 Authority Key Identifier: 
                keyid:5A:32:8B:72:75:21:6E:6A:81:6B:8D:8F:1A:46:F8:E8:EA:A7:E8:8D

    Signature Algorithm: sha256WithRSAEncryption
         22:fe:ad:65:88:90:6f:82:0c:90:54:59:c1:47:82:4a:81:9c:
         42:8f:eb:f9:42:b4:31:1d:05:20:d1:2d:5b:d1:e1:ad:30:34:
         87:d7:01:25:f6:bf:53:3a:38:e8:f1:92:88:66:63:de:ce:58:
         bc:23:50:9c:06:b7:ed:69:87:3c:86:ab:96:25:5d:95:7b:7b:
         01:87:b3:d9:b7:73:3e:3d:b8:21:85:26:81:81:e0:90:ea:74:
         b5:e0:3e:1b:99:d5:4d:4b:51:09:88:4d:be:65:dc:af:51:65:
         1d:74:c4:31:1c:fb:91:dd:93:76:f6:71:af:ac:6b:97:21:bd:
         eb:f1
-----BEGIN CERTIFICATE-----
MIICRTCCAa6gAwIBAgIEEAAAIzANBgkqhkiG9w0BAQsFADAnMSUwIwYDVQQDDBxT
Uks0X3NoYTI1Nl8xMDI0XzY1NTM3X3YzX2NhMB4XDTE4MDMwNzE0MjUxMVoXDTI4
MDMwNDE0MjUxMVowKjEoMCYGA1UEAwwfSU1HNF8xX3NoYTI1Nl8xMDI0XzY1NTM3
X3YzX3VzcjCBnzANBgkqhkiG9w0BAQEFAAOBjQAwgYkCgYEAmdnd1ixCTiK48FOx
AZQsUcAUkRxMuj9Urm3Tyie0ZN6ZNaJ3AjJEETtdAs58I2cmUu8fdU2yQOCv/vmj
etMt6yVomUFWqhTjEZT9qEEo4rskTINVkyjLqzg50uVKaifRlWwiNVK7djBhUVA5
OWfCL05/90W7eWl4CqttMzK8lcMCAwEAAaN7MHkwCQYDVR0TBAIwADAsBglghkgB
hvhCAQ0EHxYdT3BlblNTTCBHZW5lcmF0ZWQgQ2VydGlmaWNhdGUwHQYDVR0OBBYE
FGB6/3Ayr2C+/vAKdnG93iaADsHaMB8GA1UdIwQYMBaAFFoyi3J1IW5qgWuNjxpG
+Ojqp+iNMA0GCSqGSIb3DQEBCwUAA4GBACL+rWWIkG+CDJBUWcFHgkqBnEKP6/lC
tDEdBSDRLVvR4a0wNIfXASX2v1M6OOjxkohmY97OWLwjUJwGt+1phzyGq5YlXZV7
ewGHs9m3cz49uCGFJoGB4JDqdLXgPhuZ1U1LUQmITb5l3K9RZR10xDEc+5Hdk3b2
ca+sa5chvevx
-----END CERTIFICATE-----
