Certificate:
    Data:
        Version: 3 (0x2)
        Serial Number: 268435486 (0x1000001e)
    Signature Algorithm: sha256WithRSAEncryption
        Issuer: CN=CA1_sha256_1024_65537_v3_ca
        Validity
            Not Before: Mar  7 14:25:10 2018 GMT
            Not After : Mar  4 14:25:10 2028 GMT
        Subject: CN=SRK3_sha256_1024_65537_v3_ca
        Subject Public Key Info:
            Public Key Algorithm: rsaEncryption
                Public-Key: (1024 bit)
                Modulus:
                    00:cd:4c:4d:74:96:16:f3:34:29:94:31:cd:be:36:
                    28:40:e7:1a:be:36:92:b4:bb:01:72:b2:2d:e1:29:
                    2a:2c:d8:f6:1b:c5:4a:c6:00:e7:9e:4f:8d:c1:54:
                    bc:4c:f3:f2:85:f7:92:9b:6f:79:36:8d:ec:ab:09:
                    6a:b6:d6:94:a7:3a:bc:a6:6c:ef:47:79:44:b5:97:
                    08:98:21:d3:3e:be:ea:9c:03:02:c5:df:28:53:c0:
                    c4:c2:1c:e9:a3:7b:06:4f:61:d8:14:23:d3:f4:75:
                    49:a5:6c:07:bc:51:52:87:38:dc:82:fa:3c:b2:34:
                    72:cf:4c:ca:76:b2:dc:bb:dd
                Exponent: 65537 (0x10001)
        X509v3 extensions:
            X509v3 Subject Key Identifier: 
                7D:57:EB:0C:27:C7:C5:FF:0D:A0:7C:3D:32:59:DB:80:8F:01:4F:9D
            X509v3 Authority Key Identifier: 
                keyid:94:6A:86:56:18:97:62:01:3A:5A:7E:C3:E8:BB:BD:64:23:EC:E9:3F
                DirName:/CN=CA1_sha256_1024_65537_v3_ca
                serial:F0:B7:CA:EC:81:54:BB:A9

            X509v3 Basic Constraints: critical
                CA:TRUE
            X509v3 Key Usage: 
                Certificate Sign
    Signature Algorithm: sha256WithRSAEncryption
         86:ea:be:d9:e2:02:a4:c0:46:e3:72:6e:40:17:01:34:6c:c7:
         dc:dd:c6:57:94:a5:98:0b:13:bd:6d:d2:2a:13:bd:c9:34:ad:
         3b:a1:92:88:7b:73:8b:d4:7d:fe:cf:28:bd:cb:8d:4e:7b:36:
         16:b3:c3:53:7a:8f:18:3f:38:22:bb:24:0a:ae:1c:cd:3a:60:
         8c:0e:a4:f7:45:71:93:fc:5c:ff:fd:23:e1:1e:89:59:b0:78:
         2f:47:f4:35:46:e4:98:cb:30:d4:60:4d:d0:be:b3:32:1a:fa:
         da:1a:15:39:80:50:5b:60:53:9f:20:98:33:7f:ac:fc:30:6a:
         54:46
-----BEGIN CERTIFICATE-----
MIICXzCCAcigAwIBAgIEEAAAHjANBgkqhkiG9w0BAQsFADAmMSQwIgYDVQQDFBtD
QTFfc2hhMjU2XzEwMjRfNjU1MzdfdjNfY2EwHhcNMTgwMzA3MTQyNTEwWhcNMjgw
MzA0MTQyNTEwWjAnMSUwIwYDVQQDDBxTUkszX3NoYTI1Nl8xMDI0XzY1NTM3X3Yz
X2NhMIGfMA0GCSqGSIb3DQEBAQUAA4GNADCBiQKBgQDNTE10lhbzNCmUMc2+NihA
5xq+NpK0uwFysi3hKSos2PYbxUrGAOeeT43BVLxM8/KF95Kbb3k2jeyrCWq21pSn
OrymbO9HeUS1lwiYIdM+vuqcAwLF3yhTwMTCHOmjewZPYdgUI9P0dUmlbAe8UVKH
ONyC+jyyNHLPTMp2sty73QIDAQABo4GYMIGVMB0GA1UdDgQWBBR9V+sMJ8fF/w2g
fD0yWduAjwFPnTBWBgNVHSMETzBNgBSUaoZWGJdiATpafsPou71kI+zpP6EqpCgw
JjEkMCIGA1UEAxQbQ0ExX3NoYTI1Nl8xMDI0XzY1NTM3X3YzX2NhggkA8LfK7IFU
u6kwDwYDVR0TAQH/BAUwAwEB/zALBgNVHQ8EBAMCAgQwDQYJKoZIhvcNAQELBQAD
gYEAhuq+2eICpMBG43JuQBcBNGzH3N3GV5SlmAsTvW3SKhO9yTStO6GSiHtzi9R9
/s8ovcuNTns2FrPDU3qPGD84IrskCq4czTpgjA6k90Vxk/xc//0j4R6JWbB4L0f0
NUbkmMsw1GBN0L6zMhr62hoVOYBQW2BTnyCYM3+s/DBqVEY=
-----END CERTIFICATE-----
