Certificate:
    Data:
        Version: 3 (0x2)
        Serial Number: 268435457 (0x10000001)
    Signature Algorithm: sha256WithRSAEncryption
        Issuer: CN=SRK1_sha256_4096_65537_v3_ca
        Validity
            Not Before: Feb 21 14:24:42 2018 GMT
            Not After : Feb 19 14:24:42 2028 GMT
        Subject: CN=CSF1_1_sha256_4096_65537_v3_usr
        Subject Public Key Info:
            Public Key Algorithm: rsaEncryption
                Public-Key: (4096 bit)
                Modulus:
                    00:b9:30:02:de:9e:75:e0:7c:85:74:f1:be:b7:9c:
                    dc:2b:26:29:ea:ca:7e:90:32:d4:33:d1:63:92:c9:
                    29:a6:e6:87:25:3f:0d:51:16:3b:0a:3c:bd:b9:d0:
                    8f:33:f1:09:94:1a:a3:58:cb:a5:71:a6:cd:8c:c8:
                    49:17:3c:22:33:85:62:ae:4f:e5:20:db:87:44:6f:
                    f9:8a:d6:c1:ee:79:13:c3:a4:e8:a3:f9:76:2a:ea:
                    88:c9:40:25:f7:5f:b4:04:ed:88:b9:dd:e3:99:ad:
                    fc:fb:b2:0b:4d:06:fa:0c:cf:9a:ab:75:0e:30:87:
                    fb:58:e2:68:95:a4:f7:4c:92:1a:29:b2:bb:26:67:
                    30:40:2d:40:7c:04:0e:53:89:a0:0e:7c:bc:8c:a3:
                    3f:fd:a0:47:44:54:7c:b2:dd:e8:3b:e7:21:85:f7:
                    19:0a:6a:69:9b:49:74:06:09:6d:70:54:f8:cd:1e:
                    3a:93:8c:d7:19:69:e9:fe:29:39:a7:61:09:68:5c:
                    59:39:4d:41:64:bc:91:c3:0b:b3:0b:ae:b3:c2:dc:
                    24:09:95:6c:34:1d:c3:a3:92:c6:a1:27:de:3c:2b:
                    f4:d5:c6:b9:d9:bc:f3:5e:b7:e3:12:59:25:c5:9a:
                    48:1d:7e:5b:f8:96:a4:2a:b0:c4:03:ba:f3:20:37:
                    ad:43:4a:08:ad:b6:4f:7f:f0:36:15:b7:4a:3d:0c:
                    5f:85:6f:98:39:b5:94:88:49:fa:d8:73:99:cb:0f:
                    2f:93:02:e4:36:28:f1:8e:dc:25:c8:7a:fd:90:3d:
                    a5:90:bc:46:4f:f9:4c:2e:3e:e0:90:f9:2a:1f:c2:
                    b0:1d:dc:c7:6a:41:47:ff:a9:f7:71:7b:43:1a:b3:
                    fa:e1:41:cb:0f:86:16:25:88:ae:2a:2d:13:9f:26:
                    f1:66:50:49:34:35:ac:62:07:cc:32:38:e8:08:bc:
                    6a:92:8e:94:ec:8e:a3:20:1a:b5:30:4c:bc:5d:de:
                    39:82:bf:8d:be:69:dc:d4:51:e3:f6:79:20:0e:f6:
                    7d:f4:23:2a:f4:fa:0c:3e:a2:e8:0a:4a:50:3f:15:
                    b3:b2:a0:01:db:06:f3:7e:46:dd:94:18:bf:7d:68:
                    0a:0d:c7:dd:6c:07:e0:40:0f:ea:76:bf:25:b4:e8:
                    54:b8:2e:df:91:29:e5:a7:79:4f:31:b3:e5:fd:6b:
                    4d:b7:81:14:36:61:56:fe:43:88:89:fd:20:6b:2d:
                    48:fa:9e:a1:2b:ff:01:8e:fb:a1:82:a5:8b:22:13:
                    16:20:2a:6b:9e:99:21:5d:01:d3:b3:f5:13:9a:50:
                    b3:0f:10:3b:4b:19:22:3e:e9:01:fa:d6:5b:26:73:
                    6b:c0:01
                Exponent: 65537 (0x10001)
        X509v3 extensions:
            X509v3 Basic Constraints: 
                CA:FALSE
            Netscape Comment: 
                OpenSSL Generated Certificate
            X509v3 Subject Key Identifier: 
                CE:A1:05:C9:7F:89:76:11:51:F1:5B:B6:DC:4A:52:91:ED:13:C1:70
            X509v3 Authority Key Identifier: 
                keyid:8D:86:5C:54:6E:93:0B:C1:54:83:74:17:CC:F3:68:17:84:8B:D2:CF

    Signature Algorithm: sha256WithRSAEncryption
         85:11:cf:38:ee:eb:3b:8b:2b:73:32:c7:11:db:73:1a:6b:5b:
         00:c0:db:2d:14:64:94:30:b2:d9:1b:21:dc:ea:b2:cf:e6:b4:
         ff:2c:e0:ff:df:e2:e1:90:9e:a8:29:7f:a9:17:24:b8:bb:a0:
         b5:b9:71:47:d1:13:c4:94:8b:0b:b5:70:f7:bf:5b:42:f9:15:
         94:ad:95:61:1f:e3:84:c7:ee:5a:ec:3e:b6:91:1d:fc:5c:87:
         d2:a1:4f:f7:82:e6:bf:09:90:eb:88:af:58:04:9f:39:92:68:
         40:0d:64:f4:50:06:58:ab:b1:44:d1:8c:57:e8:d7:62:1b:25:
         8f:48:60:3e:b9:24:25:84:56:53:54:1a:10:51:0a:36:40:f6:
         0b:e5:3d:c9:4c:08:54:b6:5c:21:95:d2:a1:d0:ec:27:2f:ae:
         83:e0:17:61:05:1b:1b:6f:41:ed:19:9c:0e:51:7e:e0:9c:92:
         5e:d9:9c:be:c0:6b:0d:3d:c7:83:ed:c0:9b:b6:b1:c6:f0:28:
         62:71:3f:88:bd:6d:d1:92:d6:3d:de:8d:da:39:75:66:0a:1e:
         90:3e:af:1f:12:4d:7d:74:04:45:f7:c2:c4:b5:65:0c:1c:f9:
         30:cf:5a:39:c8:4e:3e:44:96:59:4e:02:ec:f9:93:be:07:cb:
         aa:83:e1:ac:3c:9b:88:68:04:0a:e3:31:0b:7a:1b:b5:21:2f:
         3b:94:7e:b3:3d:0c:d0:dd:e3:06:67:65:5f:9f:68:3e:91:69:
         51:c2:28:4b:e9:f4:7f:16:87:69:f0:52:53:95:62:b8:24:59:
         84:92:d4:99:71:24:d4:02:f6:c2:bc:f0:b2:c8:60:f4:66:47:
         f1:bc:ec:d9:cd:6f:b8:86:de:37:ef:32:46:35:e8:8d:2c:cc:
         c8:fe:8d:1c:fc:11:e0:0f:90:1c:e4:0c:69:58:20:01:54:e1:
         a2:e2:5e:c9:ca:ac:94:87:2f:bb:f7:2d:f8:49:2e:f1:1d:12:
         87:58:bd:32:8c:19:b9:e7:7b:6c:5b:b8:61:9f:f0:29:ba:df:
         93:53:71:9e:a0:d6:66:23:f1:93:df:b0:94:6c:24:3b:9e:67:
         24:4b:0d:46:93:e6:0d:32:19:6a:b4:12:69:8f:e5:1a:59:4d:
         aa:7e:a4:94:b5:b2:a1:98:1d:26:0f:a7:04:6b:c8:23:4b:9f:
         c6:e2:82:28:be:bb:ce:a0:ed:7d:f4:c8:1b:84:d8:2f:fc:2b:
         d4:12:9c:b0:3d:da:04:78:5e:27:77:d1:dd:f1:ca:1a:7b:af:
         3c:5c:50:6e:93:66:14:8e:13:40:f5:4d:36:f2:17:65:92:00:
         8d:b8:59:4b:03:22:8f:a1
-----BEGIN CERTIFICATE-----
MIIFSjCCAzKgAwIBAgIEEAAAATANBgkqhkiG9w0BAQsFADAnMSUwIwYDVQQDDBxT
UksxX3NoYTI1Nl80MDk2XzY1NTM3X3YzX2NhMB4XDTE4MDIyMTE0MjQ0MloXDTI4
MDIxOTE0MjQ0MlowKjEoMCYGA1UEAwwfQ1NGMV8xX3NoYTI1Nl80MDk2XzY1NTM3
X3YzX3VzcjCCAiIwDQYJKoZIhvcNAQEBBQADggIPADCCAgoCggIBALkwAt6edeB8
hXTxvrec3CsmKerKfpAy1DPRY5LJKabmhyU/DVEWOwo8vbnQjzPxCZQao1jLpXGm
zYzISRc8IjOFYq5P5SDbh0Rv+YrWwe55E8Ok6KP5dirqiMlAJfdftATtiLnd45mt
/PuyC00G+gzPmqt1DjCH+1jiaJWk90ySGimyuyZnMEAtQHwEDlOJoA58vIyjP/2g
R0RUfLLd6DvnIYX3GQpqaZtJdAYJbXBU+M0eOpOM1xlp6f4pOadhCWhcWTlNQWS8
kcMLswuus8LcJAmVbDQdw6OSxqEn3jwr9NXGudm881634xJZJcWaSB1+W/iWpCqw
xAO68yA3rUNKCK22T3/wNhW3Sj0MX4VvmDm1lIhJ+thzmcsPL5MC5DYo8Y7cJch6
/ZA9pZC8Rk/5TC4+4JD5Kh/CsB3cx2pBR/+p93F7Qxqz+uFByw+GFiWIriotE58m
8WZQSTQ1rGIHzDI46Ai8apKOlOyOoyAatTBMvF3eOYK/jb5p3NRR4/Z5IA72ffQj
KvT6DD6i6ApKUD8Vs7KgAdsG835G3ZQYv31oCg3H3WwH4EAP6na/JbToVLgu35Ep
5ad5TzGz5f1rTbeBFDZhVv5DiIn9IGstSPqeoSv/AY77oYKliyITFiAqa56ZIV0B
07P1E5pQsw8QO0sZIj7pAfrWWyZza8ABAgMBAAGjezB5MAkGA1UdEwQCMAAwLAYJ
YIZIAYb4QgENBB8WHU9wZW5TU0wgR2VuZXJhdGVkIENlcnRpZmljYXRlMB0GA1Ud
DgQWBBTOoQXJf4l2EVHxW7bcSlKR7RPBcDAfBgNVHSMEGDAWgBSNhlxUbpMLwVSD
dBfM82gXhIvSzzANBgkqhkiG9w0BAQsFAAOCAgEAhRHPOO7rO4srczLHEdtzGmtb
AMDbLRRklDCy2Rsh3Oqyz+a0/yzg/9/i4ZCeqCl/qRckuLugtblxR9ETxJSLC7Vw
979bQvkVlK2VYR/jhMfuWuw+tpEd/FyH0qFP94LmvwmQ64ivWASfOZJoQA1k9FAG
WKuxRNGMV+jXYhslj0hgPrkkJYRWU1QaEFEKNkD2C+U9yUwIVLZcIZXSodDsJy+u
g+AXYQUbG29B7RmcDlF+4JySXtmcvsBrDT3Hg+3Am7axxvAoYnE/iL1t0ZLWPd6N
2jl1ZgoekD6vHxJNfXQERffCxLVlDBz5MM9aOchOPkSWWU4C7PmTvgfLqoPhrDyb
iGgECuMxC3obtSEvO5R+sz0M0N3jBmdlX59oPpFpUcIoS+n0fxaHafBSU5ViuCRZ
hJLUmXEk1AL2wrzwsshg9GZH8bzs2c1vuIbeN+8yRjXojSzMyP6NHPwR4A+QHOQM
aVggAVThouJeycqslIcvu/ct+Eku8R0Sh1i9MowZued7bFu4YZ/wKbrfk1NxnqDW
ZiPxk9+wlGwkO55nJEsNRpPmDTIZarQSaY/lGllNqn6klLWyoZgdJg+nBGvII0uf
xuKCKL67zqDtffTIG4TYL/wr1BKcsD3aBHheJ3fR3fHKGnuvPFxQbpNmFI4TQPVN
NvIXZZIAjbhZSwMij6E=
-----END CERTIFICATE-----
