Certificate:
    Data:
        Version: 3 (0x2)
        Serial Number: 268435463 (0x10000007)
    Signature Algorithm: sha256WithRSAEncryption
        Issuer: CN=SRK3_sha256_4096_65537_v3_ca
        Validity
            Not Before: Feb 21 14:24:47 2018 GMT
            Not After : Feb 19 14:24:47 2028 GMT
        Subject: CN=CSF3_1_sha256_4096_65537_v3_usr
        Subject Public Key Info:
            Public Key Algorithm: rsaEncryption
                Public-Key: (4096 bit)
                Modulus:
                    00:a1:9a:c8:7a:a8:ab:ae:10:32:7a:4f:73:95:4b:
                    12:49:88:73:15:54:47:9d:36:6b:4c:c5:4b:fe:ca:
                    4a:50:c3:36:40:b2:d0:28:e8:55:4a:0b:cf:cc:d7:
                    1b:4b:55:fb:2f:93:17:19:f4:da:32:71:2c:bc:b2:
                    df:7e:82:bb:bb:c5:33:13:df:ee:0a:15:2e:f3:d2:
                    16:d9:36:6d:c9:51:bc:87:ff:f4:f9:0d:ea:fc:a8:
                    5d:b0:20:c0:50:93:8f:02:31:68:55:a3:5c:39:3e:
                    77:2b:6c:7c:5c:7f:2a:ce:ac:3e:53:83:81:ad:fb:
                    d6:61:6d:bf:d3:b6:4f:30:40:a5:04:a3:52:41:7b:
                    9a:83:34:d1:7b:79:72:e0:8f:c4:8f:75:2b:4e:b4:
                    3c:64:ed:41:3f:a4:d8:c4:b5:10:db:fd:b4:f5:aa:
                    da:88:10:51:72:27:46:4b:4b:68:07:f4:c9:a7:a9:
                    e3:d9:3c:cd:8e:25:bf:97:52:b0:9b:d7:e8:6e:b4:
                    22:81:0f:b3:01:17:b8:db:95:97:ff:55:2c:65:74:
                    fe:ee:4c:35:ce:57:f8:ff:05:92:64:6b:ac:74:70:
                    fc:fc:67:3b:87:1e:c7:53:62:1b:a9:7c:f9:10:78:
                    ac:c7:59:b7:47:37:95:2a:a3:f1:c9:ec:d1:a9:74:
                    44:a7:c6:d2:18:60:e5:3f:20:97:ba:ba:65:6a:e3:
                    0d:dc:de:ec:35:61:81:f8:79:71:eb:6e:54:38:0e:
                    bf:f5:37:6c:11:ed:f6:ba:d8:08:57:71:e4:75:86:
                    2d:b7:86:a6:a8:bd:d0:93:69:6b:e0:6d:37:f1:fc:
                    1b:79:59:b6:ef:fc:27:a6:3c:b9:79:12:80:06:6a:
                    8f:15:dd:26:70:c9:83:1b:3e:09:29:d6:7e:52:bd:
                    60:81:fe:e6:7d:d2:2f:92:aa:47:93:98:ed:36:c8:
                    bb:53:9e:5d:7a:01:d1:75:78:db:c0:c3:b0:a1:fe:
                    87:75:7c:7c:73:00:6c:a5:e3:ba:e7:da:db:06:53:
                    2b:e0:2f:ac:ca:f3:61:ec:14:1f:c9:e1:e4:9c:80:
                    27:e5:e1:79:1e:c6:7e:30:08:9d:e4:10:c6:f5:41:
                    1f:1d:48:9f:1a:70:4e:cb:74:fb:b4:a1:47:98:87:
                    70:2b:99:13:14:50:d3:3a:a3:14:69:71:1a:af:16:
                    89:15:55:fa:ca:a7:d9:99:24:87:e3:8c:c6:de:f0:
                    e4:94:47:c0:a8:9a:6e:99:5e:7d:10:14:d1:8d:70:
                    7f:b7:51:c9:45:4a:ef:ca:61:b9:2c:cd:80:66:a4:
                    f3:41:76:e4:fc:4a:87:05:47:2f:21:ed:57:5c:e7:
                    9a:c6:b5
                Exponent: 65537 (0x10001)
        X509v3 extensions:
            X509v3 Basic Constraints: 
                CA:FALSE
            Netscape Comment: 
                OpenSSL Generated Certificate
            X509v3 Subject Key Identifier: 
                3D:56:59:83:26:76:FC:65:BC:5B:68:B1:F1:29:C3:71:2F:85:8F:83
            X509v3 Authority Key Identifier: 
                keyid:C9:2D:EC:D8:67:4D:78:56:16:2D:B5:DA:6F:85:E3:86:7F:DC:70:5B

    Signature Algorithm: sha256WithRSAEncryption
         76:58:0c:ba:e3:54:bd:73:d0:19:70:4b:8b:ee:75:a1:8e:3a:
         f2:c1:75:52:f3:5d:e0:0d:93:a9:2b:a9:d2:64:8d:25:4b:7c:
         7f:25:f2:98:e6:33:54:5f:33:58:f1:60:2b:e2:53:0c:08:96:
         3e:0b:bf:93:c7:f1:e8:65:71:5b:1d:d5:34:ed:6a:c6:ec:99:
         98:e9:b7:7c:42:7d:a4:6d:dc:e6:39:b7:92:37:5d:08:f5:8d:
         c8:34:2f:a6:c7:31:44:74:77:4d:39:1d:e0:85:52:b1:1a:e4:
         de:54:31:fc:6c:24:f1:6e:5d:da:11:fb:dd:aa:e6:f0:4b:4a:
         b8:ea:33:ac:b0:e3:61:39:1f:20:28:b2:e5:2c:06:bb:2a:8e:
         65:a2:e4:22:3a:0f:59:b2:cb:ee:f5:79:23:8d:b6:c9:b0:2b:
         62:04:bc:11:63:e4:d6:ba:8a:ac:a4:d6:67:07:05:f4:02:a0:
         87:c9:62:21:2d:7f:3c:9f:eb:89:70:8a:b4:6d:5c:65:b1:dc:
         2e:a6:8c:06:95:c1:5d:35:4a:dc:e9:c6:88:75:9a:58:fd:a8:
         57:ef:ca:75:5e:fc:36:b0:61:4d:e0:69:53:1e:db:d6:78:6e:
         cb:be:52:4b:81:c5:6d:be:3e:6c:f1:14:08:6a:58:e0:f3:9d:
         56:0a:34:26:e5:6e:51:99:9c:c9:ec:a6:2e:f8:b7:8f:a4:ed:
         65:89:3c:cc:16:ef:88:c4:64:53:e7:7c:2e:eb:41:e3:aa:aa:
         15:0c:3e:4e:39:ff:d1:1d:64:78:00:5f:58:25:82:50:42:d9:
         33:c6:46:f2:53:48:c7:e7:07:bb:32:0a:69:0e:67:8e:23:03:
         6f:d2:69:88:b5:06:d6:aa:5e:da:40:7f:23:b0:23:bb:09:8e:
         af:4b:a7:2e:31:82:d5:c5:dd:d9:cb:42:c0:39:ab:b3:7d:86:
         d3:d6:31:b6:99:93:d6:ef:9b:80:ff:92:46:dc:47:a5:cf:8c:
         56:9d:32:14:e8:81:7a:4b:16:bf:41:dd:de:cb:87:94:57:db:
         18:98:5b:3a:3f:68:20:51:95:48:06:26:81:b3:5d:1d:16:d0:
         b8:b6:e6:9b:26:27:51:a8:84:6e:7c:d3:48:b4:49:b5:36:62:
         3b:6e:cd:48:94:28:58:74:2c:60:7d:b7:58:a2:5d:a3:ac:eb:
         69:ad:b5:6a:b8:17:a9:23:52:21:9b:41:a5:0c:b1:b2:3e:8d:
         e1:25:18:cf:39:dc:32:69:d1:95:d6:f2:3f:55:1c:ee:66:e6:
         2e:ee:db:79:6b:95:6b:59:13:5c:73:7a:42:50:fc:ca:e9:29:
         c5:16:43:97:f2:6f:b0:cf
-----BEGIN CERTIFICATE-----
MIIFSjCCAzKgAwIBAgIEEAAABzANBgkqhkiG9w0BAQsFADAnMSUwIwYDVQQDDBxT
UkszX3NoYTI1Nl80MDk2XzY1NTM3X3YzX2NhMB4XDTE4MDIyMTE0MjQ0N1oXDTI4
MDIxOTE0MjQ0N1owKjEoMCYGA1UEAwwfQ1NGM18xX3NoYTI1Nl80MDk2XzY1NTM3
X3YzX3VzcjCCAiIwDQYJKoZIhvcNAQEBBQADggIPADCCAgoCggIBAKGayHqoq64Q
MnpPc5VLEkmIcxVUR502a0zFS/7KSlDDNkCy0CjoVUoLz8zXG0tV+y+TFxn02jJx
LLyy336Cu7vFMxPf7goVLvPSFtk2bclRvIf/9PkN6vyoXbAgwFCTjwIxaFWjXDk+
dytsfFx/Ks6sPlODga371mFtv9O2TzBApQSjUkF7moM00Xt5cuCPxI91K060PGTt
QT+k2MS1ENv9tPWq2ogQUXInRktLaAf0yaep49k8zY4lv5dSsJvX6G60IoEPswEX
uNuVl/9VLGV0/u5MNc5X+P8FkmRrrHRw/PxnO4cex1NiG6l8+RB4rMdZt0c3lSqj
8cns0al0RKfG0hhg5T8gl7q6ZWrjDdze7DVhgfh5cetuVDgOv/U3bBHt9rrYCFdx
5HWGLbeGpqi90JNpa+BtN/H8G3lZtu/8J6Y8uXkSgAZqjxXdJnDJgxs+CSnWflK9
YIH+5n3SL5KqR5OY7TbIu1OeXXoB0XV428DDsKH+h3V8fHMAbKXjuufa2wZTK+Av
rMrzYewUH8nh5JyAJ+XheR7GfjAIneQQxvVBHx1InxpwTst0+7ShR5iHcCuZExRQ
0zqjFGlxGq8WiRVV+sqn2Zkkh+OMxt7w5JRHwKiabplefRAU0Y1wf7dRyUVK78ph
uSzNgGak80F25PxKhwVHLyHtV1znmsa1AgMBAAGjezB5MAkGA1UdEwQCMAAwLAYJ
YIZIAYb4QgENBB8WHU9wZW5TU0wgR2VuZXJhdGVkIENlcnRpZmljYXRlMB0GA1Ud
DgQWBBQ9VlmDJnb8ZbxbaLHxKcNxL4WPgzAfBgNVHSMEGDAWgBTJLezYZ014VhYt
tdpvheOGf9xwWzANBgkqhkiG9w0BAQsFAAOCAgEAdlgMuuNUvXPQGXBLi+51oY46
8sF1UvNd4A2TqSup0mSNJUt8fyXymOYzVF8zWPFgK+JTDAiWPgu/k8fx6GVxWx3V
NO1qxuyZmOm3fEJ9pG3c5jm3kjddCPWNyDQvpscxRHR3TTkd4IVSsRrk3lQx/Gwk
8W5d2hH73arm8EtKuOozrLDjYTkfICiy5SwGuyqOZaLkIjoPWbLL7vV5I422ybAr
YgS8EWPk1rqKrKTWZwcF9AKgh8liIS1/PJ/riXCKtG1cZbHcLqaMBpXBXTVK3OnG
iHWaWP2oV+/KdV78NrBhTeBpUx7b1nhuy75SS4HFbb4+bPEUCGpY4POdVgo0JuVu
UZmcyeymLvi3j6TtZYk8zBbviMRkU+d8LutB46qqFQw+Tjn/0R1keABfWCWCUELZ
M8ZG8lNIx+cHuzIKaQ5njiMDb9JpiLUG1qpe2kB/I7AjuwmOr0unLjGC1cXd2ctC
wDmrs32G09YxtpmT1u+bgP+SRtxHpc+MVp0yFOiBeksWv0Hd3suHlFfbGJhbOj9o
IFGVSAYmgbNdHRbQuLbmmyYnUaiEbnzTSLRJtTZiO27NSJQoWHQsYH23WKJdo6zr
aa21argXqSNSIZtBpQyxsj6N4SUYzzncMmnRldbyP1Uc7mbmLu7beWuVa1kTXHN6
QlD8yukpxRZDl/JvsM8=
-----END CERTIFICATE-----
