Certificate:
    Data:
        Version: 3 (0x2)
        Serial Number: 268435487 (0x1000001f)
    Signature Algorithm: sha256WithRSAEncryption
        Issuer: CN=SRK3_sha256_1024_65537_v3_ca
        Validity
            Not Before: Mar  7 14:25:10 2018 GMT
            Not After : Mar  4 14:25:10 2028 GMT
        Subject: CN=CSF3_1_sha256_1024_65537_v3_usr
        Subject Public Key Info:
            Public Key Algorithm: rsaEncryption
                Public-Key: (1024 bit)
                Modulus:
                    00:e6:9b:3f:36:ec:55:1c:4f:58:42:e2:0d:fe:23:
                    1f:73:44:a8:af:16:de:c4:17:b3:9e:13:04:6e:36:
                    55:d4:6e:56:44:60:19:6e:8b:b9:83:5b:71:1f:d1:
                    f6:a4:b8:aa:c0:36:51:57:f0:77:ce:c9:4a:da:21:
                    f5:53:67:88:58:08:bf:51:11:5c:35:79:a3:05:72:
                    32:1a:b2:0d:74:4e:93:95:da:b0:e7:da:d7:8d:02:
                    70:e3:82:81:8c:87:cc:5c:32:da:c6:d8:4f:02:3a:
                    29:36:50:d6:3f:d8:98:17:9a:f3:4b:4e:ba:0f:5e:
                    0d:87:bb:b3:3c:3e:67:a3:75
                Exponent: 65537 (0x10001)
        X509v3 extensions:
            X509v3 Basic Constraints: 
                CA:FALSE
            Netscape Comment: 
                OpenSSL Generated Certificate
            X509v3 Subject Key Identifier: 
                97:40:EB:F2:74:4D:49:AE:67:26:04:B0:A6:BF:9E:97:44:82:58:19
            X509v3 Authority Key Identifier: 
                keyid:7D:57:EB:0C:27:C7:C5:FF:0D:A0:7C:3D:32:59:DB:80:8F:01:4F:9D

    Signature Algorithm: sha256WithRSAEncryption
         0d:c3:f8:15:02:16:8d:86:12:a6:87:3b:dd:d5:48:27:7f:c6:
         5b:58:ea:99:d5:7d:b5:35:58:5d:d2:17:e4:88:b2:ad:82:0b:
         8f:fc:80:d6:43:72:8c:d7:11:7e:2b:c7:2a:e4:be:cd:85:99:
         98:eb:b6:a3:1d:97:63:7c:5e:ee:f3:78:95:26:d1:ad:4f:68:
         20:53:56:96:64:61:3d:c5:ff:54:ca:02:07:83:e1:8b:1f:b5:
         cc:50:f1:4c:07:d2:4e:b7:b7:a6:5b:41:fc:15:d8:b2:18:7c:
         cd:77:65:b1:0d:f0:f6:fe:21:c0:bd:34:a6:e2:30:7d:3b:67:
         eb:ff
-----BEGIN CERTIFICATE-----
MIICRTCCAa6gAwIBAgIEEAAAHzANBgkqhkiG9w0BAQsFADAnMSUwIwYDVQQDDBxT
UkszX3NoYTI1Nl8xMDI0XzY1NTM3X3YzX2NhMB4XDTE4MDMwNzE0MjUxMFoXDTI4
MDMwNDE0MjUxMFowKjEoMCYGA1UEAwwfQ1NGM18xX3NoYTI1Nl8xMDI0XzY1NTM3
X3YzX3VzcjCBnzANBgkqhkiG9w0BAQEFAAOBjQAwgYkCgYEA5ps/NuxVHE9YQuIN
/iMfc0SorxbexBeznhMEbjZV1G5WRGAZbou5g1txH9H2pLiqwDZRV/B3zslK2iH1
U2eIWAi/URFcNXmjBXIyGrINdE6Tldqw59rXjQJw44KBjIfMXDLaxthPAjopNlDW
P9iYF5rzS066D14Nh7uzPD5no3UCAwEAAaN7MHkwCQYDVR0TBAIwADAsBglghkgB
hvhCAQ0EHxYdT3BlblNTTCBHZW5lcmF0ZWQgQ2VydGlmaWNhdGUwHQYDVR0OBBYE
FJdA6/J0TUmuZyYEsKa/npdEglgZMB8GA1UdIwQYMBaAFH1X6wwnx8X/DaB8PTJZ
24CPAU+dMA0GCSqGSIb3DQEBCwUAA4GBAA3D+BUCFo2GEqaHO93VSCd/xltY6pnV
fbU1WF3SF+SIsq2CC4/8gNZDcozXEX4rxyrkvs2FmZjrtqMdl2N8Xu7zeJUm0a1P
aCBTVpZkYT3F/1TKAgeD4YsftcxQ8UwH0k63t6ZbQfwV2LIYfM13ZbEN8Pb+IcC9
NKbiMH07Z+v/
-----END CERTIFICATE-----
