Certificate:
    Data:
        Version: 3 (0x2)
        Serial Number: 268435478 (0x10000016)
    Signature Algorithm: sha256WithRSAEncryption
        Issuer: CN=SRK4_sha256_2048_65537_v3_ca
        Validity
            Not Before: Mar  1 15:26:21 2018 GMT
            Not After : Feb 27 15:26:21 2028 GMT
        Subject: CN=CSF4_1_sha256_2048_65537_v3_usr
        Subject Public Key Info:
            Public Key Algorithm: rsaEncryption
                Public-Key: (2048 bit)
                Modulus:
                    00:bb:82:49:f9:e7:4c:4f:3d:9a:5a:df:9a:1d:ed:
                    ca:89:71:3f:d9:10:3c:27:ec:2a:2b:68:b1:18:ef:
                    ab:3f:a4:9f:12:75:b2:a3:c0:28:a6:ce:8b:3b:89:
                    ad:e3:e2:ee:10:13:1e:72:04:38:c1:0b:25:7c:55:
                    3e:2d:9f:30:0b:23:4b:61:2a:2d:85:b2:e6:54:31:
                    39:f8:78:a1:21:59:b7:6f:d6:00:76:05:d2:22:29:
                    6e:f7:16:d4:2d:a8:d8:ce:38:17:38:19:41:e0:42:
                    0c:e6:2c:ff:67:0c:42:8a:d6:2f:af:48:10:48:1a:
                    4a:3e:d3:fe:d8:ad:a3:16:3f:f6:23:81:85:f2:3a:
                    56:41:ea:1b:e4:0b:27:99:ff:2e:05:11:39:8e:4e:
                    ac:f1:af:1f:52:62:57:e1:4b:f3:f5:30:55:10:51:
                    86:69:59:9f:c8:76:6e:08:aa:5c:fa:22:ca:99:d0:
                    e9:6d:39:4f:f5:ea:14:1c:20:1a:f0:72:00:c3:89:
                    88:6c:97:a3:1f:4f:3a:d9:c5:98:61:55:d7:59:33:
                    c6:d3:58:15:09:cf:89:70:60:83:69:3a:21:8d:a8:
                    2e:73:5a:77:7e:34:6b:54:ec:80:17:e1:63:e4:f2:
                    f4:02:49:fe:5b:e4:36:71:24:2d:a3:2b:47:c4:c9:
                    80:db
                Exponent: 65537 (0x10001)
        X509v3 extensions:
            X509v3 Basic Constraints: 
                CA:FALSE
            Netscape Comment: 
                OpenSSL Generated Certificate
            X509v3 Subject Key Identifier: 
                18:EF:C0:06:BE:49:82:46:65:AC:0D:73:AE:0C:69:0D:AB:E1:F3:9E
            X509v3 Authority Key Identifier: 
                keyid:65:7B:07:D7:C5:41:69:BB:0C:E7:58:87:EB:1E:34:11:1F:E6:28:4D

    Signature Algorithm: sha256WithRSAEncryption
         42:db:39:5b:7c:c1:c9:38:e2:2a:c7:02:f6:ba:82:82:c5:f7:
         56:99:7d:44:92:10:db:c6:0c:6c:90:13:e2:fa:76:33:c4:82:
         55:f3:ab:e9:45:be:8a:d5:2c:31:bc:93:81:27:6e:78:4a:51:
         92:63:98:93:c9:38:ea:9b:ec:ab:a4:fb:c4:39:7c:d9:33:9d:
         4f:1c:ce:3e:af:e2:c4:47:3e:2c:6f:27:85:62:6d:77:84:e9:
         e0:17:c6:dc:c1:2e:ff:93:f8:c9:8e:59:f1:43:7d:48:fd:5a:
         ca:5b:78:67:4d:df:a3:03:0d:90:e3:73:58:c5:4e:70:ee:57:
         4e:ba:49:59:8d:34:3a:b2:c3:f2:da:db:4b:f4:19:0a:c2:69:
         7c:1e:d5:1e:46:e9:b8:21:13:02:4f:9c:2b:ab:25:a2:16:09:
         50:ea:7e:6b:0b:c2:94:49:57:a6:b6:3a:97:e4:70:4c:77:af:
         0d:c4:6e:7d:81:11:bf:85:8f:7e:9c:fe:b6:90:c4:a0:87:cb:
         e7:3a:c7:2e:6a:5e:cb:76:12:dd:35:2a:fb:33:5b:65:50:9a:
         13:8e:3b:84:25:54:4d:5f:bb:b0:c0:ac:70:16:a3:f0:e6:27:
         fb:9c:fe:8a:41:3a:2c:55:fd:1f:54:5d:35:a8:20:e2:d3:1f:
         f5:56:cc:b0
-----BEGIN CERTIFICATE-----
MIIDSjCCAjKgAwIBAgIEEAAAFjANBgkqhkiG9w0BAQsFADAnMSUwIwYDVQQDDBxT
Uks0X3NoYTI1Nl8yMDQ4XzY1NTM3X3YzX2NhMB4XDTE4MDMwMTE1MjYyMVoXDTI4
MDIyNzE1MjYyMVowKjEoMCYGA1UEAwwfQ1NGNF8xX3NoYTI1Nl8yMDQ4XzY1NTM3
X3YzX3VzcjCCASIwDQYJKoZIhvcNAQEBBQADggEPADCCAQoCggEBALuCSfnnTE89
mlrfmh3tyolxP9kQPCfsKitosRjvqz+knxJ1sqPAKKbOizuJrePi7hATHnIEOMEL
JXxVPi2fMAsjS2EqLYWy5lQxOfh4oSFZt2/WAHYF0iIpbvcW1C2o2M44FzgZQeBC
DOYs/2cMQorWL69IEEgaSj7T/titoxY/9iOBhfI6VkHqG+QLJ5n/LgUROY5OrPGv
H1JiV+FL8/UwVRBRhmlZn8h2bgiqXPoiypnQ6W05T/XqFBwgGvByAMOJiGyXox9P
OtnFmGFV11kzxtNYFQnPiXBgg2k6IY2oLnNad340a1TsgBfhY+Ty9AJJ/lvkNnEk
LaMrR8TJgNsCAwEAAaN7MHkwCQYDVR0TBAIwADAsBglghkgBhvhCAQ0EHxYdT3Bl
blNTTCBHZW5lcmF0ZWQgQ2VydGlmaWNhdGUwHQYDVR0OBBYEFBjvwAa+SYJGZawN
c64MaQ2r4fOeMB8GA1UdIwQYMBaAFGV7B9fFQWm7DOdYh+seNBEf5ihNMA0GCSqG
SIb3DQEBCwUAA4IBAQBC2zlbfMHJOOIqxwL2uoKCxfdWmX1EkhDbxgxskBPi+nYz
xIJV86vpRb6K1SwxvJOBJ254SlGSY5iTyTjqm+yrpPvEOXzZM51PHM4+r+LERz4s
byeFYm13hOngF8bcwS7/k/jJjlnxQ31I/VrKW3hnTd+jAw2Q43NYxU5w7ldOuklZ
jTQ6ssPy2ttL9BkKwml8HtUeRum4IRMCT5wrqyWiFglQ6n5rC8KUSVemtjqX5HBM
d68NxG59gRG/hY9+nP62kMSgh8vnOscual7LdhLdNSr7M1tlUJoTjjuEJVRNX7uw
wKxwFqPw5if7nP6KQTosVf0fVF01qCDi0x/1Vsyw
-----END CERTIFICATE-----
