Certificate:
    Data:
        Version: 3 (0x2)
        Serial Number: 268435466 (0x1000000a)
    Signature Algorithm: sha256WithRSAEncryption
        Issuer: CN=SRK4_sha256_4096_65537_v3_ca
        Validity
            Not Before: Feb 21 14:24:49 2018 GMT
            Not After : Feb 19 14:24:49 2028 GMT
        Subject: CN=CSF4_1_sha256_4096_65537_v3_usr
        Subject Public Key Info:
            Public Key Algorithm: rsaEncryption
                Public-Key: (4096 bit)
                Modulus:
                    00:c7:6e:7d:6f:da:9c:9e:49:bd:62:b1:14:76:c9:
                    3f:56:c3:b3:fe:6c:c4:9a:c6:82:ee:4e:60:15:21:
                    07:51:1c:a3:d8:91:27:f4:31:1d:97:f6:28:44:66:
                    f1:2e:3b:03:55:6f:75:47:08:a9:e0:4e:a2:29:90:
                    ca:7f:b1:41:52:8a:50:25:68:be:3d:60:a2:3c:5c:
                    2d:6b:45:87:aa:7b:68:ae:e1:17:7f:11:b9:e7:49:
                    94:18:50:bb:70:88:ac:c5:f8:11:dc:c0:d4:02:a7:
                    99:9c:c8:b0:09:4d:39:64:53:a1:0a:72:1d:9b:28:
                    21:64:8a:0c:85:84:3b:f9:7e:34:08:ef:43:e5:3c:
                    fb:24:32:60:90:1d:72:c0:37:03:ee:74:a5:cd:09:
                    02:d9:35:8a:ab:5d:0c:fb:96:f6:4e:13:5c:4e:1b:
                    d1:61:56:cc:ff:b9:a1:b1:d2:b1:a3:1a:03:d5:79:
                    7e:2b:27:92:91:63:2a:1c:17:c6:cc:dd:a7:6d:62:
                    ce:99:b2:da:f9:32:6d:5f:68:04:08:ac:c2:68:61:
                    89:92:42:92:b5:47:65:59:53:73:57:3c:55:e0:eb:
                    2e:44:0a:c8:df:f4:cd:3c:c9:75:43:74:df:87:d6:
                    dd:c9:c1:8a:51:40:87:89:46:9e:1a:22:ed:90:d6:
                    57:94:d6:b8:ed:47:27:65:dc:e1:bc:26:79:de:14:
                    8a:e1:bd:e6:5b:75:77:c5:1c:3e:84:52:cc:a4:f6:
                    42:ba:e9:32:d5:b8:36:f6:c1:7d:d8:d9:57:04:e4:
                    76:96:85:92:bc:5f:de:78:2c:1f:2e:9a:c0:2d:b8:
                    5f:ff:04:42:d8:10:6c:f7:80:e7:fc:b7:f1:6b:eb:
                    aa:f3:e2:b3:64:2c:fe:61:cf:39:81:b2:d2:60:9f:
                    2e:5b:3f:ac:45:ee:5e:2e:48:89:f5:9b:6c:3b:95:
                    e4:94:cc:a0:58:4c:02:ca:ee:3a:5b:cb:f7:6d:77:
                    91:ab:07:b3:0c:af:99:f2:5e:86:e3:47:8b:48:db:
                    83:78:20:f7:80:a1:cb:ed:96:99:39:05:3d:9b:c2:
                    6e:b7:f6:ec:9b:49:da:d7:bc:63:23:20:06:46:40:
                    5b:6e:24:8e:13:b5:44:f4:a6:01:d7:08:5f:81:ee:
                    21:90:74:d5:d7:34:1d:17:ca:c4:42:eb:fa:41:18:
                    90:c3:36:95:d8:1b:1d:cd:25:59:35:fb:9a:b4:49:
                    67:78:76:9b:65:82:2e:f2:38:32:85:a9:28:38:ca:
                    14:f3:99:c6:28:96:0d:b3:98:2c:f3:0a:54:ef:f3:
                    77:2b:7f:3e:b8:e2:bf:61:33:fe:1d:a0:38:f0:6c:
                    55:82:d5
                Exponent: 65537 (0x10001)
        X509v3 extensions:
            X509v3 Basic Constraints: 
                CA:FALSE
            Netscape Comment: 
                OpenSSL Generated Certificate
            X509v3 Subject Key Identifier: 
                6A:2C:8D:8B:B1:4D:FB:59:38:24:F3:B1:28:DE:A3:D8:37:20:0D:92
            X509v3 Authority Key Identifier: 
                keyid:2C:26:8D:87:3E:72:F4:D5:13:C6:7A:93:2B:BA:BA:26:23:12:21:A0

    Signature Algorithm: sha256WithRSAEncryption
         c9:16:9c:3f:17:15:12:f2:8b:93:02:5b:7b:fc:eb:1d:ed:20:
         9b:09:76:ce:90:0b:d4:1a:88:cd:ec:8e:12:7a:f5:dd:80:7c:
         3b:7d:3f:74:15:cb:37:40:84:ff:b5:03:fe:9e:a6:15:d5:d2:
         59:07:6e:da:19:e8:5e:61:92:03:61:cf:a2:c7:71:4c:84:a4:
         f0:bd:b6:9c:5e:0b:8e:68:16:3b:ec:91:a7:07:48:c6:03:2a:
         ef:23:eb:82:08:db:9c:9c:e7:7f:08:47:d5:60:d3:5a:ff:95:
         59:4c:ce:94:9a:7f:b1:71:e2:50:6a:eb:a7:65:cb:89:bf:bf:
         e3:73:1a:f9:b3:ce:af:dc:eb:4b:37:8a:e3:92:ef:8e:be:7b:
         b9:55:ec:5a:8d:91:42:15:45:c3:c7:78:42:3e:3c:4b:a0:6c:
         db:55:19:b2:30:05:e9:f8:71:f5:18:0d:f6:3c:ae:15:36:8f:
         c6:15:34:fe:45:6a:98:0a:24:73:61:72:d1:c5:38:4e:10:77:
         eb:2f:f0:ba:36:2e:e5:da:fb:0c:4f:44:44:ec:a5:d8:be:32:
         7f:d4:11:1b:a7:5a:d8:8a:b0:b5:57:ff:e0:da:72:24:fa:de:
         fc:7d:d5:cf:60:dc:0c:11:64:36:41:b3:b0:21:af:93:78:c3:
         f8:62:fe:78:75:4d:b7:75:8d:1b:6e:b8:ea:b3:96:cb:be:23:
         49:7c:84:1c:8a:de:dc:20:05:a9:73:ee:9c:97:fd:bb:1d:d1:
         fa:1a:5d:08:06:6f:d4:4e:96:be:2b:24:13:9c:81:1a:c7:b6:
         42:b5:98:ec:a7:08:12:5b:c8:b6:63:5e:55:0b:8c:04:6d:9e:
         e7:76:12:df:77:04:72:7b:2d:1a:77:66:0f:f6:22:9d:a9:ee:
         c1:2e:ff:5c:8f:a1:79:b8:ba:3b:1c:fb:b6:0e:ed:e9:e5:49:
         5a:59:ab:f8:87:61:fc:10:f9:e4:fb:c0:54:bf:bf:75:fb:6f:
         66:12:e2:a0:5c:96:19:a3:f9:91:29:b0:39:90:52:14:3b:1a:
         86:ff:89:82:bd:3c:37:00:af:78:a6:eb:39:95:d4:fe:88:99:
         3c:5b:4d:bf:79:0a:70:20:53:47:30:38:d2:f7:5d:94:1a:54:
         e7:03:eb:a9:c2:03:38:c6:ea:b2:98:5d:53:da:5b:ab:98:81:
         a2:12:3b:a1:bb:9a:7e:8e:95:ad:01:5c:2e:69:d3:d9:d4:3c:
         82:3a:ac:5f:14:24:0e:98:d3:24:e2:29:51:38:df:9f:05:d7:
         0c:a2:e2:a6:ac:6e:4e:60:2c:95:42:7c:05:e6:67:8f:f3:26:
         59:f9:35:4a:54:da:68:8f
-----BEGIN CERTIFICATE-----
MIIFSjCCAzKgAwIBAgIEEAAACjANBgkqhkiG9w0BAQsFADAnMSUwIwYDVQQDDBxT
Uks0X3NoYTI1Nl80MDk2XzY1NTM3X3YzX2NhMB4XDTE4MDIyMTE0MjQ0OVoXDTI4
MDIxOTE0MjQ0OVowKjEoMCYGA1UEAwwfQ1NGNF8xX3NoYTI1Nl80MDk2XzY1NTM3
X3YzX3VzcjCCAiIwDQYJKoZIhvcNAQEBBQADggIPADCCAgoCggIBAMdufW/anJ5J
vWKxFHbJP1bDs/5sxJrGgu5OYBUhB1Eco9iRJ/QxHZf2KERm8S47A1VvdUcIqeBO
oimQyn+xQVKKUCVovj1gojxcLWtFh6p7aK7hF38RuedJlBhQu3CIrMX4EdzA1AKn
mZzIsAlNOWRToQpyHZsoIWSKDIWEO/l+NAjvQ+U8+yQyYJAdcsA3A+50pc0JAtk1
iqtdDPuW9k4TXE4b0WFWzP+5obHSsaMaA9V5fisnkpFjKhwXxszdp21izpmy2vky
bV9oBAiswmhhiZJCkrVHZVlTc1c8VeDrLkQKyN/0zTzJdUN034fW3cnBilFAh4lG
nhoi7ZDWV5TWuO1HJ2Xc4bwmed4UiuG95lt1d8UcPoRSzKT2QrrpMtW4NvbBfdjZ
VwTkdpaFkrxf3ngsHy6awC24X/8EQtgQbPeA5/y38WvrqvPis2Qs/mHPOYGy0mCf
Lls/rEXuXi5IifWbbDuV5JTMoFhMAsruOlvL9213kasHswyvmfJehuNHi0jbg3gg
94Chy+2WmTkFPZvCbrf27JtJ2te8YyMgBkZAW24kjhO1RPSmAdcIX4HuIZB01dc0
HRfKxELr+kEYkMM2ldgbHc0lWTX7mrRJZ3h2m2WCLvI4MoWpKDjKFPOZxiiWDbOY
LPMKVO/zdyt/Prjiv2Ez/h2gOPBsVYLVAgMBAAGjezB5MAkGA1UdEwQCMAAwLAYJ
YIZIAYb4QgENBB8WHU9wZW5TU0wgR2VuZXJhdGVkIENlcnRpZmljYXRlMB0GA1Ud
DgQWBBRqLI2LsU37WTgk87Eo3qPYNyANkjAfBgNVHSMEGDAWgBQsJo2HPnL01RPG
epMruromIxIhoDANBgkqhkiG9w0BAQsFAAOCAgEAyRacPxcVEvKLkwJbe/zrHe0g
mwl2zpAL1BqIzeyOEnr13YB8O30/dBXLN0CE/7UD/p6mFdXSWQdu2hnoXmGSA2HP
osdxTISk8L22nF4LjmgWO+yRpwdIxgMq7yPrggjbnJznfwhH1WDTWv+VWUzOlJp/
sXHiUGrrp2XLib+/43Ma+bPOr9zrSzeK45Lvjr57uVXsWo2RQhVFw8d4Qj48S6Bs
21UZsjAF6fhx9RgN9jyuFTaPxhU0/kVqmAokc2Fy0cU4ThB36y/wujYu5dr7DE9E
ROyl2L4yf9QRG6da2IqwtVf/4NpyJPre/H3Vz2DcDBFkNkGzsCGvk3jD+GL+eHVN
t3WNG2646rOWy74jSXyEHIre3CAFqXPunJf9ux3R+hpdCAZv1E6WviskE5yBGse2
QrWY7KcIElvItmNeVQuMBG2e53YS33cEcnstGndmD/YinanuwS7/XI+hebi6Oxz7
tg7t6eVJWlmr+Idh/BD55PvAVL+/dftvZhLioFyWGaP5kSmwOZBSFDsahv+Jgr08
NwCveKbrOZXU/oiZPFtNv3kKcCBTRzA40vddlBpU5wPrqcIDOMbqsphdU9pbq5iB
ohI7obuafo6VrQFcLmnT2dQ8gjqsXxQkDpjTJOIpUTjfnwXXDKLipqxuTmAslUJ8
BeZnj/MmWfk1SlTaaI8=
-----END CERTIFICATE-----
