Certificate:
    Data:
        Version: 3 (0x2)
        Serial Number: 268435458 (0x10000002)
    Signature Algorithm: sha256WithRSAEncryption
        Issuer: CN=SRK1_sha256_4096_65537_v3_ca
        Validity
            Not Before: Feb 21 14:24:42 2018 GMT
            Not After : Feb 19 14:24:42 2028 GMT
        Subject: CN=IMG1_1_sha256_4096_65537_v3_usr
        Subject Public Key Info:
            Public Key Algorithm: rsaEncryption
                Public-Key: (4096 bit)
                Modulus:
                    00:cd:69:aa:62:56:dd:8f:22:ca:5c:56:d7:37:27:
                    3d:ff:df:12:05:c3:c9:9e:0c:9c:4e:2a:4b:20:f9:
                    37:33:b7:b6:71:6e:17:c8:d4:8d:77:0f:3f:4f:5a:
                    ec:50:59:36:cf:7e:76:cb:9c:d7:18:04:67:b2:94:
                    23:67:4a:56:5c:98:9f:df:4b:27:48:0e:47:ed:75:
                    32:e4:c3:d4:42:00:5b:dd:18:1c:8b:73:65:79:13:
                    88:89:f9:13:7a:a5:56:c3:26:69:8f:c8:c5:80:a3:
                    f5:f8:f2:bc:83:f2:96:84:1a:9a:5a:ba:2e:9d:24:
                    6c:7d:a3:13:19:aa:d3:3f:1a:4c:dc:23:2d:a6:79:
                    93:d5:fe:fe:bd:e8:3a:77:03:5b:71:93:27:96:6a:
                    8f:c1:8d:37:ad:03:f6:c7:15:3e:ef:59:39:68:fb:
                    fe:c6:91:60:f4:62:2f:25:84:4f:11:c1:e1:b2:c6:
                    08:35:57:98:8a:e7:9b:c5:d2:01:9f:e6:54:e4:65:
                    1c:30:94:ad:13:8b:94:ce:eb:7a:cb:ca:81:e3:c8:
                    2d:82:68:93:c5:ae:ec:11:4d:b8:7a:1a:7b:69:99:
                    f2:a7:f8:3b:f4:77:36:c1:d9:4c:fb:c8:00:3b:59:
                    26:a4:61:b7:fc:a7:c3:66:2a:bc:af:b4:5f:51:bd:
                    81:2c:37:a8:af:f2:cf:66:4b:2d:59:8a:06:a6:b9:
                    07:a1:5a:34:5c:12:f3:6f:9f:bf:1b:80:69:d9:ae:
                    4e:64:d1:2e:6f:9a:60:5e:51:f8:f1:bd:00:b8:19:
                    02:8a:b5:a1:76:c9:ea:c2:58:80:85:42:3e:74:4c:
                    96:31:c1:40:f1:50:46:4a:d8:bc:90:b6:d5:3f:78:
                    32:fc:39:94:7b:82:ae:a7:91:21:33:60:f6:91:1c:
                    be:2d:4a:6f:1a:80:c7:4f:7d:1e:e4:17:66:21:b5:
                    80:b3:01:65:66:ac:31:a3:7b:3c:03:fb:ff:ce:17:
                    37:e3:dd:8e:38:1c:3d:45:e8:60:03:ad:e7:5e:f0:
                    99:53:0a:47:00:fd:35:23:3d:75:cb:e3:21:69:b0:
                    52:dd:f2:f9:57:64:4d:6b:71:0a:4c:6d:05:42:04:
                    30:f8:fd:87:ee:c4:54:2d:6a:4f:9e:45:a1:6b:7f:
                    61:77:69:19:67:0b:e5:7e:d1:96:79:d7:30:34:bb:
                    dd:9b:bc:ef:40:dc:40:d4:b0:70:29:21:11:75:93:
                    55:a8:17:07:2c:37:01:a5:80:f9:97:3c:80:11:07:
                    34:52:cf:fe:27:a0:45:87:65:0e:18:4c:13:45:41:
                    a6:5d:2a:d9:7b:10:c0:30:46:9f:bd:39:3e:15:d8:
                    95:61:d7
                Exponent: 65537 (0x10001)
        X509v3 extensions:
            X509v3 Basic Constraints: 
                CA:FALSE
            Netscape Comment: 
                OpenSSL Generated Certificate
            X509v3 Subject Key Identifier: 
                D8:62:93:83:3A:76:0E:E9:E6:7A:BC:50:F2:D7:E9:0F:11:76:EF:61
            X509v3 Authority Key Identifier: 
                keyid:8D:86:5C:54:6E:93:0B:C1:54:83:74:17:CC:F3:68:17:84:8B:D2:CF

    Signature Algorithm: sha256WithRSAEncryption
         a9:c6:eb:91:03:b0:f2:b5:eb:a0:6d:25:72:9a:3a:0c:61:df:
         1a:88:ff:1e:f3:c3:9e:78:65:9f:cc:79:a7:11:5c:0e:88:9c:
         6d:f0:42:d0:79:11:d3:5d:34:e5:6c:b7:b6:71:35:36:62:68:
         1d:31:e5:5c:c0:b5:99:09:00:63:33:c9:3a:6d:38:5c:a6:85:
         09:4e:a8:da:26:55:2e:61:42:d2:7d:cc:27:83:1c:28:8a:88:
         d8:72:e5:e9:7e:ea:63:ab:6f:c3:66:ac:99:23:a5:f1:d2:ae:
         f0:74:09:d4:07:70:5c:05:f4:ef:6d:62:6f:44:c8:5d:93:3d:
         79:09:23:46:77:aa:53:30:8a:0f:05:63:7a:9b:b4:f7:11:de:
         30:ac:a8:1b:a0:cc:37:5d:2f:95:0c:4a:e5:6b:35:ca:ce:f6:
         a1:cb:b9:3d:2b:96:3e:b7:9b:9f:34:d5:20:93:ae:03:fb:5b:
         02:38:ae:85:95:2e:74:14:1e:7e:9a:42:f4:18:ea:bc:74:b4:
         6b:69:ec:93:c6:4c:11:1b:84:31:5d:ee:d8:2a:d6:b4:69:af:
         84:61:12:5b:b6:78:e5:97:36:4b:88:7c:81:2c:09:3f:38:e1:
         be:e7:44:28:86:51:a1:79:5c:69:5a:50:52:05:6a:59:36:03:
         a9:c6:17:39:ff:17:d6:7c:36:65:d9:fd:4c:52:c8:f7:51:3c:
         c6:9a:d6:4e:5b:1d:0b:8f:dd:ed:27:af:fa:b1:8a:d1:5d:8d:
         e9:a2:fb:0e:c9:f3:3e:d9:d8:ba:91:4a:b6:f6:72:8d:9f:45:
         aa:6a:e9:90:53:ae:51:7f:71:48:a8:c1:db:0a:63:45:fe:69:
         53:05:14:5e:47:92:6c:06:37:4e:ab:90:e8:be:ce:a9:2d:0b:
         90:37:a3:b1:8d:7b:c4:34:cb:69:24:cc:67:e8:ee:ce:bd:59:
         02:71:cd:d6:b2:71:1a:4a:c2:f8:5b:bc:c8:ab:fc:14:a4:ba:
         22:82:59:25:f5:ac:9f:23:5e:e5:39:8f:bc:92:73:ce:55:f6:
         8f:30:30:b3:1c:c3:49:4b:4b:b0:bd:60:c5:f0:41:ef:fb:44:
         6f:df:a3:c5:14:af:be:30:96:36:4b:16:8c:af:2a:fe:89:ca:
         03:b7:85:34:da:1d:c0:8f:7a:65:d9:85:ee:44:f0:f2:3d:ba:
         c7:31:1c:ec:1f:90:ab:08:75:e1:dc:71:ff:17:b5:6f:c0:fd:
         7d:57:b8:ba:4c:25:2f:ec:2f:2d:e0:7b:6b:23:e7:1c:e2:d5:
         47:fe:ed:da:e4:54:a9:18:52:44:67:84:e4:bd:6e:6e:f2:bd:
         8b:2f:a5:77:b2:b7:c1:04
-----BEGIN CERTIFICATE-----
MIIFSjCCAzKgAwIBAgIEEAAAAjANBgkqhkiG9w0BAQsFADAnMSUwIwYDVQQDDBxT
UksxX3NoYTI1Nl80MDk2XzY1NTM3X3YzX2NhMB4XDTE4MDIyMTE0MjQ0MloXDTI4
MDIxOTE0MjQ0MlowKjEoMCYGA1UEAwwfSU1HMV8xX3NoYTI1Nl80MDk2XzY1NTM3
X3YzX3VzcjCCAiIwDQYJKoZIhvcNAQEBBQADggIPADCCAgoCggIBAM1pqmJW3Y8i
ylxW1zcnPf/fEgXDyZ4MnE4qSyD5NzO3tnFuF8jUjXcPP09a7FBZNs9+dsuc1xgE
Z7KUI2dKVlyYn99LJ0gOR+11MuTD1EIAW90YHItzZXkTiIn5E3qlVsMmaY/IxYCj
9fjyvIPyloQamlq6Lp0kbH2jExmq0z8aTNwjLaZ5k9X+/r3oOncDW3GTJ5Zqj8GN
N60D9scVPu9ZOWj7/saRYPRiLyWETxHB4bLGCDVXmIrnm8XSAZ/mVORlHDCUrROL
lM7resvKgePILYJok8Wu7BFNuHoae2mZ8qf4O/R3NsHZTPvIADtZJqRht/ynw2Yq
vK+0X1G9gSw3qK/yz2ZLLVmKBqa5B6FaNFwS82+fvxuAadmuTmTRLm+aYF5R+PG9
ALgZAoq1oXbJ6sJYgIVCPnRMljHBQPFQRkrYvJC21T94Mvw5lHuCrqeRITNg9pEc
vi1KbxqAx099HuQXZiG1gLMBZWasMaN7PAP7/84XN+PdjjgcPUXoYAOt517wmVMK
RwD9NSM9dcvjIWmwUt3y+VdkTWtxCkxtBUIEMPj9h+7EVC1qT55FoWt/YXdpGWcL
5X7RlnnXMDS73Zu870DcQNSwcCkhEXWTVagXByw3AaWA+Zc8gBEHNFLP/iegRYdl
DhhME0VBpl0q2XsQwDBGn705PhXYlWHXAgMBAAGjezB5MAkGA1UdEwQCMAAwLAYJ
YIZIAYb4QgENBB8WHU9wZW5TU0wgR2VuZXJhdGVkIENlcnRpZmljYXRlMB0GA1Ud
DgQWBBTYYpODOnYO6eZ6vFDy1+kPEXbvYTAfBgNVHSMEGDAWgBSNhlxUbpMLwVSD
dBfM82gXhIvSzzANBgkqhkiG9w0BAQsFAAOCAgEAqcbrkQOw8rXroG0lcpo6DGHf
Goj/HvPDnnhln8x5pxFcDoicbfBC0HkR01005Wy3tnE1NmJoHTHlXMC1mQkAYzPJ
Om04XKaFCU6o2iZVLmFC0n3MJ4McKIqI2HLl6X7qY6tvw2asmSOl8dKu8HQJ1Adw
XAX0721ib0TIXZM9eQkjRneqUzCKDwVjepu09xHeMKyoG6DMN10vlQxK5Ws1ys72
ocu5PSuWPrebnzTVIJOuA/tbAjiuhZUudBQefppC9BjqvHS0a2nsk8ZMERuEMV3u
2CrWtGmvhGESW7Z45Zc2S4h8gSwJPzjhvudEKIZRoXlcaVpQUgVqWTYDqcYXOf8X
1nw2Zdn9TFLI91E8xprWTlsdC4/d7Sev+rGK0V2N6aL7DsnzPtnYupFKtvZyjZ9F
qmrpkFOuUX9xSKjB2wpjRf5pUwUUXkeSbAY3TquQ6L7OqS0LkDejsY17xDTLaSTM
Z+juzr1ZAnHN1rJxGkrC+Fu8yKv8FKS6IoJZJfWsnyNe5TmPvJJzzlX2jzAwsxzD
SUtLsL1gxfBB7/tEb9+jxRSvvjCWNksWjK8q/onKA7eFNNodwI96ZdmF7kTw8j26
xzEc7B+Qqwh14dxx/xe1b8D9fVe4ukwlL+wvLeB7ayPnHOLVR/7t2uRUqRhSRGeE
5L1ubvK9iy+ld7K3wQQ=
-----END CERTIFICATE-----
