Certificate:
    Data:
        Version: 3 (0x2)
        Serial Number: 268435473 (0x10000011)
    Signature Algorithm: sha256WithRSAEncryption
        Issuer: CN=SRK2_sha256_2048_65537_v3_ca
        Validity
            Not Before: Mar  1 15:26:21 2018 GMT
            Not After : Feb 27 15:26:21 2028 GMT
        Subject: CN=IMG2_1_sha256_2048_65537_v3_usr
        Subject Public Key Info:
            Public Key Algorithm: rsaEncryption
                Public-Key: (2048 bit)
                Modulus:
                    00:aa:77:0d:49:90:fd:4a:dc:fe:8c:08:ba:f9:0d:
                    2b:c8:d3:3c:c8:e5:2e:fd:07:1c:41:3a:30:e6:3d:
                    55:ad:04:7a:d0:56:4d:aa:32:aa:35:0e:07:83:8b:
                    db:ad:66:8f:a0:04:f7:f0:05:d1:a9:b1:7f:62:b0:
                    87:ab:1e:b9:65:ce:c2:83:54:6e:e1:5f:e7:b1:ef:
                    be:b4:c9:8e:36:6c:1f:b6:88:27:49:77:10:57:c9:
                    41:1d:d9:21:37:db:f2:f8:99:fa:74:1d:b8:5f:7c:
                    63:37:72:90:1e:41:b2:ec:ed:4e:f6:fa:79:6f:e3:
                    26:21:dd:ae:5d:4a:17:b3:cf:3f:97:b4:9c:79:3f:
                    c5:55:13:a8:bf:3b:a5:9a:b1:3c:a4:50:45:f1:3d:
                    4a:ad:71:d4:60:f8:0d:ef:ab:17:b2:42:88:5a:8f:
                    45:66:23:9e:a9:77:fa:21:1d:4a:3c:cc:7e:82:a2:
                    32:09:16:7a:be:76:9a:49:5e:da:31:35:99:b9:87:
                    83:8a:ae:a5:c4:d4:70:67:b2:35:e1:3d:39:57:b0:
                    31:9d:ea:4d:ee:55:d1:b6:31:63:4e:2a:96:17:b9:
                    88:a4:45:ef:77:f6:da:70:ad:52:40:c9:4d:b9:75:
                    a4:35:1b:e8:d1:d9:2c:73:4e:90:ad:13:5c:ca:61:
                    af:11
                Exponent: 65537 (0x10001)
        X509v3 extensions:
            X509v3 Basic Constraints: 
                CA:FALSE
            Netscape Comment: 
                OpenSSL Generated Certificate
            X509v3 Subject Key Identifier: 
                93:48:CB:0C:E9:22:A6:9F:34:20:B3:29:51:F1:2A:2F:E2:F9:FE:4D
            X509v3 Authority Key Identifier: 
                keyid:CD:0D:57:89:B3:0F:8E:27:D7:80:C8:C6:66:E2:B0:3D:BF:0B:E6:58

    Signature Algorithm: sha256WithRSAEncryption
         73:1c:6c:8d:fa:f6:be:08:d7:9b:7d:75:07:a3:97:16:ef:cd:
         1e:3f:09:38:20:e6:45:6d:06:ca:13:55:9b:e8:0e:b9:38:0b:
         43:c5:fd:27:0c:ab:0d:eb:6d:0f:f5:59:1a:41:9f:31:3f:7f:
         f6:88:dc:b6:0f:99:37:df:66:bf:31:29:01:b1:2e:56:e1:72:
         52:b9:a1:8a:4a:d4:13:81:0b:ab:d5:dd:68:8b:11:61:61:60:
         46:d2:c2:5c:fd:b9:f6:9c:03:70:e6:67:ff:b7:70:b0:bb:93:
         2e:42:97:da:10:1f:4b:1a:23:c7:5d:08:7e:24:41:f6:cb:e3:
         a4:1b:cb:8d:39:f0:ac:f8:f7:28:21:ce:7a:89:04:dd:d5:6c:
         65:26:67:31:9c:42:d1:64:e7:d6:af:74:e6:e5:6a:a7:3e:be:
         6f:18:e5:c3:a3:e4:e6:70:5a:be:f6:f6:ba:fa:b9:7a:99:81:
         00:95:a0:a5:fe:3e:cc:3a:45:2e:7e:dd:e2:39:43:47:ba:4e:
         bd:24:20:58:ed:7c:a9:9c:8f:3c:da:05:99:c1:93:65:da:0f:
         e0:d9:10:d3:a6:58:ad:26:ba:35:96:ba:1f:2b:07:43:03:13:
         1a:8e:39:8a:51:ab:61:19:36:28:c7:3f:99:9c:b9:c4:07:41:
         8a:e1:08:2d
-----BEGIN CERTIFICATE-----
MIIDSjCCAjKgAwIBAgIEEAAAETANBgkqhkiG9w0BAQsFADAnMSUwIwYDVQQDDBxT
UksyX3NoYTI1Nl8yMDQ4XzY1NTM3X3YzX2NhMB4XDTE4MDMwMTE1MjYyMVoXDTI4
MDIyNzE1MjYyMVowKjEoMCYGA1UEAwwfSU1HMl8xX3NoYTI1Nl8yMDQ4XzY1NTM3
X3YzX3VzcjCCASIwDQYJKoZIhvcNAQEBBQADggEPADCCAQoCggEBAKp3DUmQ/Urc
/owIuvkNK8jTPMjlLv0HHEE6MOY9Va0EetBWTaoyqjUOB4OL261mj6AE9/AF0amx
f2Kwh6seuWXOwoNUbuFf57HvvrTJjjZsH7aIJ0l3EFfJQR3ZITfb8viZ+nQduF98
YzdykB5BsuztTvb6eW/jJiHdrl1KF7PPP5e0nHk/xVUTqL87pZqxPKRQRfE9Sq1x
1GD4De+rF7JCiFqPRWYjnql3+iEdSjzMfoKiMgkWer52mkle2jE1mbmHg4qupcTU
cGeyNeE9OVewMZ3qTe5V0bYxY04qlhe5iKRF73f22nCtUkDJTbl1pDUb6NHZLHNO
kK0TXMphrxECAwEAAaN7MHkwCQYDVR0TBAIwADAsBglghkgBhvhCAQ0EHxYdT3Bl
blNTTCBHZW5lcmF0ZWQgQ2VydGlmaWNhdGUwHQYDVR0OBBYEFJNIywzpIqafNCCz
KVHxKi/i+f5NMB8GA1UdIwQYMBaAFM0NV4mzD44n14DIxmbisD2/C+ZYMA0GCSqG
SIb3DQEBCwUAA4IBAQBzHGyN+va+CNebfXUHo5cW780ePwk4IOZFbQbKE1Wb6A65
OAtDxf0nDKsN620P9VkaQZ8xP3/2iNy2D5k332a/MSkBsS5W4XJSuaGKStQTgQur
1d1oixFhYWBG0sJc/bn2nANw5mf/t3Cwu5MuQpfaEB9LGiPHXQh+JEH2y+OkG8uN
OfCs+PcoIc56iQTd1WxlJmcxnELRZOfWr3Tm5WqnPr5vGOXDo+TmcFq+9va6+rl6
mYEAlaCl/j7MOkUuft3iOUNHuk69JCBY7XypnI882gWZwZNl2g/g2RDTplitJro1
lrofKwdDAxMajjmKUathGTYoxz+ZnLnEB0GK4Qgt
-----END CERTIFICATE-----
