Certificate:
    Data:
        Version: 3 (0x2)
        Serial Number: 268435461 (0x10000005)
    Signature Algorithm: sha256WithRSAEncryption
        Issuer: CN=SRK2_sha256_4096_65537_v3_ca
        Validity
            Not Before: Feb 21 14:24:44 2018 GMT
            Not After : Feb 19 14:24:44 2028 GMT
        Subject: CN=IMG2_1_sha256_4096_65537_v3_usr
        Subject Public Key Info:
            Public Key Algorithm: rsaEncryption
                Public-Key: (4096 bit)
                Modulus:
                    00:ba:37:7b:73:0a:a8:db:f8:98:8a:fd:f4:3e:0c:
                    0c:4b:c8:5a:68:95:d9:76:fd:17:1a:dc:cc:79:64:
                    5e:90:2c:01:9e:28:7d:cf:e2:af:67:70:49:a1:3a:
                    cd:c9:60:ae:99:bb:80:bf:1f:b1:49:3b:e3:53:ac:
                    8c:90:83:c9:c8:f3:9c:05:e4:5e:c1:f5:d9:86:84:
                    85:b5:40:00:9d:cf:2e:9a:4f:57:31:60:8c:75:7a:
                    41:39:9f:24:83:cb:6f:3d:8e:ec:bf:29:4a:a7:4a:
                    c6:3c:19:77:a2:fd:18:05:c1:eb:00:c9:21:ff:ca:
                    42:e2:e6:fb:8b:9c:52:e3:a7:1e:f6:36:12:31:9c:
                    71:eb:8c:46:c5:c6:0e:a3:03:ea:d8:f3:51:8e:59:
                    5c:91:19:8a:29:40:46:6f:52:e4:99:81:5f:22:bf:
                    01:5b:25:c8:2b:eb:aa:67:01:c3:44:2b:ff:c6:78:
                    cc:b4:6c:d5:14:46:76:9f:54:e3:f3:0d:3b:c4:e0:
                    50:c5:1d:7d:4e:8d:23:30:56:f5:5f:b8:7a:96:4f:
                    e3:57:5e:00:53:6d:ae:3d:4d:40:8a:f1:0b:1b:a6:
                    af:e9:7c:b0:92:81:37:87:5e:ec:11:f2:1d:11:9a:
                    a0:51:6e:1a:e9:dc:66:cd:5f:4b:e8:44:67:38:9c:
                    4e:83:a8:7e:fb:17:bb:57:35:b0:8b:05:09:98:c8:
                    03:0d:cb:fd:88:c7:21:7e:53:81:bb:07:7d:e8:43:
                    16:12:74:03:49:b4:76:f4:53:13:95:fe:18:31:c7:
                    6d:d7:3a:bd:42:35:f2:6a:c6:c3:b8:85:c3:2f:04:
                    90:1d:04:19:5c:0c:26:6d:d7:df:4c:c9:9b:7e:43:
                    90:15:5d:f1:b3:38:01:d9:30:5d:a4:8b:58:5c:4c:
                    54:cf:ef:9c:09:2c:25:05:ff:54:fb:fb:c9:e5:eb:
                    e3:5b:30:b5:4a:d8:c4:31:72:d4:3c:16:49:8d:cd:
                    48:0a:94:eb:f2:e8:c5:49:d7:d4:f7:ec:2e:32:21:
                    2a:dc:6f:45:d3:ca:4a:0e:26:87:a8:f9:9d:cc:bc:
                    01:39:1f:15:cc:a2:32:14:95:9d:be:74:e3:b2:2e:
                    55:e4:92:7b:91:5e:95:3d:29:3c:1c:8c:17:ef:7a:
                    a4:79:08:ce:6c:e1:f1:08:8f:9b:7e:df:fb:a1:85:
                    a6:e4:6f:ec:06:23:1f:1c:3f:0d:0d:bf:5f:7d:05:
                    06:d1:55:7c:3d:7d:95:58:56:f5:1e:c1:30:7a:0b:
                    c5:c5:60:f7:90:d0:36:b6:11:54:05:c2:51:93:26:
                    32:f4:dc:d8:0b:8e:72:da:aa:fa:6e:53:56:52:bf:
                    77:c1:c9
                Exponent: 65537 (0x10001)
        X509v3 extensions:
            X509v3 Basic Constraints: 
                CA:FALSE
            Netscape Comment: 
                OpenSSL Generated Certificate
            X509v3 Subject Key Identifier: 
                87:8B:37:FF:6A:D4:81:7D:66:D4:A3:56:94:48:3E:E0:D0:79:7B:B8
            X509v3 Authority Key Identifier: 
                keyid:D8:01:CD:AD:23:F5:43:5F:A4:60:F0:E6:89:10:E4:AE:42:7E:E7:3E

    Signature Algorithm: sha256WithRSAEncryption
         40:57:a6:ac:c8:ad:4f:f2:f5:dd:4e:bc:00:fb:91:6c:d4:9c:
         35:73:59:ae:bd:4b:53:d7:68:c3:1a:f2:75:ef:d4:4d:52:dc:
         c9:95:9a:e3:af:f1:37:8f:4a:24:75:8d:25:f4:c8:40:cb:f6:
         e9:7a:94:50:7c:04:5c:30:b2:7e:4c:cc:1d:ec:58:43:6d:3b:
         d2:11:95:c9:63:ef:01:e7:16:8f:af:e9:d7:52:33:f1:2f:72:
         22:ce:4d:40:e2:cf:e9:f0:e8:5c:7f:8b:db:2e:db:62:a9:57:
         15:61:b6:c2:9c:63:16:80:8b:c8:ea:83:35:32:71:9b:7b:fe:
         02:41:11:fa:22:6e:ab:b7:39:ab:8f:d4:fe:53:c5:01:16:da:
         88:c9:96:36:14:46:71:61:32:55:a2:7b:bb:fa:a8:bc:ac:b4:
         85:97:00:28:1e:60:69:d3:2d:84:ff:1f:81:09:55:1f:40:b0:
         11:9f:7b:de:ab:8a:16:6e:b9:92:51:3a:5c:a1:56:23:5f:3a:
         e7:a7:f0:8a:70:50:99:1c:23:42:c8:44:a8:e3:ea:b8:4f:fb:
         ec:dd:2f:37:6a:29:07:53:33:ea:0b:cf:79:7d:c4:de:47:2a:
         d9:92:e1:31:3f:59:64:2e:6a:fc:92:ee:4c:79:e3:1d:aa:50:
         52:3a:c0:e3:d8:97:7d:0d:ae:04:0e:56:8c:5b:59:d5:26:e8:
         5b:3b:c1:c9:43:6d:86:0a:eb:a3:0c:e7:7d:95:13:22:20:e0:
         d3:74:58:90:66:5a:04:41:aa:7d:bc:0b:26:fc:08:a9:76:c8:
         ff:b5:bc:4f:85:56:7e:27:94:5d:30:98:77:b5:22:c2:d1:24:
         64:4d:75:d4:61:a3:8f:61:d9:3f:d8:94:8d:d5:7d:30:74:67:
         1f:92:8c:3f:f1:25:62:52:ba:5b:84:06:ca:4b:b5:21:a8:90:
         23:0c:80:4f:a9:54:00:97:0e:e4:5f:e1:1f:ff:1f:75:82:7c:
         a8:51:de:c0:91:6a:44:de:47:84:e7:1b:ea:04:6d:ef:1f:cb:
         40:93:65:8d:93:73:b1:23:35:0c:31:d3:3d:3a:87:80:b5:e0:
         34:72:95:4d:c7:d0:9c:8d:7a:4a:7f:27:e7:bd:92:e1:32:29:
         5f:02:61:61:18:3f:04:2c:26:ce:66:c4:18:b8:e1:d2:30:8e:
         80:39:a9:6a:76:26:5b:f5:1f:51:df:2e:e7:53:bf:25:5f:b5:
         ff:20:a9:74:29:01:99:0a:ee:b8:45:85:ae:a0:96:be:d6:23:
         71:e9:f9:a5:67:22:98:f0:77:99:30:13:f2:d2:02:82:56:f3:
         61:83:5f:0c:ab:39:49:1a
-----BEGIN CERTIFICATE-----
MIIFSjCCAzKgAwIBAgIEEAAABTANBgkqhkiG9w0BAQsFADAnMSUwIwYDVQQDDBxT
UksyX3NoYTI1Nl80MDk2XzY1NTM3X3YzX2NhMB4XDTE4MDIyMTE0MjQ0NFoXDTI4
MDIxOTE0MjQ0NFowKjEoMCYGA1UEAwwfSU1HMl8xX3NoYTI1Nl80MDk2XzY1NTM3
X3YzX3VzcjCCAiIwDQYJKoZIhvcNAQEBBQADggIPADCCAgoCggIBALo3e3MKqNv4
mIr99D4MDEvIWmiV2Xb9FxrczHlkXpAsAZ4ofc/ir2dwSaE6zclgrpm7gL8fsUk7
41OsjJCDycjznAXkXsH12YaEhbVAAJ3PLppPVzFgjHV6QTmfJIPLbz2O7L8pSqdK
xjwZd6L9GAXB6wDJIf/KQuLm+4ucUuOnHvY2EjGcceuMRsXGDqMD6tjzUY5ZXJEZ
iilARm9S5JmBXyK/AVslyCvrqmcBw0Qr/8Z4zLRs1RRGdp9U4/MNO8TgUMUdfU6N
IzBW9V+4epZP41deAFNtrj1NQIrxCxumr+l8sJKBN4de7BHyHRGaoFFuGuncZs1f
S+hEZzicToOofvsXu1c1sIsFCZjIAw3L/YjHIX5TgbsHfehDFhJ0A0m0dvRTE5X+
GDHHbdc6vUI18mrGw7iFwy8EkB0EGVwMJm3X30zJm35DkBVd8bM4AdkwXaSLWFxM
VM/vnAksJQX/VPv7yeXr41swtUrYxDFy1DwWSY3NSAqU6/LoxUnX1PfsLjIhKtxv
RdPKSg4mh6j5ncy8ATkfFcyiMhSVnb5047IuVeSSe5FelT0pPByMF+96pHkIzmzh
8QiPm37f+6GFpuRv7AYjHxw/DQ2/X30FBtFVfD19lVhW9R7BMHoLxcVg95DQNrYR
VAXCUZMmMvTc2AuOctqq+m5TVlK/d8HJAgMBAAGjezB5MAkGA1UdEwQCMAAwLAYJ
YIZIAYb4QgENBB8WHU9wZW5TU0wgR2VuZXJhdGVkIENlcnRpZmljYXRlMB0GA1Ud
DgQWBBSHizf/atSBfWbUo1aUSD7g0Hl7uDAfBgNVHSMEGDAWgBTYAc2tI/VDX6Rg
8OaJEOSuQn7nPjANBgkqhkiG9w0BAQsFAAOCAgEAQFemrMitT/L13U68APuRbNSc
NXNZrr1LU9dowxryde/UTVLcyZWa46/xN49KJHWNJfTIQMv26XqUUHwEXDCyfkzM
HexYQ2070hGVyWPvAecWj6/p11Iz8S9yIs5NQOLP6fDoXH+L2y7bYqlXFWG2wpxj
FoCLyOqDNTJxm3v+AkER+iJuq7c5q4/U/lPFARbaiMmWNhRGcWEyVaJ7u/qovKy0
hZcAKB5gadMthP8fgQlVH0CwEZ973quKFm65klE6XKFWI18656fwinBQmRwjQshE
qOPquE/77N0vN2opB1Mz6gvPeX3E3kcq2ZLhMT9ZZC5q/JLuTHnjHapQUjrA49iX
fQ2uBA5WjFtZ1SboWzvByUNthgrrowznfZUTIiDg03RYkGZaBEGqfbwLJvwIqXbI
/7W8T4VWfieUXTCYd7UiwtEkZE111GGjj2HZP9iUjdV9MHRnH5KMP/ElYlK6W4QG
yku1IaiQIwyAT6lUAJcO5F/hH/8fdYJ8qFHewJFqRN5HhOcb6gRt7x/LQJNljZNz
sSM1DDHTPTqHgLXgNHKVTcfQnI16Sn8n572S4TIpXwJhYRg/BCwmzmbEGLjh0jCO
gDmpanYmW/UfUd8u51O/JV+1/yCpdCkBmQruuEWFrqCWvtYjcen5pWcimPB3mTAT
8tICglbzYYNfDKs5SRo=
-----END CERTIFICATE-----
