Certificate:
    Data:
        Version: 3 (0x2)
        Serial Number: 268435464 (0x10000008)
    Signature Algorithm: sha256WithRSAEncryption
        Issuer: CN=SRK3_sha256_4096_65537_v3_ca
        Validity
            Not Before: Feb 21 14:24:48 2018 GMT
            Not After : Feb 19 14:24:48 2028 GMT
        Subject: CN=IMG3_1_sha256_4096_65537_v3_usr
        Subject Public Key Info:
            Public Key Algorithm: rsaEncryption
                Public-Key: (4096 bit)
                Modulus:
                    00:b3:90:29:8e:ad:52:5e:ff:2f:65:54:0f:24:a7:
                    5c:4e:a2:5f:41:1b:9e:be:42:5a:92:d9:55:f3:ae:
                    1a:6e:f1:03:fb:76:f4:e1:c0:1b:b8:1d:c8:6a:13:
                    34:5a:43:b0:65:17:5b:3b:9e:40:8e:31:94:0e:b1:
                    b5:d5:ca:e5:01:10:68:16:4e:86:c1:89:22:31:2e:
                    a0:0e:d0:60:60:b7:da:db:12:ca:da:67:e1:bb:40:
                    8d:62:9c:80:2c:55:c6:da:de:1a:41:85:71:ee:ab:
                    0b:4d:6e:40:25:99:d4:c0:cd:0c:5b:59:a0:fe:2b:
                    5c:2e:b4:c9:ca:4d:0a:f7:e9:4e:06:93:3c:e8:ce:
                    02:fb:15:88:7f:1c:7c:16:ed:21:68:4d:18:28:25:
                    8f:54:69:14:96:f2:10:b6:34:1b:f7:14:e7:3c:09:
                    c1:13:41:c8:69:c1:20:d3:5e:2b:49:d6:23:d4:e9:
                    d7:75:69:6d:b4:74:71:08:76:7a:9b:de:12:b3:aa:
                    d0:cf:0d:3b:36:52:fa:8e:ad:33:05:05:1c:1c:80:
                    8e:ec:9e:a1:77:42:b6:d7:20:14:37:3e:80:b4:bf:
                    23:ee:e5:c2:9a:66:87:88:19:06:f2:a6:26:8d:69:
                    20:7f:0d:5c:b5:52:c6:df:0f:90:9e:53:52:75:bb:
                    2d:57:67:81:60:a4:5c:4e:d7:73:73:26:b1:ac:8e:
                    d9:a3:04:85:c9:99:83:e0:91:96:b6:97:aa:c6:18:
                    eb:39:2f:80:39:cb:d5:cc:50:f6:0a:c7:cf:00:d0:
                    a5:dc:f6:1e:7f:d6:3b:c4:97:9f:e1:77:5f:a8:e6:
                    63:88:39:51:74:1f:c9:f6:be:0f:56:20:a5:f1:dd:
                    f3:e3:6c:5e:5d:bc:61:5c:ff:51:0d:ec:2a:f4:ef:
                    ed:7c:37:97:f7:cf:94:03:21:a7:cc:31:98:d9:81:
                    3e:6f:6b:28:83:68:1e:99:45:75:33:e7:6e:f4:46:
                    92:ef:1b:1d:ad:11:01:92:59:9a:8f:71:b9:8b:50:
                    e4:fb:41:6b:56:f1:e7:65:ab:22:c0:07:58:16:b6:
                    b5:18:66:0a:b1:35:8d:64:74:aa:f4:ca:b8:7e:41:
                    6d:96:0f:d3:ee:66:7f:16:2a:a3:da:14:86:b3:ad:
                    76:6e:c3:23:88:c1:f6:5e:d8:1e:95:50:c0:24:f2:
                    99:f4:0c:23:36:72:25:88:06:50:e8:de:9d:c1:80:
                    85:1a:d5:a4:48:a1:02:8d:74:66:e6:3a:41:9b:10:
                    b9:0c:3e:69:5f:c6:c9:40:ec:65:3d:64:09:65:49:
                    5a:52:35:4f:62:73:c1:4e:b6:0f:56:1c:09:14:a0:
                    9e:69:85
                Exponent: 65537 (0x10001)
        X509v3 extensions:
            X509v3 Basic Constraints: 
                CA:FALSE
            Netscape Comment: 
                OpenSSL Generated Certificate
            X509v3 Subject Key Identifier: 
                A0:F7:8E:60:81:89:7C:E6:3F:E9:FB:92:0C:AB:D5:20:52:05:8B:98
            X509v3 Authority Key Identifier: 
                keyid:C9:2D:EC:D8:67:4D:78:56:16:2D:B5:DA:6F:85:E3:86:7F:DC:70:5B

    Signature Algorithm: sha256WithRSAEncryption
         bd:3b:c1:54:66:da:c4:98:d4:58:43:cf:13:57:cf:25:86:5f:
         ed:0d:34:b8:75:66:0f:86:39:e8:30:2f:73:f9:d8:42:b2:36:
         93:16:bb:5c:99:92:d2:97:e5:14:e2:d7:3d:51:ce:b8:ae:aa:
         d1:54:fa:66:88:53:00:01:59:d8:72:f3:54:ed:2e:11:57:4c:
         1f:23:2d:a6:d4:fd:db:ef:9c:4b:4a:0a:0c:8d:70:67:8f:25:
         10:72:c7:03:8c:e1:14:fd:51:bd:e9:76:00:61:1a:f8:99:78:
         9b:08:ae:91:62:f0:60:1f:3e:bc:06:e9:3b:02:d7:03:b1:dd:
         95:e7:a5:9a:5c:4b:38:07:61:24:e4:a6:d5:82:34:7c:9c:d9:
         d3:df:a1:43:41:7a:16:b9:23:58:0e:b6:ef:ef:1c:ff:9d:bc:
         b3:88:ca:47:15:c3:82:53:f0:19:7d:f2:98:be:3e:fd:45:f1:
         21:93:86:c9:17:a1:99:35:c7:db:32:33:22:bf:d8:a5:4e:11:
         a0:ff:8a:b6:75:97:8b:17:99:43:2c:b6:96:ca:2b:89:bd:bd:
         b5:ad:86:de:6b:49:ea:5d:98:e9:13:87:b1:e6:90:ca:48:18:
         35:31:d6:62:00:42:28:17:8d:cb:f5:ca:c2:ad:70:de:94:2f:
         b8:ea:ab:1f:64:90:e8:eb:85:db:93:41:88:e9:00:6c:16:b6:
         47:85:1c:a5:30:67:1e:bc:1a:8f:72:fc:19:72:de:c1:0b:fe:
         ac:3c:14:11:3c:40:f7:dc:87:d1:c1:06:5f:d1:e4:0a:51:32:
         d7:a5:d6:5e:c7:91:19:e8:b4:e7:36:48:f8:28:eb:82:26:f3:
         4e:a2:77:a5:1b:1e:c5:40:fb:be:47:9a:57:2d:e0:2e:35:7c:
         f5:79:bc:88:5f:72:df:87:62:e3:ad:18:8e:45:42:b4:40:2c:
         7b:a7:e8:9d:ea:c8:e5:88:a9:51:d5:ba:85:0e:aa:ef:0b:d7:
         0d:ed:3e:82:00:98:9d:5a:e4:bf:13:21:c3:3a:b5:f9:db:90:
         db:4a:bb:95:66:37:8f:41:24:40:6d:8d:ae:26:79:f6:23:28:
         23:03:30:81:98:0b:f4:aa:a2:3e:41:2c:67:67:3d:f1:5a:71:
         9b:e8:81:1f:51:05:58:c2:a8:9d:70:d5:8f:c6:8b:8f:84:ed:
         07:cd:ba:b0:ce:e2:bd:db:d7:8b:50:06:8b:ae:f0:76:66:d7:
         61:0e:54:45:97:71:a5:65:10:00:0e:c1:37:36:38:78:7b:d7:
         b9:be:1e:a3:59:a0:c9:46:02:85:01:dd:6e:da:f1:5f:0e:1d:
         0f:91:a9:b4:86:ce:ce:95
-----BEGIN CERTIFICATE-----
MIIFSjCCAzKgAwIBAgIEEAAACDANBgkqhkiG9w0BAQsFADAnMSUwIwYDVQQDDBxT
UkszX3NoYTI1Nl80MDk2XzY1NTM3X3YzX2NhMB4XDTE4MDIyMTE0MjQ0OFoXDTI4
MDIxOTE0MjQ0OFowKjEoMCYGA1UEAwwfSU1HM18xX3NoYTI1Nl80MDk2XzY1NTM3
X3YzX3VzcjCCAiIwDQYJKoZIhvcNAQEBBQADggIPADCCAgoCggIBALOQKY6tUl7/
L2VUDySnXE6iX0Ebnr5CWpLZVfOuGm7xA/t29OHAG7gdyGoTNFpDsGUXWzueQI4x
lA6xtdXK5QEQaBZOhsGJIjEuoA7QYGC32tsSytpn4btAjWKcgCxVxtreGkGFce6r
C01uQCWZ1MDNDFtZoP4rXC60ycpNCvfpTgaTPOjOAvsViH8cfBbtIWhNGCglj1Rp
FJbyELY0G/cU5zwJwRNByGnBINNeK0nWI9Tp13VpbbR0cQh2epveErOq0M8NOzZS
+o6tMwUFHByAjuyeoXdCttcgFDc+gLS/I+7lwppmh4gZBvKmJo1pIH8NXLVSxt8P
kJ5TUnW7LVdngWCkXE7Xc3MmsayO2aMEhcmZg+CRlraXqsYY6zkvgDnL1cxQ9grH
zwDQpdz2Hn/WO8SXn+F3X6jmY4g5UXQfyfa+D1YgpfHd8+NsXl28YVz/UQ3sKvTv
7Xw3l/fPlAMhp8wxmNmBPm9rKINoHplFdTPnbvRGku8bHa0RAZJZmo9xuYtQ5PtB
a1bx52WrIsAHWBa2tRhmCrE1jWR0qvTKuH5BbZYP0+5mfxYqo9oUhrOtdm7DI4jB
9l7YHpVQwCTymfQMIzZyJYgGUOjencGAhRrVpEihAo10ZuY6QZsQuQw+aV/GyUDs
ZT1kCWVJWlI1T2JzwU62D1YcCRSgnmmFAgMBAAGjezB5MAkGA1UdEwQCMAAwLAYJ
YIZIAYb4QgENBB8WHU9wZW5TU0wgR2VuZXJhdGVkIENlcnRpZmljYXRlMB0GA1Ud
DgQWBBSg945ggYl85j/p+5IMq9UgUgWLmDAfBgNVHSMEGDAWgBTJLezYZ014VhYt
tdpvheOGf9xwWzANBgkqhkiG9w0BAQsFAAOCAgEAvTvBVGbaxJjUWEPPE1fPJYZf
7Q00uHVmD4Y56DAvc/nYQrI2kxa7XJmS0pflFOLXPVHOuK6q0VT6ZohTAAFZ2HLz
VO0uEVdMHyMtptT92++cS0oKDI1wZ48lEHLHA4zhFP1Rvel2AGEa+Jl4mwiukWLw
YB8+vAbpOwLXA7HdleelmlxLOAdhJOSm1YI0fJzZ09+hQ0F6FrkjWA627+8c/528
s4jKRxXDglPwGX3ymL4+/UXxIZOGyRehmTXH2zIzIr/YpU4RoP+KtnWXixeZQyy2
lsorib29ta2G3mtJ6l2Y6ROHseaQykgYNTHWYgBCKBeNy/XKwq1w3pQvuOqrH2SQ
6OuF25NBiOkAbBa2R4UcpTBnHrwaj3L8GXLewQv+rDwUETxA99yH0cEGX9HkClEy
16XWXseRGei05zZI+CjrgibzTqJ3pRsexUD7vkeaVy3gLjV89Xm8iF9y34di460Y
jkVCtEAse6fonerI5YipUdW6hQ6q7wvXDe0+ggCYnVrkvxMhwzq1+duQ20q7lWY3
j0EkQG2NriZ59iMoIwMwgZgL9KqiPkEsZ2c98Vpxm+iBH1EFWMKonXDVj8aLj4Tt
B826sM7ivdvXi1AGi67wdmbXYQ5URZdxpWUQAA7BNzY4eHvXub4eo1mgyUYChQHd
btrxXw4dD5GptIbOzpU=
-----END CERTIFICATE-----
