Certificate:
    Data:
        Version: 3 (0x2)
        Serial Number: 268435467 (0x1000000b)
    Signature Algorithm: sha256WithRSAEncryption
        Issuer: CN=SRK4_sha256_4096_65537_v3_ca
        Validity
            Not Before: Feb 21 14:24:49 2018 GMT
            Not After : Feb 19 14:24:49 2028 GMT
        Subject: CN=IMG4_1_sha256_4096_65537_v3_usr
        Subject Public Key Info:
            Public Key Algorithm: rsaEncryption
                Public-Key: (4096 bit)
                Modulus:
                    00:9f:33:d4:ab:77:85:14:00:da:a7:48:78:5d:b6:
                    68:09:cb:8f:67:b2:ac:2b:5a:9e:9b:95:e8:24:bf:
                    85:4c:f9:0f:62:86:5d:8a:be:35:8c:77:3e:86:4d:
                    58:3f:9e:68:cf:5f:10:c9:b4:a1:ad:c7:57:e0:da:
                    d2:a8:99:ec:7a:27:ac:74:20:38:e6:c4:cd:58:d9:
                    78:b9:20:b5:07:f9:30:5f:67:c0:7e:83:97:b4:da:
                    98:25:86:6a:21:6c:28:f1:bc:e1:c4:c3:96:6a:67:
                    35:7b:16:53:59:47:d9:b7:09:f4:75:4a:09:67:d6:
                    74:7e:c4:af:23:09:d1:63:fe:57:c9:01:b4:3d:10:
                    dd:24:0f:62:ea:aa:04:fb:8c:e4:5e:39:ab:36:25:
                    7c:aa:d7:f3:55:57:c8:b8:3f:02:14:b2:70:e7:d8:
                    13:aa:9c:a4:63:7b:c5:1e:b6:74:44:5d:37:75:33:
                    c4:c3:33:8a:bf:02:ef:c9:27:36:93:4d:6e:ee:30:
                    46:56:c0:b7:48:79:91:ef:e5:66:93:e8:b2:0c:6e:
                    3f:69:90:85:56:4e:b2:15:96:04:6c:81:70:25:91:
                    42:f9:04:42:59:37:87:c1:c0:fc:4c:ee:87:73:3a:
                    6c:60:ec:d9:3a:35:ab:80:50:57:18:1e:00:bf:0a:
                    6c:11:8e:91:64:c4:c8:38:5d:78:2a:29:c0:d3:c4:
                    cd:2c:63:fe:48:db:e2:c2:2f:77:c4:32:cb:76:dc:
                    13:c5:8f:66:71:b0:10:f3:be:b4:62:bc:b4:9a:5c:
                    79:18:d8:81:a2:66:e2:56:2b:7a:00:37:21:6c:f3:
                    50:01:e7:d4:27:48:40:85:ac:03:47:9d:34:56:35:
                    86:ba:9a:1e:65:49:af:12:a9:18:66:71:3d:d9:7a:
                    5f:69:1b:6c:17:8d:f4:e7:4e:17:4c:e3:30:9d:84:
                    1c:e1:b4:97:de:ef:c0:91:f0:c9:97:12:89:e3:11:
                    57:f3:cd:4b:05:c4:6c:29:b8:14:d6:31:65:d2:0d:
                    5f:57:ad:40:a3:df:39:7d:92:19:b4:48:52:d9:49:
                    90:67:30:f2:a3:42:4f:4b:46:be:75:37:ea:18:25:
                    d0:2a:05:0a:af:3b:6a:2f:5c:ed:09:e2:33:47:71:
                    b0:ce:37:ba:ed:22:9d:6a:c5:fe:aa:f6:94:29:7c:
                    02:2e:36:6b:52:fd:f0:68:7b:62:b0:df:8c:bf:b5:
                    a3:b8:db:cb:99:46:54:72:00:d6:5e:65:93:48:b8:
                    b5:a1:85:36:85:75:8d:25:d9:b6:d3:43:23:82:84:
                    81:aa:cd:09:e6:ae:f1:0b:48:40:a6:74:ae:5b:1f:
                    73:95:bd
                Exponent: 65537 (0x10001)
        X509v3 extensions:
            X509v3 Basic Constraints: 
                CA:FALSE
            Netscape Comment: 
                OpenSSL Generated Certificate
            X509v3 Subject Key Identifier: 
                AC:CB:0D:62:C5:62:FC:1D:EF:E3:57:96:D4:E5:57:F6:1F:6C:74:B6
            X509v3 Authority Key Identifier: 
                keyid:2C:26:8D:87:3E:72:F4:D5:13:C6:7A:93:2B:BA:BA:26:23:12:21:A0

    Signature Algorithm: sha256WithRSAEncryption
         c0:4d:e8:06:06:06:eb:d5:a5:7e:40:ce:bc:74:b8:40:b3:d9:
         dc:05:63:a1:de:04:e5:22:cd:73:7a:fe:c9:94:d0:76:f8:23:
         00:ce:8b:74:e6:da:82:21:a1:b6:2a:9f:cc:fb:9a:c3:1c:60:
         2e:f9:08:ff:31:7e:e3:b8:39:32:fb:10:57:84:ae:80:0a:60:
         fa:77:62:29:0f:24:f0:18:58:24:41:dc:a5:5f:a9:84:13:3e:
         c8:f4:80:8a:90:31:65:a2:6a:58:70:3f:15:cf:0c:4d:a9:65:
         f3:71:0e:5b:ee:8b:22:b0:03:96:34:73:37:5d:f0:c0:b2:ed:
         e5:c5:91:5f:3e:1a:1b:7a:a7:f8:77:b0:e9:bc:57:16:88:3f:
         0b:a8:e8:81:b1:dd:84:76:1e:e0:2d:d9:67:d8:11:ab:e2:d7:
         f0:1d:f7:86:09:ec:6d:13:59:b2:fc:e7:93:c1:6f:11:0d:80:
         2d:7f:41:ae:1d:c9:af:41:2a:cf:14:dd:a7:0b:43:42:43:7e:
         51:7f:d8:60:68:c3:08:72:f4:fe:bf:21:54:74:3a:28:6a:56:
         f4:7e:0d:cf:a0:39:e9:65:62:16:0e:e1:f6:cd:7b:53:7a:29:
         3e:87:7b:7f:7c:16:85:e9:5c:8d:b3:e0:0d:96:b3:12:60:c5:
         65:ea:37:e4:35:db:47:02:7c:cf:e6:0c:ba:f8:10:f2:d1:16:
         58:d8:c5:a6:ce:28:8c:99:5e:d1:4d:82:46:8d:c6:19:ce:5e:
         ab:d3:aa:92:52:d1:39:b2:19:24:3b:c4:c7:27:d5:43:bc:e5:
         bf:79:5a:b9:18:3d:66:b0:4d:f8:04:ed:09:a1:0d:31:fc:85:
         70:2d:e4:a1:88:f7:34:ad:68:ac:e7:25:60:fa:5d:9f:dc:05:
         b8:8f:fe:ff:7f:b7:0d:1a:56:1d:f9:5f:16:09:f9:06:4e:cc:
         5a:a7:4d:5d:1e:02:f7:5e:ff:58:4d:2a:63:f1:53:c4:c4:1a:
         dd:6a:a4:e4:8a:90:80:3d:a1:e4:2f:80:cb:5c:f7:e0:ba:4e:
         0f:8b:56:93:2b:79:48:09:8d:46:ef:02:11:e0:dd:13:35:61:
         a3:f5:c5:90:20:19:5b:d3:cc:6a:1a:29:2b:f7:93:c9:6c:96:
         a3:9a:9e:d1:33:df:bd:50:21:bf:ba:ca:0b:bd:c9:6e:65:88:
         55:a4:0e:af:ed:0a:ad:b4:38:ff:74:26:41:c8:65:db:e5:f6:
         94:f5:cf:65:d4:64:59:87:2b:43:fb:47:fd:c7:9f:26:57:97:
         72:2a:90:19:af:24:55:89:4e:1b:fe:1e:2d:2a:4a:07:a9:bc:
         05:19:78:7f:7e:a7:68:1a
-----BEGIN CERTIFICATE-----
MIIFSjCCAzKgAwIBAgIEEAAACzANBgkqhkiG9w0BAQsFADAnMSUwIwYDVQQDDBxT
Uks0X3NoYTI1Nl80MDk2XzY1NTM3X3YzX2NhMB4XDTE4MDIyMTE0MjQ0OVoXDTI4
MDIxOTE0MjQ0OVowKjEoMCYGA1UEAwwfSU1HNF8xX3NoYTI1Nl80MDk2XzY1NTM3
X3YzX3VzcjCCAiIwDQYJKoZIhvcNAQEBBQADggIPADCCAgoCggIBAJ8z1Kt3hRQA
2qdIeF22aAnLj2eyrCtanpuV6CS/hUz5D2KGXYq+NYx3PoZNWD+eaM9fEMm0oa3H
V+Da0qiZ7HonrHQgOObEzVjZeLkgtQf5MF9nwH6Dl7TamCWGaiFsKPG84cTDlmpn
NXsWU1lH2bcJ9HVKCWfWdH7EryMJ0WP+V8kBtD0Q3SQPYuqqBPuM5F45qzYlfKrX
81VXyLg/AhSycOfYE6qcpGN7xR62dERdN3UzxMMzir8C78knNpNNbu4wRlbAt0h5
ke/lZpPosgxuP2mQhVZOshWWBGyBcCWRQvkEQlk3h8HA/Ezuh3M6bGDs2To1q4BQ
VxgeAL8KbBGOkWTEyDhdeCopwNPEzSxj/kjb4sIvd8Qyy3bcE8WPZnGwEPO+tGK8
tJpceRjYgaJm4lYregA3IWzzUAHn1CdIQIWsA0edNFY1hrqaHmVJrxKpGGZxPdl6
X2kbbBeN9OdOF0zjMJ2EHOG0l97vwJHwyZcSieMRV/PNSwXEbCm4FNYxZdINX1et
QKPfOX2SGbRIUtlJkGcw8qNCT0tGvnU36hgl0CoFCq87ai9c7QniM0dxsM43uu0i
nWrF/qr2lCl8Ai42a1L98Gh7YrDfjL+1o7jby5lGVHIA1l5lk0i4taGFNoV1jSXZ
ttNDI4KEgarNCeau8QtIQKZ0rlsfc5W9AgMBAAGjezB5MAkGA1UdEwQCMAAwLAYJ
YIZIAYb4QgENBB8WHU9wZW5TU0wgR2VuZXJhdGVkIENlcnRpZmljYXRlMB0GA1Ud
DgQWBBSsyw1ixWL8He/jV5bU5Vf2H2x0tjAfBgNVHSMEGDAWgBQsJo2HPnL01RPG
epMruromIxIhoDANBgkqhkiG9w0BAQsFAAOCAgEAwE3oBgYG69WlfkDOvHS4QLPZ
3AVjod4E5SLNc3r+yZTQdvgjAM6LdObagiGhtiqfzPuawxxgLvkI/zF+47g5MvsQ
V4SugApg+ndiKQ8k8BhYJEHcpV+phBM+yPSAipAxZaJqWHA/Fc8MTall83EOW+6L
IrADljRzN13wwLLt5cWRXz4aG3qn+Hew6bxXFog/C6jogbHdhHYe4C3ZZ9gRq+LX
8B33hgnsbRNZsvznk8FvEQ2ALX9Brh3Jr0EqzxTdpwtDQkN+UX/YYGjDCHL0/r8h
VHQ6KGpW9H4Nz6A56WViFg7h9s17U3opPod7f3wWhelcjbPgDZazEmDFZeo35DXb
RwJ8z+YMuvgQ8tEWWNjFps4ojJle0U2CRo3GGc5eq9OqklLRObIZJDvExyfVQ7zl
v3lauRg9ZrBN+ATtCaENMfyFcC3koYj3NK1orOclYPpdn9wFuI/+/3+3DRpWHflf
Fgn5Bk7MWqdNXR4C917/WE0qY/FTxMQa3Wqk5IqQgD2h5C+Ay1z34LpOD4tWkyt5
SAmNRu8CEeDdEzVho/XFkCAZW9PMahopK/eTyWyWo5qe0TPfvVAhv7rKC73JbmWI
VaQOr+0KrbQ4/3QmQchl2+X2lPXPZdRkWYcrQ/tH/cefJleXciqQGa8kVYlOG/4e
LSpKB6m8BRl4f36naBo=
-----END CERTIFICATE-----
