Certificate:
    Data:
        Version: 3 (0x2)
        Serial Number: 268435468 (0x1000000c)
    Signature Algorithm: sha256WithRSAEncryption
        Issuer: CN=CA1_sha256_2048_65537_v3_ca
        Validity
            Not Before: Mar  1 15:26:20 2018 GMT
            Not After : Feb 27 15:26:20 2028 GMT
        Subject: CN=SRK1_sha256_2048_65537_v3_ca
        Subject Public Key Info:
            Public Key Algorithm: rsaEncryption
                Public-Key: (2048 bit)
                Modulus:
                    00:c3:3f:eb:6c:72:63:fe:25:ed:bd:40:64:c9:27:
                    bc:50:b2:d4:b2:b9:11:5b:40:71:e0:64:96:3c:26:
                    63:b9:3c:0e:2c:2c:64:51:ed:ae:60:4d:73:7b:12:
                    51:78:9b:97:fd:7d:ae:2d:15:f6:78:b7:44:37:a5:
                    e4:bf:81:3b:1a:d8:ea:a6:dd:e1:95:61:2f:0c:b6:
                    8e:17:4a:f6:c2:06:ba:4c:36:95:38:cb:e6:2e:be:
                    d2:7f:17:22:dd:f8:c6:39:67:a2:bd:c7:68:a5:3c:
                    b2:ce:e0:23:1f:1e:81:35:0f:a7:61:00:1f:be:bf:
                    37:d9:5c:3b:ae:53:43:c2:ce:32:ad:17:e4:3d:07:
                    5d:86:08:a1:bb:90:9c:e7:aa:94:42:67:3f:8f:9b:
                    90:df:a7:a8:77:97:d7:28:f7:e9:3d:f2:66:8c:39:
                    6d:4b:0c:cc:0a:d6:b5:1f:77:67:6c:14:34:7b:75:
                    36:15:51:27:34:a4:cd:57:aa:32:5a:d4:49:49:00:
                    9f:df:f3:40:dc:01:09:8b:9a:0a:e6:79:1e:74:16:
                    58:b6:dc:80:41:6f:04:5d:0a:b5:0e:30:8e:68:e0:
                    96:d9:15:d6:43:e9:ab:5a:25:cd:83:af:bb:2b:a0:
                    db:1f:2f:6a:c9:5c:5b:90:10:70:23:d7:f5:13:25:
                    4e:ad
                Exponent: 65537 (0x10001)
        X509v3 extensions:
            X509v3 Subject Key Identifier: 
                99:70:A4:7E:B1:C9:45:B8:5A:AE:D3:A0:D5:06:E0:78:18:F3:F4:6A
            X509v3 Authority Key Identifier: 
                keyid:9F:2D:1A:CC:B2:E8:04:6C:CE:3A:CA:69:29:2F:35:E5:AB:08:08:EE
                DirName:/CN=CA1_sha256_2048_65537_v3_ca
                serial:CF:E0:8C:DB:9F:2F:21:BF

            X509v3 Basic Constraints: critical
                CA:TRUE
            X509v3 Key Usage: 
                Certificate Sign
    Signature Algorithm: sha256WithRSAEncryption
         3d:65:77:f3:f2:5b:fb:b3:15:c2:00:ac:4a:54:99:e3:64:05:
         79:41:b0:4a:ba:32:83:cf:c2:8e:a7:53:f3:8e:dc:1b:a4:d4:
         2f:a9:47:68:82:00:d9:fa:70:89:ab:3f:41:25:7f:7c:1e:84:
         47:1a:7b:f2:2b:a8:f6:6a:8e:39:ae:27:8e:96:14:68:7b:21:
         51:cb:fb:57:d3:e5:d2:41:0f:bc:52:1b:a4:50:63:80:da:2a:
         62:e7:9f:77:fe:7f:f6:4f:e3:41:dd:a2:bb:e6:55:1e:35:10:
         99:16:e8:1d:ef:7c:cf:34:b0:23:cd:49:cc:ed:14:72:f7:f1:
         46:45:4e:74:cd:f8:aa:e9:1f:0f:38:f4:ed:d6:96:26:49:0e:
         de:ee:b1:7c:d2:fc:9f:d4:4a:ef:15:78:89:2f:87:1e:f8:d2:
         07:2a:df:aa:32:7d:ec:a8:42:ab:a9:ca:2a:cb:05:f4:52:67:
         58:7d:9f:88:d7:fc:76:a9:e0:66:ae:f5:b9:e7:31:cf:7b:9a:
         aa:7b:7f:88:da:25:a7:a6:b7:08:8a:7f:27:c6:17:26:ca:0d:
         a9:34:bc:2e:32:29:a9:33:ec:f9:12:02:fa:08:75:c0:6b:88:
         d7:bd:e0:bd:55:92:4e:a0:1c:15:75:b3:5a:10:00:3f:69:7d:
         00:6f:cf:35
-----BEGIN CERTIFICATE-----
MIIDZDCCAkygAwIBAgIEEAAADDANBgkqhkiG9w0BAQsFADAmMSQwIgYDVQQDFBtD
QTFfc2hhMjU2XzIwNDhfNjU1MzdfdjNfY2EwHhcNMTgwMzAxMTUyNjIwWhcNMjgw
MjI3MTUyNjIwWjAnMSUwIwYDVQQDDBxTUksxX3NoYTI1Nl8yMDQ4XzY1NTM3X3Yz
X2NhMIIBIjANBgkqhkiG9w0BAQEFAAOCAQ8AMIIBCgKCAQEAwz/rbHJj/iXtvUBk
ySe8ULLUsrkRW0Bx4GSWPCZjuTwOLCxkUe2uYE1zexJReJuX/X2uLRX2eLdEN6Xk
v4E7Gtjqpt3hlWEvDLaOF0r2wga6TDaVOMvmLr7Sfxci3fjGOWeivcdopTyyzuAj
Hx6BNQ+nYQAfvr832Vw7rlNDws4yrRfkPQddhgihu5Cc56qUQmc/j5uQ36eod5fX
KPfpPfJmjDltSwzMCta1H3dnbBQ0e3U2FVEnNKTNV6oyWtRJSQCf3/NA3AEJi5oK
5nkedBZYttyAQW8EXQq1DjCOaOCW2RXWQ+mrWiXNg6+7K6DbHy9qyVxbkBBwI9f1
EyVOrQIDAQABo4GYMIGVMB0GA1UdDgQWBBSZcKR+sclFuFqu06DVBuB4GPP0ajBW
BgNVHSMETzBNgBSfLRrMsugEbM46ymkpLzXlqwgI7qEqpCgwJjEkMCIGA1UEAxQb
Q0ExX3NoYTI1Nl8yMDQ4XzY1NTM3X3YzX2NhggkAz+CM258vIb8wDwYDVR0TAQH/
BAUwAwEB/zALBgNVHQ8EBAMCAgQwDQYJKoZIhvcNAQELBQADggEBAD1ld/PyW/uz
FcIArEpUmeNkBXlBsEq6MoPPwo6nU/OO3Buk1C+pR2iCANn6cImrP0Elf3wehEca
e/IrqPZqjjmuJ46WFGh7IVHL+1fT5dJBD7xSG6RQY4DaKmLnn3f+f/ZP40Hdorvm
VR41EJkW6B3vfM80sCPNScztFHL38UZFTnTN+KrpHw849O3WliZJDt7usXzS/J/U
Su8VeIkvhx740gcq36oyfeyoQqupyirLBfRSZ1h9n4jX/Hap4Gau9bnnMc97mqp7
f4jaJaemtwiKfyfGFybKDak0vC4yKakz7PkSAvoIdcBriNe94L1Vkk6gHBV1s1oQ
AD9pfQBvzzU=
-----END CERTIFICATE-----
