Certificate:
    Data:
        Version: 3 (0x2)
        Serial Number: 268435462 (0x10000006)
    Signature Algorithm: sha256WithRSAEncryption
        Issuer: CN=CA1_sha256_4096_65537_v3_ca
        Validity
            Not Before: Feb 21 14:24:45 2018 GMT
            Not After : Feb 19 14:24:45 2028 GMT
        Subject: CN=SRK3_sha256_4096_65537_v3_ca
        Subject Public Key Info:
            Public Key Algorithm: rsaEncryption
                Public-Key: (4096 bit)
                Modulus:
                    00:be:07:1a:e6:d0:28:3f:99:ab:b5:15:2d:a4:7f:
                    11:c4:09:a2:ea:8d:de:cd:d8:a8:7f:ff:c0:ee:61:
                    60:74:e5:55:fc:f4:37:30:5a:cc:51:6f:c0:d8:88:
                    c4:f9:6b:0f:aa:91:80:13:da:fa:cf:d7:4f:7c:38:
                    5a:4f:4d:d0:50:7d:ad:68:7d:32:1a:bf:b3:17:03:
                    55:17:79:00:d4:5b:df:fc:5d:ab:28:53:66:68:1c:
                    da:57:93:4a:ab:8f:c8:8c:b3:35:31:01:ab:1e:0d:
                    7b:83:07:5a:9a:11:84:bc:86:a3:7c:01:42:12:72:
                    33:62:d2:4e:d4:c2:f8:d8:64:bb:ee:57:b4:99:4a:
                    ed:58:ef:bc:9f:ff:9f:6f:6b:49:4a:a1:75:d3:c7:
                    89:0b:e3:76:64:d4:6d:0c:c7:2d:8a:02:9a:b5:b2:
                    14:3d:c2:44:02:c2:c4:9d:a0:0a:38:1c:44:5b:72:
                    17:c4:0f:28:f5:29:69:7e:e0:a5:00:b3:8b:20:b0:
                    f7:60:76:9b:ad:4a:03:2d:3e:e9:33:8e:d8:0e:af:
                    50:a8:62:c0:b4:a0:96:20:18:c5:45:1a:8e:0e:ef:
                    1d:c7:60:40:1d:b4:b2:32:f4:b4:49:15:06:89:3d:
                    65:fd:b6:4a:e0:7f:5c:d5:2f:15:23:b0:1a:d1:c1:
                    e5:3c:a0:46:2e:6f:0a:7e:22:95:ca:dc:09:ec:61:
                    46:7d:7d:84:5b:98:1d:8b:59:a0:a1:56:e2:08:d6:
                    d3:6d:eb:d3:3d:ff:54:c5:fd:26:f0:39:ee:aa:5a:
                    ff:c7:2e:06:2e:8c:dd:02:67:15:14:90:59:ea:64:
                    69:8a:7f:40:a2:f7:ca:f1:e3:95:35:a7:cb:cd:b6:
                    aa:7d:87:23:11:90:5c:c7:c5:b5:07:b9:76:06:f3:
                    d7:75:0e:25:4b:30:0f:2a:b1:64:b8:cb:a0:2b:3a:
                    b8:46:bd:11:cd:6d:0d:61:29:04:0a:a6:e7:de:44:
                    26:c3:a7:ff:ba:25:7e:11:81:f6:8c:ce:11:d6:53:
                    2a:d1:4e:47:25:8b:ce:c7:eb:81:e1:3f:47:e6:2e:
                    76:90:f9:70:15:cf:fb:41:e5:a2:f8:cf:39:0b:18:
                    2a:28:c5:b7:fa:fb:51:1e:a0:5b:e4:39:f6:91:78:
                    59:51:e9:ce:53:6a:52:2c:43:3f:8f:24:f8:e5:35:
                    91:3c:69:aa:08:c5:f3:1b:20:dc:cb:37:83:9a:0b:
                    be:43:3d:3f:a3:97:35:7f:df:20:28:85:d3:3b:41:
                    50:c6:0b:45:d6:89:14:d3:e5:86:56:22:ed:46:2d:
                    50:1e:08:ea:7f:6b:07:40:59:da:72:05:d8:68:61:
                    b7:e2:f9
                Exponent: 65537 (0x10001)
        X509v3 extensions:
            X509v3 Subject Key Identifier: 
                C9:2D:EC:D8:67:4D:78:56:16:2D:B5:DA:6F:85:E3:86:7F:DC:70:5B
            X509v3 Authority Key Identifier: 
                keyid:03:D4:EF:8E:00:F2:B5:6A:26:85:70:6A:67:45:8E:DB:5D:72:9E:B0
                DirName:/CN=CA1_sha256_4096_65537_v3_ca
                serial:A6:7F:BE:42:32:53:AE:16

            X509v3 Basic Constraints: critical
                CA:TRUE
            X509v3 Key Usage: 
                Certificate Sign
    Signature Algorithm: sha256WithRSAEncryption
         3e:32:2e:a8:b0:17:d8:3d:c6:92:ca:91:41:f2:19:9a:6c:f5:
         2d:d8:83:f3:35:fb:98:72:b2:bc:ef:41:6c:49:3d:e0:fa:bf:
         1c:5c:69:16:d0:e8:f3:af:c5:54:7b:55:53:cb:a6:65:da:e5:
         1b:48:03:a7:80:2e:fd:bc:a8:fe:68:bd:f4:68:ab:88:45:87:
         fe:f7:45:ff:e4:f8:7d:b4:05:ad:47:dd:ce:eb:b9:12:60:d0:
         aa:94:ea:1e:7d:5c:1e:93:2c:ff:51:64:82:4b:98:ec:e2:34:
         aa:62:77:d3:44:d0:e9:02:16:12:9b:06:a4:d4:7f:15:53:de:
         ec:33:32:c9:2d:db:ae:98:e0:3f:3e:46:27:df:29:91:d6:88:
         e0:8e:f8:98:95:9d:b5:21:45:2f:1c:e2:c2:fc:13:4c:fa:46:
         d1:eb:ce:ba:66:7a:b9:f2:7e:64:7f:27:14:c9:00:e0:bb:25:
         74:d0:98:5c:cf:2e:f2:99:2e:48:44:c3:b0:9b:69:e1:a4:4b:
         01:bf:90:ba:7c:99:a3:5d:c0:51:bd:70:9e:a0:ec:79:69:10:
         0d:9e:a1:46:77:ef:86:c3:94:83:74:44:e4:a8:9f:47:d6:57:
         41:a9:74:03:d3:06:2c:b7:ac:25:ae:ef:63:41:86:4a:32:12:
         aa:b3:84:ef:6c:21:36:1b:1c:04:97:fc:a7:00:71:6c:ba:de:
         93:ea:ff:ab:9b:e0:5a:5b:cc:e4:59:ae:cf:3b:9e:0f:58:91:
         9f:aa:58:51:2a:38:58:1d:79:0d:12:69:c6:a8:73:64:8e:2a:
         9b:fc:cc:8a:d3:c7:79:b3:02:2e:87:67:13:8f:c3:88:e7:81:
         02:e5:bf:52:36:e3:e7:29:a8:71:f3:62:71:0b:9f:33:8e:48:
         78:c3:e8:94:1d:3f:30:46:dd:ea:30:e1:82:f7:c1:ff:06:14:
         30:4c:8f:44:58:95:ba:e8:d4:4e:8b:02:9b:fd:a1:84:e4:3d:
         1e:dc:3c:6b:08:f6:ee:3b:0e:8a:13:72:8b:bc:bc:0a:8c:b7:
         90:4b:6c:9f:19:14:56:17:01:05:9b:2b:d7:d3:e7:19:1b:b1:
         6e:e7:a0:2f:82:20:7b:ed:40:08:55:7d:d8:c0:7b:28:bb:e5:
         87:4d:82:be:fc:58:d1:ef:24:d6:49:fc:ef:da:f3:98:e4:89:
         38:a7:10:af:c4:a9:21:72:90:8c:19:9d:27:81:f2:52:f6:81:
         3f:25:97:40:b9:40:bb:bd:76:a5:9b:9d:f9:1f:08:94:42:d3:
         93:6f:08:9d:a6:ba:dc:b7:77:f2:cf:1a:50:d4:58:11:1d:da:
         bd:45:ed:bc:7d:07:16:72
-----BEGIN CERTIFICATE-----
MIIFZDCCA0ygAwIBAgIEEAAABjANBgkqhkiG9w0BAQsFADAmMSQwIgYDVQQDFBtD
QTFfc2hhMjU2XzQwOTZfNjU1MzdfdjNfY2EwHhcNMTgwMjIxMTQyNDQ1WhcNMjgw
MjE5MTQyNDQ1WjAnMSUwIwYDVQQDDBxTUkszX3NoYTI1Nl80MDk2XzY1NTM3X3Yz
X2NhMIICIjANBgkqhkiG9w0BAQEFAAOCAg8AMIICCgKCAgEAvgca5tAoP5mrtRUt
pH8RxAmi6o3ezdiof//A7mFgdOVV/PQ3MFrMUW/A2IjE+WsPqpGAE9r6z9dPfDha
T03QUH2taH0yGr+zFwNVF3kA1Fvf/F2rKFNmaBzaV5NKq4/IjLM1MQGrHg17gwda
mhGEvIajfAFCEnIzYtJO1ML42GS77le0mUrtWO+8n/+fb2tJSqF108eJC+N2ZNRt
DMctigKatbIUPcJEAsLEnaAKOBxEW3IXxA8o9SlpfuClALOLILD3YHabrUoDLT7p
M47YDq9QqGLAtKCWIBjFRRqODu8dx2BAHbSyMvS0SRUGiT1l/bZK4H9c1S8VI7Aa
0cHlPKBGLm8KfiKVytwJ7GFGfX2EW5gdi1mgoVbiCNbTbevTPf9Uxf0m8Dnuqlr/
xy4GLozdAmcVFJBZ6mRpin9AovfK8eOVNafLzbaqfYcjEZBcx8W1B7l2BvPXdQ4l
SzAPKrFkuMugKzq4Rr0RzW0NYSkECqbn3kQmw6f/uiV+EYH2jM4R1lMq0U5HJYvO
x+uB4T9H5i52kPlwFc/7QeWi+M85CxgqKMW3+vtRHqBb5Dn2kXhZUenOU2pSLEM/
jyT45TWRPGmqCMXzGyDcyzeDmgu+Qz0/o5c1f98gKIXTO0FQxgtF1okU0+WGViLt
Ri1QHgjqf2sHQFnacgXYaGG34vkCAwEAAaOBmDCBlTAdBgNVHQ4EFgQUyS3s2GdN
eFYWLbXab4Xjhn/ccFswVgYDVR0jBE8wTYAUA9TvjgDytWomhXBqZ0WO211ynrCh
KqQoMCYxJDAiBgNVBAMUG0NBMV9zaGEyNTZfNDA5Nl82NTUzN192M19jYYIJAKZ/
vkIyU64WMA8GA1UdEwEB/wQFMAMBAf8wCwYDVR0PBAQDAgIEMA0GCSqGSIb3DQEB
CwUAA4ICAQA+Mi6osBfYPcaSypFB8hmabPUt2IPzNfuYcrK870FsST3g+r8cXGkW
0Ojzr8VUe1VTy6Zl2uUbSAOngC79vKj+aL30aKuIRYf+90X/5Ph9tAWtR93O67kS
YNCqlOoefVwekyz/UWSCS5js4jSqYnfTRNDpAhYSmwak1H8VU97sMzLJLduumOA/
PkYn3ymR1ojgjviYlZ21IUUvHOLC/BNM+kbR6866Znq58n5kfycUyQDguyV00Jhc
zy7ymS5IRMOwm2nhpEsBv5C6fJmjXcBRvXCeoOx5aRANnqFGd++Gw5SDdETkqJ9H
1ldBqXQD0wYst6wlru9jQYZKMhKqs4TvbCE2GxwEl/ynAHFsut6T6v+rm+BaW8zk
Wa7PO54PWJGfqlhRKjhYHXkNEmnGqHNkjiqb/MyK08d5swIuh2cTj8OI54EC5b9S
NuPnKahx82JxC58zjkh4w+iUHT8wRt3qMOGC98H/BhQwTI9EWJW66NROiwKb/aGE
5D0e3DxrCPbuOw6KE3KLvLwKjLeQS2yfGRRWFwEFmyvX0+cZG7Fu56AvgiB77UAI
VX3YwHsou+WHTYK+/FjR7yTWSfzv2vOY5Ik4pxCvxKkhcpCMGZ0ngfJS9oE/JZdA
uUC7vXalm535HwiUQtOTbwidprrct3fyzxpQ1FgRHdq9Re28fQcWcg==
-----END CERTIFICATE-----
