Certificate:
    Data:
        Version: 3 (0x2)
        Serial Number: 268435465 (0x10000009)
    Signature Algorithm: sha256WithRSAEncryption
        Issuer: CN=CA1_sha256_4096_65537_v3_ca
        Validity
            Not Before: Feb 21 14:24:48 2018 GMT
            Not After : Feb 19 14:24:48 2028 GMT
        Subject: CN=SRK4_sha256_4096_65537_v3_ca
        Subject Public Key Info:
            Public Key Algorithm: rsaEncryption
                Public-Key: (4096 bit)
                Modulus:
                    00:cc:ce:db:9a:40:72:30:d2:16:3e:e6:76:ba:4f:
                    f2:df:a7:be:1b:37:95:7c:24:4b:03:da:df:f7:28:
                    9b:44:07:62:01:67:ca:66:b9:8e:fa:f5:0e:0f:74:
                    33:b5:2b:cd:6e:f9:2a:58:f0:c2:f1:1b:50:e1:42:
                    66:90:8f:67:be:3e:57:7c:2c:f4:c5:c0:73:7a:ec:
                    c2:d0:3d:7f:ac:f7:38:0e:15:e7:15:7d:89:55:f7:
                    5b:2b:1a:d8:31:bc:76:a3:fe:c6:e9:29:9b:45:1f:
                    20:6c:fc:3a:f8:f7:96:ef:b2:d7:a7:3a:d1:53:4c:
                    78:a4:82:54:40:eb:f4:6e:94:43:6e:cb:37:b2:93:
                    32:31:a8:9c:22:87:c4:1e:42:25:42:ed:20:32:5e:
                    31:a0:0f:3c:5a:a9:5c:e5:51:5e:3a:5f:8d:31:eb:
                    76:a2:f4:44:1e:07:c8:3c:24:75:d4:c3:96:4a:84:
                    42:00:0e:cf:f3:c1:1a:83:ee:e1:31:b0:d3:e3:97:
                    d3:3e:79:a3:58:52:60:70:9b:b3:23:35:d3:3f:a7:
                    a9:be:14:7a:b9:09:21:7d:1c:0a:99:41:37:38:d4:
                    63:4b:92:80:15:aa:fc:fc:b1:7b:48:25:0a:72:bc:
                    ea:7b:30:cb:5f:07:9e:dd:1d:fb:7e:06:f1:6b:63:
                    68:62:aa:20:16:f5:01:3d:23:2b:08:67:5d:bc:46:
                    b0:95:4d:ab:83:e8:71:a7:01:cc:7c:10:50:4d:65:
                    b4:4b:c4:5f:4c:e7:2e:55:73:18:ac:ea:55:6a:12:
                    6d:1e:40:f5:7b:ed:20:5a:3f:0b:63:8d:91:00:84:
                    c6:40:05:c7:05:a5:18:c6:2f:63:8c:c2:5d:a1:32:
                    c6:c6:82:97:db:37:04:b6:79:7a:ae:33:32:13:67:
                    97:51:9b:a5:62:23:ef:ff:47:c6:f5:e1:02:c8:20:
                    09:b4:1c:51:03:32:f3:01:45:22:ec:5d:d1:91:29:
                    ab:52:2b:05:22:a0:66:3c:be:11:29:74:f7:b8:dd:
                    e2:c5:69:de:4a:84:37:c3:00:ae:33:d0:52:26:40:
                    73:6c:cc:7e:dd:f3:e1:4f:c8:71:da:e0:43:80:6f:
                    86:ff:91:1a:1d:2b:7f:04:27:bb:b3:b4:ad:9c:c1:
                    fd:7d:a9:01:8d:48:6e:e6:45:9d:80:41:1b:bc:3e:
                    e5:ca:e4:1f:13:f1:1b:b9:ed:e6:43:ab:39:9c:65:
                    0a:9c:4c:a8:11:e7:9b:c6:7e:6d:ad:ac:aa:f3:40:
                    1b:f4:c7:c1:97:9c:61:e0:b1:41:4f:fb:c2:88:87:
                    70:68:f8:63:34:fc:0c:1f:70:08:eb:9a:80:aa:24:
                    bc:a0:97
                Exponent: 65537 (0x10001)
        X509v3 extensions:
            X509v3 Subject Key Identifier: 
                2C:26:8D:87:3E:72:F4:D5:13:C6:7A:93:2B:BA:BA:26:23:12:21:A0
            X509v3 Authority Key Identifier: 
                keyid:03:D4:EF:8E:00:F2:B5:6A:26:85:70:6A:67:45:8E:DB:5D:72:9E:B0
                DirName:/CN=CA1_sha256_4096_65537_v3_ca
                serial:A6:7F:BE:42:32:53:AE:16

            X509v3 Basic Constraints: critical
                CA:TRUE
            X509v3 Key Usage: 
                Certificate Sign
    Signature Algorithm: sha256WithRSAEncryption
         69:67:3d:15:9c:d9:21:31:22:f8:f0:62:26:fe:8e:1c:26:9e:
         2a:13:a3:a5:18:3b:6f:c5:08:7a:d4:c8:92:23:e4:c3:46:18:
         94:bd:45:40:8e:c6:64:d3:d1:88:2c:c2:50:80:d5:73:8d:c5:
         bb:f2:43:d3:96:ef:62:63:2a:25:03:0e:bd:d1:c2:6e:1f:4d:
         70:96:e8:9e:bc:f8:e6:83:35:e5:8b:b5:00:bf:15:0d:39:bd:
         7c:e5:ca:b8:8f:65:d9:16:32:64:3e:e5:ed:d8:ea:40:ae:73:
         83:af:d7:33:ac:0a:2f:08:6b:9c:29:09:80:6d:1f:6f:78:01:
         35:5c:ec:5a:93:ad:74:7b:2c:4b:72:16:cc:0f:b0:61:0a:d9:
         09:a4:9d:25:47:fd:a0:ba:fe:86:77:ee:25:44:55:74:d9:1a:
         ba:ff:b8:db:da:9b:6c:36:5f:d6:5c:30:01:8a:49:1e:0c:05:
         c2:f3:4d:88:a2:67:b9:eb:bf:a5:96:a6:87:08:01:f3:ec:5e:
         c5:36:22:da:7b:d0:d0:b4:a8:f9:24:b2:eb:31:3d:e7:41:37:
         ef:b0:3f:5b:4f:d1:e0:23:26:60:36:6b:6e:2e:f2:36:0d:fc:
         99:8a:02:0d:c5:6c:0a:58:55:86:54:a2:0d:fd:e2:58:38:b5:
         ad:1c:ef:c3:bf:fb:dd:8b:a2:4f:af:0a:b1:94:35:15:ba:95:
         af:18:fa:c0:81:a0:8e:9f:1b:a1:47:bf:1b:3e:a9:28:09:75:
         0a:d7:b3:a7:c5:00:bf:89:ed:6c:93:26:ef:ff:f1:23:cf:fd:
         07:7d:dd:e5:8b:89:15:aa:74:e2:81:84:a2:d0:d8:7c:f1:94:
         68:b3:ee:fa:7b:3b:b8:34:8f:bc:b2:e4:b0:52:fa:cf:6a:eb:
         72:4d:40:62:72:d1:28:00:2c:57:e8:fe:13:5e:fd:05:37:d2:
         dc:c1:9f:39:4c:0e:93:4e:6b:2a:81:33:5a:9f:2f:c1:3f:e1:
         dc:58:a3:8d:bc:c0:6e:e2:ce:6e:60:aa:35:a5:5c:f0:c5:59:
         31:b9:b7:b6:e0:90:b8:66:d6:e5:b2:4e:a7:a8:97:d2:c4:b2:
         89:31:94:98:9b:cf:0a:dd:2a:a7:e0:1e:bf:36:b8:d9:11:3f:
         06:8f:38:f7:58:72:b5:47:43:15:d3:06:74:3e:73:d5:7b:6d:
         5d:98:d5:1b:db:ad:d6:0e:3e:f5:79:15:d3:31:6e:a4:d8:de:
         fb:e7:c1:f7:4d:36:0a:33:88:ba:9b:d2:2c:63:02:3e:34:aa:
         5e:24:1d:df:93:16:9e:5d:ff:48:b5:0d:b9:f3:bf:3d:8d:61:
         87:fc:a5:96:2f:15:5a:98
-----BEGIN CERTIFICATE-----
MIIFZDCCA0ygAwIBAgIEEAAACTANBgkqhkiG9w0BAQsFADAmMSQwIgYDVQQDFBtD
QTFfc2hhMjU2XzQwOTZfNjU1MzdfdjNfY2EwHhcNMTgwMjIxMTQyNDQ4WhcNMjgw
MjE5MTQyNDQ4WjAnMSUwIwYDVQQDDBxTUks0X3NoYTI1Nl80MDk2XzY1NTM3X3Yz
X2NhMIICIjANBgkqhkiG9w0BAQEFAAOCAg8AMIICCgKCAgEAzM7bmkByMNIWPuZ2
uk/y36e+GzeVfCRLA9rf9yibRAdiAWfKZrmO+vUOD3QztSvNbvkqWPDC8RtQ4UJm
kI9nvj5XfCz0xcBzeuzC0D1/rPc4DhXnFX2JVfdbKxrYMbx2o/7G6SmbRR8gbPw6
+PeW77LXpzrRU0x4pIJUQOv0bpRDbss3spMyMaicIofEHkIlQu0gMl4xoA88Wqlc
5VFeOl+NMet2ovREHgfIPCR11MOWSoRCAA7P88Eag+7hMbDT45fTPnmjWFJgcJuz
IzXTP6epvhR6uQkhfRwKmUE3ONRjS5KAFar8/LF7SCUKcrzqezDLXwee3R37fgbx
a2NoYqogFvUBPSMrCGddvEawlU2rg+hxpwHMfBBQTWW0S8RfTOcuVXMYrOpVahJt
HkD1e+0gWj8LY42RAITGQAXHBaUYxi9jjMJdoTLGxoKX2zcEtnl6rjMyE2eXUZul
YiPv/0fG9eECyCAJtBxRAzLzAUUi7F3RkSmrUisFIqBmPL4RKXT3uN3ixWneSoQ3
wwCuM9BSJkBzbMx+3fPhT8hx2uBDgG+G/5EaHSt/BCe7s7StnMH9fakBjUhu5kWd
gEEbvD7lyuQfE/Ebue3mQ6s5nGUKnEyoEeebxn5trayq80Ab9MfBl5xh4LFBT/vC
iIdwaPhjNPwMH3AI65qAqiS8oJcCAwEAAaOBmDCBlTAdBgNVHQ4EFgQULCaNhz5y
9NUTxnqTK7q6JiMSIaAwVgYDVR0jBE8wTYAUA9TvjgDytWomhXBqZ0WO211ynrCh
KqQoMCYxJDAiBgNVBAMUG0NBMV9zaGEyNTZfNDA5Nl82NTUzN192M19jYYIJAKZ/
vkIyU64WMA8GA1UdEwEB/wQFMAMBAf8wCwYDVR0PBAQDAgIEMA0GCSqGSIb3DQEB
CwUAA4ICAQBpZz0VnNkhMSL48GIm/o4cJp4qE6OlGDtvxQh61MiSI+TDRhiUvUVA
jsZk09GILMJQgNVzjcW78kPTlu9iYyolAw690cJuH01wluievPjmgzXli7UAvxUN
Ob185cq4j2XZFjJkPuXt2OpArnODr9czrAovCGucKQmAbR9veAE1XOxak610eyxL
chbMD7BhCtkJpJ0lR/2guv6Gd+4lRFV02Rq6/7jb2ptsNl/WXDABikkeDAXC802I
ome567+llqaHCAHz7F7FNiLae9DQtKj5JLLrMT3nQTfvsD9bT9HgIyZgNmtuLvI2
DfyZigINxWwKWFWGVKIN/eJYOLWtHO/Dv/vdi6JPrwqxlDUVupWvGPrAgaCOnxuh
R78bPqkoCXUK17OnxQC/ie1skybv//Ejz/0Hfd3li4kVqnTigYSi0Nh88ZRos+76
ezu4NI+8suSwUvrPautyTUBictEoACxX6P4TXv0FN9LcwZ85TA6TTmsqgTNany/B
P+HcWKONvMBu4s5uYKo1pVzwxVkxube24JC4Ztblsk6nqJfSxLKJMZSYm88K3Sqn
4B6/NrjZET8Gjzj3WHK1R0MV0wZ0PnPVe21dmNUb263WDj71eRXTMW6k2N7758H3
TTYKM4i6m9IsYwI+NKpeJB3fkxaeXf9ItQ258789jWGH/KWWLxVamA==
-----END CERTIFICATE-----
